----------------
IN: 
0x4000801c30:  48 89 e7                 movq     %rsp, %rdi
0x4000801c33:  e8 78 0d 00 00           callq    0x40008029b0

----------------
IN: 
0x40008029b0:  55                       pushq    %rbp
0x40008029b1:  48 89 e5                 movq     %rsp, %rbp
0x40008029b4:  41 57                    pushq    %r15
0x40008029b6:  41 56                    pushq    %r14
0x40008029b8:  41 55                    pushq    %r13
0x40008029ba:  41 54                    pushq    %r12
0x40008029bc:  49 89 fc                 movq     %rdi, %r12
0x40008029bf:  53                       pushq    %rbx
0x40008029c0:  48 83 ec 38              subq     $0x38, %rsp
0x40008029c4:  0f 31                    rdtsc    
0x40008029c6:  48 c1 e2 20              shlq     $0x20, %rdx
0x40008029ca:  89 c0                    movl     %eax, %eax
0x40008029cc:  48 09 d0                 orq      %rdx, %rax
0x40008029cf:  48 8d 15 aa 44 22 00     leaq     0x2244aa(%rip), %rdx
0x40008029d6:  48 89 05 83 42 22 00     movq     %rax, 0x224283(%rip)
0x40008029dd:  48 8b 05 9c 44 22 00     movq     0x22449c(%rip), %rax
0x40008029e4:  49 89 d6                 movq     %rdx, %r14
0x40008029e7:  4c 2b 35 12 46 22 00     subq     0x224612(%rip), %r14
0x40008029ee:  48 89 15 f3 4f 22 00     movq     %rdx, 0x224ff3(%rip)
0x40008029f5:  48 85 c0                 testq    %rax, %rax
0x40008029f8:  4c 89 35 d9 4f 22 00     movq     %r14, 0x224fd9(%rip)
0x40008029ff:  0f 84 8d 00 00 00        je       0x4000802a92

----------------
IN: 
0x4000802a05:  48 8d 0d 34 46 22 00     leaq     0x224634(%rip), %rcx
0x4000802a0c:  49 b9 d8 03 00 80 03 00  movabsq  $0x3800003d8, %r9
0x4000802a14:  00 00
0x4000802a16:  49 b8 78 fb ff 7f 03 00  movabsq  $0x37ffffb78, %r8
0x4000802a1e:  00 00
0x4000802a20:  be ff ff ff 6f           movl     $0x6fffffff, %esi
0x4000802a25:  41 bb ff fd ff 6f        movl     $0x6ffffdff, %r11d
0x4000802a2b:  bb ff fe ff 6f           movl     $0x6ffffeff, %ebx
0x4000802a30:  49 01 c9                 addq     %rcx, %r9
0x4000802a33:  49 01 c8                 addq     %rcx, %r8
0x4000802a36:  41 ba 31 00 00 00        movl     $0x31, %r10d
0x4000802a3c:  bf 21 00 00 70           movl     $0x70000021, %edi
0x4000802a41:  eb 1c                    jmp      0x4000802a5f

----------------
IN: 
0x4000802a5f:  48 83 f8 21              cmpq     $0x21, %rax
0x4000802a63:  76 e3                    jbe      0x4000802a48

----------------
IN: 
0x4000802a48:  48 8d 0d c9 4f 22 00     leaq     0x224fc9(%rip), %rcx
0x4000802a4f:  48 89 14 c1              movq     %rdx, (%rcx, %rax, 8)
0x4000802a53:  48 83 c2 10              addq     $0x10, %rdx
0x4000802a57:  48 8b 02                 movq     (%rdx), %rax
0x4000802a5a:  48 85 c0                 testq    %rax, %rax
0x4000802a5d:  74 33                    je       0x4000802a92

----------------
IN: 
0x4000802a65:  48 89 f1                 movq     %rsi, %rcx
0x4000802a68:  48 29 c1                 subq     %rax, %rcx
0x4000802a6b:  48 83 f9 0f              cmpq     $0xf, %rcx
0x4000802a6f:  0f 87 f3 01 00 00        ja       0x4000802c68

----------------
IN: 
0x4000802c68:  8d 0c 00                 leal     (%rax, %rax), %ecx
0x4000802c6b:  d1 f9                    sarl     $1, %ecx
0x4000802c6d:  83 f9 fc                 cmpl     $0xfc, %ecx
0x4000802c70:  76 1e                    jbe      0x4000802c90

----------------
IN: 
0x4000802c90:  4c 89 d9                 movq     %r11, %rcx
0x4000802c93:  48 29 c1                 subq     %rax, %rcx
0x4000802c96:  48 83 f9 0b              cmpq     $0xb, %rcx
0x4000802c9a:  0f 87 38 01 00 00        ja       0x4000802dd8

----------------
IN: 
0x4000802dd8:  48 89 d9                 movq     %rbx, %rcx
0x4000802ddb:  48 29 c1                 subq     %rax, %rcx
0x4000802dde:  48 83 f9 0a              cmpq     $0xa, %rcx
0x4000802de2:  0f 87 6b fc ff ff        ja       0x4000802a53

----------------
IN: 
0x4000802de8:  48 f7 d8                 negq     %rax
0x4000802deb:  49 89 14 c1              movq     %rdx, (%r9, %rax, 8)
0x4000802def:  e9 5f fc ff ff           jmp      0x4000802a53

----------------
IN: 
0x4000802a53:  48 83 c2 10              addq     $0x10, %rdx
0x4000802a57:  48 8b 02                 movq     (%rdx), %rax
0x4000802a5a:  48 85 c0                 testq    %rax, %rax
0x4000802a5d:  74 33                    je       0x4000802a92

----------------
IN: 
0x4000802a75:  48 89 f9                 movq     %rdi, %rcx
0x4000802a78:  48 29 c1                 subq     %rax, %rcx
0x4000802a7b:  48 8d 05 96 4f 22 00     leaq     0x224f96(%rip), %rax
0x4000802a82:  48 89 14 c8              movq     %rdx, (%rax, %rcx, 8)
0x4000802a86:  48 83 c2 10              addq     $0x10, %rdx
0x4000802a8a:  48 8b 02                 movq     (%rdx), %rax
0x4000802a8d:  48 85 c0                 testq    %rax, %rax
0x4000802a90:  75 cd                    jne      0x4000802a5f

----------------
IN: 
0x4000802a92:  4d 85 f6                 testq    %r14, %r14
0x4000802a95:  0f 84 80 00 00 00        je       0x4000802b1b

----------------
IN: 
0x4000802a9b:  48 8b 05 96 4f 22 00     movq     0x224f96(%rip), %rax
0x4000802aa2:  48 85 c0                 testq    %rax, %rax
0x4000802aa5:  74 04                    je       0x4000802aab

----------------
IN: 
0x4000802aa7:  4c 01 70 08              addq     %r14, 8(%rax)
0x4000802aab:  48 8b 05 7e 4f 22 00     movq     0x224f7e(%rip), %rax
0x4000802ab2:  48 85 c0                 testq    %rax, %rax
0x4000802ab5:  74 04                    je       0x4000802abb

----------------
IN: 
0x4000802ab7:  4c 01 70 08              addq     %r14, 8(%rax)
0x4000802abb:  48 8b 05 7e 4f 22 00     movq     0x224f7e(%rip), %rax
0x4000802ac2:  48 85 c0                 testq    %rax, %rax
0x4000802ac5:  74 04                    je       0x4000802acb

----------------
IN: 
0x4000802ac7:  4c 01 70 08              addq     %r14, 8(%rax)
0x4000802acb:  48 8b 05 76 4f 22 00     movq     0x224f76(%rip), %rax
0x4000802ad2:  48 85 c0                 testq    %rax, %rax
0x4000802ad5:  74 04                    je       0x4000802adb

----------------
IN: 
0x4000802ad7:  4c 01 70 08              addq     %r14, 8(%rax)
0x4000802adb:  48 8b 05 6e 4f 22 00     movq     0x224f6e(%rip), %rax
0x4000802ae2:  48 85 c0                 testq    %rax, %rax
0x4000802ae5:  74 04                    je       0x4000802aeb

----------------
IN: 
0x4000802ae7:  4c 01 70 08              addq     %r14, 8(%rax)
0x4000802aeb:  48 8b 05 de 4f 22 00     movq     0x224fde(%rip), %rax
0x4000802af2:  48 85 c0                 testq    %rax, %rax
0x4000802af5:  74 04                    je       0x4000802afb

----------------
IN: 
0x4000802af7:  4c 01 70 08              addq     %r14, 8(%rax)
0x4000802afb:  48 8b 05 9e 50 22 00     movq     0x22509e(%rip), %rax
0x4000802b02:  48 85 c0                 testq    %rax, %rax
0x4000802b05:  74 04                    je       0x4000802b0b

----------------
IN: 
0x4000802b07:  4c 01 70 08              addq     %r14, 8(%rax)
0x4000802b0b:  48 8b 05 5e 51 22 00     movq     0x22515e(%rip), %rax
0x4000802b12:  48 85 c0                 testq    %rax, %rax
0x4000802b15:  74 04                    je       0x4000802b1b

----------------
IN: 
0x4000802b17:  4c 01 70 08              addq     %r14, 8(%rax)
0x4000802b1b:  48 8b 15 96 4f 22 00     movq     0x224f96(%rip), %rdx
0x4000802b22:  48 85 d2                 testq    %rdx, %rdx
0x4000802b25:  74 0b                    je       0x4000802b32

----------------
IN: 
0x4000802b27:  48 83 7a 08 07           cmpq     $7, 8(%rdx)
0x4000802b2c:  0f 85 25 04 00 00        jne      0x4000802f57

----------------
IN: 
0x4000802b32:  48 8b 05 17 4f 22 00     movq     0x224f17(%rip), %rax
0x4000802b39:  48 85 c0                 testq    %rax, %rax
0x4000802b3c:  74 12                    je       0x4000802b50

----------------
IN: 
0x4000802b3e:  48 8b 0d 1b 4f 22 00     movq     0x224f1b(%rip), %rcx
0x4000802b45:  48 83 79 08 18           cmpq     $0x18, 8(%rcx)
0x4000802b4a:  0f 85 e8 03 00 00        jne      0x4000802f38

----------------
IN: 
0x4000802b50:  48 8b 0d f1 4f 22 00     movq     0x224ff1(%rip), %rcx
0x4000802b57:  48 85 c9                 testq    %rcx, %rcx
0x4000802b5a:  74 0e                    je       0x4000802b6a

----------------
IN: 
0x4000802b6a:  48 8b 0d 97 4f 22 00     movq     0x224f97(%rip), %rcx
0x4000802b71:  48 85 c9                 testq    %rcx, %rcx
0x4000802b74:  74 0e                    je       0x4000802b84

----------------
IN: 
0x4000802b84:  48 83 3d 74 4f 22 00 00  cmpq     $0, 0x224f74(%rip)
0x4000802b8c:  0f 85 49 03 00 00        jne      0x4000802edb

----------------
IN: 
0x4000802b92:  48 83 3d f6 4e 22 00 00  cmpq     $0, 0x224ef6(%rip)
0x4000802b9a:  0f 85 d6 03 00 00        jne      0x4000802f76

----------------
IN: 
0x4000802ba0:  4d 85 f6                 testq    %r14, %r14
0x4000802ba3:  0f 85 07 01 00 00        jne      0x4000802cb0

----------------
IN: 
0x4000802cb0:  48 85 c0                 testq    %rax, %rax
0x4000802cb3:  0f 84 da 01 00 00        je       0x4000802e93

----------------
IN: 
0x4000802cb9:  48 8b 48 08              movq     8(%rax), %rcx
0x4000802cbd:  48 8b 05 94 4d 22 00     movq     0x224d94(%rip), %rax
0x4000802cc4:  48 8b 78 08              movq     8(%rax), %rdi
0x4000802cc8:  48 8b 05 89 4e 22 00     movq     0x224e89(%rip), %rax
0x4000802ccf:  48 85 c0                 testq    %rax, %rax
0x4000802cd2:  48 8d 34 39              leaq     (%rcx, %rdi), %rsi
0x4000802cd6:  0f 84 d5 01 00 00        je       0x4000802eb1

----------------
IN: 
0x4000802cdc:  48 8b 40 08              movq     8(%rax), %rax
0x4000802ce0:  48 8d 04 40              leaq     (%rax, %rax, 2), %rax
0x4000802ce4:  4c 8d 2c c1              leaq     (%rcx, %rax, 8), %r13
0x4000802ce8:  48 89 c8                 movq     %rcx, %rax
0x4000802ceb:  48 85 d2                 testq    %rdx, %rdx
0x4000802cee:  74 2d                    je       0x4000802d1d

----------------
IN: 
0x4000802cf0:  48 8b 15 31 4d 22 00     movq     0x224d31(%rip), %rdx
0x4000802cf7:  4c 8b 05 d2 4d 22 00     movq     0x224dd2(%rip), %r8
0x4000802cfe:  48 8b 52 08              movq     8(%rdx), %rdx
0x4000802d02:  49 89 d1                 movq     %rdx, %r9
0x4000802d05:  4d 03 48 08              addq     8(%r8), %r9
0x4000802d09:  49 89 f8                 movq     %rdi, %r8
0x4000802d0c:  49 29 d0                 subq     %rdx, %r8
0x4000802d0f:  49 39 f1                 cmpq     %rsi, %r9
0x4000802d12:  48 8d 34 0a              leaq     (%rdx, %rcx), %rsi
0x4000802d16:  49 0f 44 f8              cmoveq   %r8, %rdi
0x4000802d1a:  48 01 fe                 addq     %rdi, %rsi
0x4000802d1d:  48 8b 15 24 4d 22 00     movq     0x224d24(%rip), %rdx
0x4000802d24:  4c 39 e8                 cmpq     %r13, %rax
0x4000802d27:  48 8b 7a 08              movq     8(%rdx), %rdi
0x4000802d2b:  73 26                    jae      0x4000802d53

----------------
IN: 
0x4000802d2d:  0f 1f 00                 nopl     (%rax)
0x4000802d30:  4c 89 f2                 movq     %r14, %rdx
0x4000802d33:  48 03 10                 addq     (%rax), %rdx
0x4000802d36:  83 78 08 08              cmpl     $8, 8(%rax)
0x4000802d3a:  0f 85 7c 01 00 00        jne      0x4000802ebc

----------------
IN: 
0x4000802d40:  4c 89 f1                 movq     %r14, %rcx
0x4000802d43:  48 03 48 10              addq     0x10(%rax), %rcx
0x4000802d47:  48 83 c0 18              addq     $0x18, %rax
0x4000802d4b:  4c 39 e8                 cmpq     %r13, %rax
0x4000802d4e:  48 89 0a                 movq     %rcx, (%rdx)
0x4000802d51:  72 dd                    jb       0x4000802d30

----------------
IN: 
0x4000802d30:  4c 89 f2                 movq     %r14, %rdx
0x4000802d33:  48 03 10                 addq     (%rax), %rdx
0x4000802d36:  83 78 08 08              cmpl     $8, 8(%rax)
0x4000802d3a:  0f 85 7c 01 00 00        jne      0x4000802ebc

----------------
IN: 
0x4000802d53:  48 83 3d 45 4e 22 00 00  cmpq     $0, 0x224e45(%rip)
0x4000802d5b:  0f 84 34 02 00 00        je       0x4000802f95

----------------
IN: 
0x4000802d61:  4c 39 ee                 cmpq     %r13, %rsi
0x4000802d64:  4c 8d 05 35 ca 01 00     leaq     0x1ca35(%rip), %r8
0x4000802d6b:  0f 86 46 fe ff ff        jbe      0x4000802bb7

----------------
IN: 
0x4000802d71:  0f 1f 80 00 00 00 00     nopl     (%rax)
0x4000802d78:  49 8b 45 08              movq     8(%r13), %rax
0x4000802d7c:  4c 89 f1                 movq     %r14, %rcx
0x4000802d7f:  49 03 4d 00              addq     (%r13), %rcx
0x4000802d83:  48 89 c2                 movq     %rax, %rdx
0x4000802d86:  89 c3                    movl     %eax, %ebx
0x4000802d88:  48 c1 ea 20              shrq     $0x20, %rdx
0x4000802d8c:  48 85 db                 testq    %rbx, %rbx
0x4000802d8f:  48 8d 14 52              leaq     (%rdx, %rdx, 2), %rdx
0x4000802d93:  4c 8d 3c d7              leaq     (%rdi, %rdx, 8), %r15
0x4000802d97:  74 71                    je       0x4000802e0a

----------------
IN: 
0x4000802d99:  4d 85 ff                 testq    %r15, %r15
0x4000802d9c:  0f 84 ae 00 00 00        je       0x4000802e50

----------------
IN: 
0x4000802da2:  41 0f b6 57 04           movzbl   4(%r15), %edx
0x4000802da7:  49 8b 47 08              movq     8(%r15), %rax
0x4000802dab:  48 03 05 26 4c 22 00     addq     0x224c26(%rip), %rax
0x4000802db2:  83 e2 0f                 andl     $0xf, %edx
0x4000802db5:  80 fa 0a                 cmpb     $0xa, %dl
0x4000802db8:  0f 84 a2 00 00 00        je       0x4000802e60

----------------
IN: 
0x4000802dbe:  48 83 eb 06              subq     $6, %rbx
0x4000802dc2:  48 83 fb 1e              cmpq     $0x1e, %rbx
0x4000802dc6:  77 42                    ja       0x4000802e0a

----------------
IN: 
0x4000802dc8:  49 63 14 98              movslq   (%r8, %rbx, 4), %rdx
0x4000802dcc:  4c 01 c2                 addq     %r8, %rdx
0x4000802dcf:  ff e2                    jmpq     *%rdx

----------------
IN: 
0x4000802e03:  49 03 45 10              addq     0x10(%r13), %rax
0x4000802e07:  48 89 01                 movq     %rax, (%rcx)
0x4000802e0a:  49 83 c5 18              addq     $0x18, %r13
0x4000802e0e:  4c 39 ee                 cmpq     %r13, %rsi
0x4000802e11:  0f 87 61 ff ff ff        ja       0x4000802d78

----------------
IN: 
0x4000802d78:  49 8b 45 08              movq     8(%r13), %rax
0x4000802d7c:  4c 89 f1                 movq     %r14, %rcx
0x4000802d7f:  49 03 4d 00              addq     (%r13), %rcx
0x4000802d83:  48 89 c2                 movq     %rax, %rdx
0x4000802d86:  89 c3                    movl     %eax, %ebx
0x4000802d88:  48 c1 ea 20              shrq     $0x20, %rdx
0x4000802d8c:  48 85 db                 testq    %rbx, %rbx
0x4000802d8f:  48 8d 14 52              leaq     (%rdx, %rdx, 2), %rdx
0x4000802d93:  4c 8d 3c d7              leaq     (%rdi, %rdx, 8), %r15
0x4000802d97:  74 71                    je       0x4000802e0a

----------------
IN: 
0x4000802e17:  e9 9b fd ff ff           jmp      0x4000802bb7

----------------
IN: 
0x4000802bb7:  48 8d 3d 1a 4e 22 00     leaq     0x224e1a(%rip), %rdi
0x4000802bbe:  80 0d 27 51 22 00 04     orb      $4, 0x225127(%rip)
0x4000802bc5:  e8 86 9e 00 00           callq    0x400080ca50

----------------
IN: 
0x400080ca50:  48 8b 87 98 02 00 00     movq     0x298(%rdi), %rax
0x400080ca57:  48 85 c0                 testq    %rax, %rax
0x400080ca5a:  74 54                    je       0x400080cab0

----------------
IN: 
0x400080ca5c:  48 8b 48 08              movq     8(%rax), %rcx
0x400080ca60:  8b 11                    movl     (%rcx), %edx
0x400080ca62:  89 97 ec 02 00 00        movl     %edx, 0x2ec(%rdi)
0x400080ca68:  8b 41 08                 movl     8(%rcx), %eax
0x400080ca6b:  8b 71 04                 movl     4(%rcx), %esi
0x400080ca6e:  44 8d 40 ff              leal     -1(%rax), %r8d
0x400080ca72:  44 85 c0                 testl    %eax, %r8d
0x400080ca75:  75 66                    jne      0x400080cadd

----------------
IN: 
0x400080ca77:  44 89 87 f0 02 00 00     movl     %r8d, 0x2f0(%rdi)
0x400080ca7e:  4c 8d 41 10              leaq     0x10(%rcx), %r8
0x400080ca82:  01 c0                    addl     %eax, %eax
0x400080ca84:  8b 49 0c                 movl     0xc(%rcx), %ecx
0x400080ca87:  48 29 f2                 subq     %rsi, %rdx
0x400080ca8a:  49 8d 04 80              leaq     (%r8, %rax, 4), %rax
0x400080ca8e:  4c 89 87 f8 02 00 00     movq     %r8, 0x2f8(%rdi)
0x400080ca95:  48 89 87 00 03 00 00     movq     %rax, 0x300(%rdi)
0x400080ca9c:  48 8d 04 90              leaq     (%rax, %rdx, 4), %rax
0x400080caa0:  89 8f f4 02 00 00        movl     %ecx, 0x2f4(%rdi)
0x400080caa6:  48 89 87 08 03 00 00     movq     %rax, 0x308(%rdi)
0x400080caad:  c3                       retq     

----------------
IN: 
0x4000802bca:  48 8d 05 07 4e 22 00     leaq     0x224e07(%rip), %rax
0x4000802bd1:  48 89 05 28 4e 22 00     movq     %rax, 0x224e28(%rip)
0x4000802bd8:  48 8d 05 21 e4 ff ff     leaq     -0x1bdf(%rip), %rax
0x4000802bdf:  48 89 05 32 51 22 00     movq     %rax, 0x225132(%rip)
0x4000802be6:  48 8d 05 7b 55 22 00     leaq     0x22557b(%rip), %rax
0x4000802bed:  48 89 05 2c 51 22 00     movq     %rax, 0x22512c(%rip)
0x4000802bf4:  48 8d 05 95 cb 01 00     leaq     0x1cb95(%rip), %rax
0x4000802bfb:  48 89 05 26 51 22 00     movq     %rax, 0x225126(%rip)
0x4000802c02:  0f 31                    rdtsc    
0x4000802c04:  48 8d 35 d5 05 00 00     leaq     0x5d5(%rip), %rsi
0x4000802c0b:  48 c1 e2 20              shlq     $0x20, %rdx
0x4000802c0f:  89 c0                    movl     %eax, %eax
0x4000802c11:  48 09 d0                 orq      %rdx, %rax
0x4000802c14:  4c 89 e7                 movq     %r12, %rdi
0x4000802c17:  48 89 2d 52 42 22 00     movq     %rbp, 0x224252(%rip)
0x4000802c1e:  48 89 05 83 4d 22 00     movq     %rax, 0x224d83(%rip)
0x4000802c25:  e8 56 79 01 00           callq    0x400081a580

----------------
IN: 
0x400081a580:  41 57                    pushq    %r15
0x400081a582:  41 56                    pushq    %r14
0x400081a584:  41 55                    pushq    %r13
0x400081a586:  41 54                    pushq    %r12
0x400081a588:  49 89 f4                 movq     %rsi, %r12
0x400081a58b:  55                       pushq    %rbp
0x400081a58c:  53                       pushq    %rbx
0x400081a58d:  48 83 ec 48              subq     $0x48, %rsp
0x400081a591:  48 8b 07                 movq     (%rdi), %rax
0x400081a594:  48 89 3d d5 c8 20 00     movq     %rdi, 0x20c8d5(%rip)
0x400081a59b:  48 83 c7 08              addq     $8, %rdi
0x400081a59f:  48 89 3d da c6 20 00     movq     %rdi, 0x20c6da(%rip)
0x400081a5a6:  89 05 dc c6 20 00        movl     %eax, 0x20c6dc(%rip)
0x400081a5ac:  48 98                    cltq     
0x400081a5ae:  48 8d 44 c7 08           leaq     8(%rdi, %rax, 8), %rax
0x400081a5b3:  48 89 05 46 db 20 00     movq     %rax, 0x20db46(%rip)
0x400081a5ba:  48 83 38 00              cmpq     $0, (%rax)
0x400081a5be:  74 0a                    je       0x400081a5ca

----------------
IN: 
0x400081a5c0:  48 83 c0 08              addq     $8, %rax
0x400081a5c4:  48 83 38 00              cmpq     $0, (%rax)
0x400081a5c8:  75 f6                    jne      0x400081a5c0

----------------
IN: 
0x400081a5ca:  48 8d 50 08              leaq     8(%rax), %rdx
0x400081a5ce:  48 8b 40 08              movq     8(%rax), %rax
0x400081a5d2:  48 8d 35 57 76 fe ff     leaq     -0x189a9(%rip), %rsi
0x400081a5d9:  48 c7 05 c4 c6 20 00 00  movq     $0, 0x20c6c4(%rip)
0x400081a5e1:  00 00 00
0x400081a5e4:  48 89 15 1d c7 20 00     movq     %rdx, 0x20c71d(%rip)
0x400081a5eb:  48 89 74 24 38           movq     %rsi, 0x38(%rsp)
0x400081a5f0:  48 85 c0                 testq    %rax, %rax
0x400081a5f3:  0f 84 3f 02 00 00        je       0x400081a838

----------------
IN: 
0x400081a5f9:  48 8b 1d f8 c6 20 00     movq     0x20c6f8(%rip), %rbx
0x400081a600:  4c 8b 3d b1 c6 20 00     movq     0x20c6b1(%rip), %r15
0x400081a607:  48 8d 0d 02 5b 00 00     leaq     0x5b02(%rip), %rcx
0x400081a60e:  44 8b 1d 63 c8 20 00     movl     0x20c863(%rip), %r11d
0x400081a615:  c6 44 24 2f 00           movb     $0, 0x2f(%rsp)
0x400081a61a:  45 31 c0                 xorl     %r8d, %r8d
0x400081a61d:  c6 44 24 2e 00           movb     $0, 0x2e(%rsp)
0x400081a622:  c6 44 24 2d 00           movb     $0, 0x2d(%rsp)
0x400081a627:  45 31 d2                 xorl     %r10d, %r10d
0x400081a62a:  48 89 1c 24              movq     %rbx, (%rsp)
0x400081a62e:  48 8b 1d 7b c7 20 00     movq     0x20c77b(%rip), %rbx
0x400081a635:  45 31 c9                 xorl     %r9d, %r9d
0x400081a638:  c6 44 24 2c 00           movb     $0, 0x2c(%rsp)
0x400081a63d:  c6 44 24 29 00           movb     $0, 0x29(%rsp)
0x400081a642:  45 31 ed                 xorl     %r13d, %r13d
0x400081a645:  45 31 f6                 xorl     %r14d, %r14d
0x400081a648:  31 ff                    xorl     %edi, %edi
0x400081a64a:  31 ed                    xorl     %ebp, %ebp
0x400081a64c:  48 89 5c 24 08           movq     %rbx, 8(%rsp)
0x400081a651:  8b 1d 81 c6 20 00        movl     0x20c681(%rip), %ebx
0x400081a657:  89 5c 24 14              movl     %ebx, 0x14(%rsp)
0x400081a65b:  0f b7 1d 8e c6 20 00     movzwl   0x20c68e(%rip), %ebx
0x400081a662:  66 89 5c 24 2a           movw     %bx, 0x2a(%rsp)
0x400081a667:  48 8b 1d 32 c7 20 00     movq     0x20c732(%rip), %rbx
0x400081a66e:  48 89 5c 24 18           movq     %rbx, 0x18(%rsp)
0x400081a673:  48 8b 1d ee c7 20 00     movq     0x20c7ee(%rip), %rbx
0x400081a67a:  48 89 5c 24 20           movq     %rbx, 0x20(%rsp)
0x400081a67f:  31 db                    xorl     %ebx, %ebx
0x400081a681:  0f 1f 80 00 00 00 00     nopl     (%rax)
0x400081a688:  48 83 e8 03              subq     $3, %rax
0x400081a68c:  48 83 f8 1e              cmpq     $0x1e, %rax
0x400081a690:  77 1e                    ja       0x400081a6b0

----------------
IN: 
0x400081a692:  48 63 04 81              movslq   (%rcx, %rax, 4), %rax
0x400081a696:  48 01 c8                 addq     %rcx, %rax
0x400081a699:  ff e0                    jmpq     *%rax

----------------
IN: 
0x400081a820:  48 8b 5a 08              movq     8(%rdx), %rbx
0x400081a824:  e9 87 fe ff ff           jmp      0x400081a6b0

----------------
IN: 
0x400081a6b0:  48 83 c2 10              addq     $0x10, %rdx
0x400081a6b4:  48 8b 02                 movq     (%rdx), %rax
0x400081a6b7:  48 85 c0                 testq    %rax, %rax
0x400081a6ba:  75 cc                    jne      0x400081a688

----------------
IN: 
0x400081a688:  48 83 e8 03              subq     $3, %rax
0x400081a68c:  48 83 f8 1e              cmpq     $0x1e, %rax
0x400081a690:  77 1e                    ja       0x400081a6b0

----------------
IN: 
0x400081a830:  8b 6a 08                 movl     8(%rdx), %ebp
0x400081a833:  e9 78 fe ff ff           jmp      0x400081a6b0

----------------
IN: 
0x400081a810:  4c 8b 7a 08              movq     8(%rdx), %r15
0x400081a814:  bf 01 00 00 00           movl     $1, %edi
0x400081a819:  e9 92 fe ff ff           jmp      0x400081a6b0

----------------
IN: 
0x400081a800:  48 8b 72 08              movq     8(%rdx), %rsi
0x400081a804:  41 be 01 00 00 00        movl     $1, %r14d
0x400081a80a:  e9 a1 fe ff ff           jmp      0x400081a6b0

----------------
IN: 
0x400081a7d0:  48 8b 42 08              movq     8(%rdx), %rax
0x400081a7d4:  41 b8 01 00 00 00        movl     $1, %r8d
0x400081a7da:  48 89 04 24              movq     %rax, (%rsp)
0x400081a7de:  e9 cd fe ff ff           jmp      0x400081a6b0

----------------
IN: 
0x400081a7b8:  8b 42 08                 movl     8(%rdx), %eax
0x400081a7bb:  c6 44 24 2c 01           movb     $1, 0x2c(%rsp)
0x400081a7c0:  89 44 24 14              movl     %eax, 0x14(%rsp)
0x400081a7c4:  e9 e7 fe ff ff           jmp      0x400081a6b0

----------------
IN: 
0x400081a778:  48 8b 42 08              movq     8(%rdx), %rax
0x400081a77c:  c6 44 24 2f 01           movb     $1, 0x2f(%rsp)
0x400081a781:  48 89 44 24 20           movq     %rax, 0x20(%rsp)
0x400081a786:  e9 25 ff ff ff           jmp      0x400081a6b0

----------------
IN: 
0x400081a790:  44 8b 5a 08              movl     8(%rdx), %r11d
0x400081a794:  41 bd 01 00 00 00        movl     $1, %r13d
0x400081a79a:  e9 11 ff ff ff           jmp      0x400081a6b0

----------------
IN: 
0x400081a7e8:  4c 8b 4a 08              movq     8(%rdx), %r9
0x400081a7ec:  41 ba 01 00 00 00        movl     $1, %r10d
0x400081a7f2:  e9 b9 fe ff ff           jmp      0x400081a6b0

----------------
IN: 
0x400081a6bc:  40 84 ff                 testb    %dil, %dil
0x400081a6bf:  0f 85 1b 02 00 00        jne      0x400081a8e0

----------------
IN: 
0x400081a8e0:  4c 89 3d d1 c3 20 00     movq     %r15, 0x20c3d1(%rip)
0x400081a8e7:  e9 d9 fd ff ff           jmp      0x400081a6c5

----------------
IN: 
0x400081a6c5:  45 84 f6                 testb    %r14b, %r14b
0x400081a6c8:  74 05                    je       0x400081a6cf

----------------
IN: 
0x400081a6ca:  48 89 74 24 38           movq     %rsi, 0x38(%rsp)
0x400081a6cf:  45 84 ed                 testb    %r13b, %r13b
0x400081a6d2:  74 07                    je       0x400081a6db

----------------
IN: 
0x400081a6d4:  44 89 1d 9d c7 20 00     movl     %r11d, 0x20c79d(%rip)
0x400081a6db:  45 84 d2                 testb    %r10b, %r10b
0x400081a6de:  74 07                    je       0x400081a6e7

----------------
IN: 
0x400081a6e0:  4c 89 0d c1 c5 20 00     movq     %r9, 0x20c5c1(%rip)
0x400081a6e7:  45 84 c0                 testb    %r8b, %r8b
0x400081a6ea:  74 0b                    je       0x400081a6f7

----------------
IN: 
0x400081a6ec:  48 8b 04 24              movq     (%rsp), %rax
0x400081a6f0:  48 89 05 01 c6 20 00     movq     %rax, 0x20c601(%rip)
0x400081a6f7:  80 7c 24 29 00           cmpb     $0, 0x29(%rsp)
0x400081a6fc:  74 0c                    je       0x400081a70a

----------------
IN: 
0x400081a70a:  80 7c 24 2c 00           cmpb     $0, 0x2c(%rsp)
0x400081a70f:  74 0a                    je       0x400081a71b

----------------
IN: 
0x400081a711:  8b 44 24 14              movl     0x14(%rsp), %eax
0x400081a715:  89 05 bd c5 20 00        movl     %eax, 0x20c5bd(%rip)
0x400081a71b:  80 7c 24 2d 00           cmpb     $0, 0x2d(%rsp)
0x400081a720:  74 0c                    je       0x400081a72e

----------------
IN: 
0x400081a72e:  80 7c 24 2e 00           cmpb     $0, 0x2e(%rsp)
0x400081a733:  74 0c                    je       0x400081a741

----------------
IN: 
0x400081a741:  80 7c 24 2f 00           cmpb     $0, 0x2f(%rsp)
0x400081a746:  0f 84 f0 00 00 00        je       0x400081a83c

----------------
IN: 
0x400081a74c:  48 8b 44 24 20           movq     0x20(%rsp), %rax
0x400081a751:  48 89 05 10 c7 20 00     movq     %rax, 0x20c710(%rip)
0x400081a758:  e9 df 00 00 00           jmp      0x400081a83c

----------------
IN: 
0x400081a83c:  31 ff                    xorl     %edi, %edi
0x400081a83e:  e8 ad 0b 00 00           callq    0x400081b3f0

----------------
IN: 
0x400081b3f0:  b9 0c 00 00 00           movl     $0xc, %ecx
0x400081b3f5:  89 c8                    movl     %ecx, %eax
0x400081b3f7:  0f 05                    syscall  

----------------
IN: 
0x400081b3f9:  48 3d 00 f0 ff ff        cmpq     $-0x1000, %rax
0x400081b3ff:  48 89 c2                 movq     %rax, %rdx
0x400081b402:  77 14                    ja       0x400081b418

----------------
IN: 
0x400081b404:  48 89 05 cd cc 20 00     movq     %rax, 0x20cccd(%rip)
0x400081b40b:  31 c0                    xorl     %eax, %eax
0x400081b40d:  48 39 d7                 cmpq     %rdx, %rdi
0x400081b410:  77 1e                    ja       0x400081b430

----------------
IN: 
0x400081b412:  f3 c3                    retq     

----------------
IN: 
0x400081a843:  48 8b 05 5e c4 20 00     movq     0x20c45e(%rip), %rax
0x400081a84a:  48 85 c0                 testq    %rax, %rax
0x400081a84d:  74 10                    je       0x400081a85f

----------------
IN: 
0x400081a84f:  80 38 00                 cmpb     $0, (%rax)
0x400081a852:  75 0b                    jne      0x400081a85f

----------------
IN: 
0x400081a85f:  e8 bc f7 ff ff           callq    0x400081a020

----------------
IN: 
0x400081a020:  41 57                    pushq    %r15
0x400081a022:  41 56                    pushq    %r14
0x400081a024:  31 c0                    xorl     %eax, %eax
0x400081a026:  41 55                    pushq    %r13
0x400081a028:  41 54                    pushq    %r12
0x400081a02a:  55                       pushq    %rbp
0x400081a02b:  53                       pushq    %rbx
0x400081a02c:  0f a2                    cpuid    
0x400081a02e:  48 81 ec 90 00 00 00     subq     $0x90, %rsp
0x400081a035:  81 fb 47 65 6e 75        cmpl     $0x756e6547, %ebx
0x400081a03b:  89 05 d3 cc 20 00        movl     %eax, 0x20ccd3(%rip)
0x400081a041:  40 0f 94 c6              sete     %sil
0x400081a045:  81 f9 6e 74 65 6c        cmpl     $0x6c65746e, %ecx
0x400081a04b:  0f 94 c0                 sete     %al
0x400081a04e:  21 f0                    andl     %esi, %eax
0x400081a050:  81 fa 69 6e 65 49        cmpl     $0x49656e69, %edx
0x400081a056:  40 0f 94 c6              sete     %sil
0x400081a05a:  40 20 c6                 andb     %al, %sil
0x400081a05d:  0f 85 7d 02 00 00        jne      0x400081a2e0

----------------
IN: 
0x400081a063:  81 fb 41 75 74 68        cmpl     $0x68747541, %ebx
0x400081a069:  41 0f 94 c2              sete     %r10b
0x400081a06d:  81 f9 63 41 4d 44        cmpl     $0x444d4163, %ecx
0x400081a073:  0f 94 c0                 sete     %al
0x400081a076:  41 21 c2                 andl     %eax, %r10d
0x400081a079:  81 fa 65 6e 74 69        cmpl     $0x69746e65, %edx
0x400081a07f:  0f 94 c0                 sete     %al
0x400081a082:  41 20 c2                 andb     %al, %r10b
0x400081a085:  0f 85 d5 02 00 00        jne      0x400081a360

----------------
IN: 
0x400081a360:  b8 01 00 00 00           movl     $1, %eax
0x400081a365:  0f a2                    cpuid    
0x400081a367:  89 c5                    movl     %eax, %ebp
0x400081a369:  41 89 c3                 movl     %eax, %r11d
0x400081a36c:  89 1d aa c9 20 00        movl     %ebx, 0x20c9aa(%rip)
0x400081a372:  c1 ed 08                 shrl     $8, %ebp
0x400081a375:  41 c1 eb 04              shrl     $4, %r11d
0x400081a379:  89 0d a1 c9 20 00        movl     %ecx, 0x20c9a1(%rip)
0x400081a37f:  83 e5 0f                 andl     $0xf, %ebp
0x400081a382:  41 83 e3 0f              andl     $0xf, %r11d
0x400081a386:  89 15 98 c9 20 00        movl     %edx, 0x20c998(%rip)
0x400081a38c:  83 fd 0f                 cmpl     $0xf, %ebp
0x400081a38f:  89 05 83 c9 20 00        movl     %eax, 0x20c983(%rip)
0x400081a395:  0f 84 85 00 00 00        je       0x400081a420

----------------
IN: 
0x400081a39b:  83 e0 0f                 andl     $0xf, %eax
0x400081a39e:  41 89 c6                 movl     %eax, %r14d
0x400081a3a1:  b8 00 00 00 80           movl     $0x80000000, %eax
0x400081a3a6:  0f a2                    cpuid    
0x400081a3a8:  3d 00 00 00 80           cmpl     $0x80000000, %eax
0x400081a3ad:  0f 87 9b 00 00 00        ja       0x400081a44e

----------------
IN: 
0x400081a44e:  b8 01 00 00 80           movl     $0x80000001, %eax
0x400081a453:  0f a2                    cpuid    
0x400081a455:  89 05 dd c8 20 00        movl     %eax, 0x20c8dd(%rip)
0x400081a45b:  89 1d db c8 20 00        movl     %ebx, 0x20c8db(%rip)
0x400081a461:  89 0d d9 c8 20 00        movl     %ecx, 0x20c8d9(%rip)
0x400081a467:  89 15 d7 c8 20 00        movl     %edx, 0x20c8d7(%rip)
0x400081a46d:  45 31 d2                 xorl     %r10d, %r10d
0x400081a470:  83 fd 15                 cmpl     $0x15, %ebp
0x400081a473:  41 bc 02 00 00 00        movl     $2, %r12d
0x400081a479:  0f 85 1a fc ff ff        jne      0x400081a099

----------------
IN: 
0x400081a099:  8b 05 85 cc 20 00        movl     0x20cc85(%rip), %eax
0x400081a09f:  f6 c4 01                 testb    $1, %ah
0x400081a0a2:  74 0a                    je       0x400081a0ae

----------------
IN: 
0x400081a0a4:  81 0d aa cc 20 00 00 40  orl      $0x4000, 0x20ccaa(%rip)
0x400081a0ac:  00 00
0x400081a0ae:  f6 c4 80                 testb    $0x80, %ah
0x400081a0b1:  74 0a                    je       0x400081a0bd

----------------
IN: 
0x400081a0b3:  81 0d 9b cc 20 00 00 80  orl      $0x8000, 0x20cc9b(%rip)
0x400081a0bb:  00 00
0x400081a0bd:  83 3d 50 cc 20 00 06     cmpl     $6, 0x20cc50(%rip)
0x400081a0c4:  7e 21                    jle      0x400081a0e7

----------------
IN: 
0x400081a0c6:  b8 07 00 00 00           movl     $7, %eax
0x400081a0cb:  31 c9                    xorl     %ecx, %ecx
0x400081a0cd:  0f a2                    cpuid    
0x400081a0cf:  89 05 53 cc 20 00        movl     %eax, 0x20cc53(%rip)
0x400081a0d5:  89 1d 51 cc 20 00        movl     %ebx, 0x20cc51(%rip)
0x400081a0db:  89 0d 4f cc 20 00        movl     %ecx, 0x20cc4f(%rip)
0x400081a0e1:  89 15 4d cc 20 00        movl     %edx, 0x20cc4d(%rip)
0x400081a0e7:  8b 35 33 cc 20 00        movl     0x20cc33(%rip), %esi
0x400081a0ed:  f7 c6 00 00 00 08        testl    $0x8000000, %esi
0x400081a0f3:  74 1c                    je       0x400081a111

----------------
IN: 
0x400081a111:  45 84 d2                 testb    %r10b, %r10b
0x400081a114:  0f 85 6e 01 00 00        jne      0x400081a288

----------------
IN: 
0x400081a11a:  89 2d 28 cc 20 00        movl     %ebp, 0x20cc28(%rip)
0x400081a120:  44 89 25 e9 cb 20 00     movl     %r12d, 0x20cbe9(%rip)
0x400081a127:  44 89 1d 1e cc 20 00     movl     %r11d, 0x20cc1e(%rip)
0x400081a12e:  48 81 c4 90 00 00 00     addq     $0x90, %rsp
0x400081a135:  5b                       popq     %rbx
0x400081a136:  5d                       popq     %rbp
0x400081a137:  41 5c                    popq     %r12
0x400081a139:  41 5d                    popq     %r13
0x400081a13b:  41 5e                    popq     %r14
0x400081a13d:  41 5f                    popq     %r15
0x400081a13f:  c3                       retq     

----------------
IN: 
0x400081a864:  48 8b 3d 3d c4 20 00     movq     0x20c43d(%rip), %rdi
0x400081a86b:  48 85 ff                 testq    %rdi, %rdi
0x400081a86e:  74 0c                    je       0x400081a87c

----------------
IN: 
0x400081a870:  e8 9b 36 00 00           callq    0x400081df10

----------------
IN: 
0x400081df10:  66 0f ef c0              pxor     %xmm0, %xmm0
0x400081df14:  66 0f ef c9              pxor     %xmm1, %xmm1
0x400081df18:  66 0f ef d2              pxor     %xmm2, %xmm2
0x400081df1c:  66 0f ef db              pxor     %xmm3, %xmm3
0x400081df20:  48 89 f8                 movq     %rdi, %rax
0x400081df23:  48 89 f9                 movq     %rdi, %rcx
0x400081df26:  48 81 e1 ff 0f 00 00     andq     $0xfff, %rcx
0x400081df2d:  48 81 f9 cf 0f 00 00     cmpq     $0xfcf, %rcx
0x400081df34:  77 6a                    ja       0x400081dfa0

----------------
IN: 
0x400081df36:  f3 0f 6f 20              movdqu   (%rax), %xmm4
0x400081df3a:  66 0f 74 e0              pcmpeqb  %xmm0, %xmm4
0x400081df3e:  66 0f d7 d4              pmovmskb %xmm4, %edx
0x400081df42:  85 d2                    testl    %edx, %edx
0x400081df44:  74 04                    je       0x400081df4a

----------------
IN: 
0x400081df46:  0f bc c2                 bsfl     %edx, %eax
0x400081df49:  c3                       retq     

----------------
IN: 
0x400081a875:  48 89 05 34 c4 20 00     movq     %rax, 0x20c434(%rip)
0x400081a87c:  31 ff                    xorl     %edi, %edi
0x400081a87e:  e8 bd 0b 00 00           callq    0x400081b440

----------------
IN: 
0x400081b440:  55                       pushq    %rbp
0x400081b441:  53                       pushq    %rbx
0x400081b442:  48 89 fd                 movq     %rdi, %rbp
0x400081b445:  48 83 ec 08              subq     $8, %rsp
0x400081b449:  48 8b 1d 88 cc 20 00     movq     0x20cc88(%rip), %rbx
0x400081b450:  48 85 db                 testq    %rbx, %rbx
0x400081b453:  74 3b                    je       0x400081b490

----------------
IN: 
0x400081b455:  8b 05 5d cc 20 00        movl     0x20cc5d(%rip), %eax
0x400081b45b:  85 c0                    testl    %eax, %eax
0x400081b45d:  75 31                    jne      0x400081b490

----------------
IN: 
0x400081b45f:  48 83 fd 00              cmpq     $0, %rbp
0x400081b463:  74 20                    je       0x400081b485

----------------
IN: 
0x400081b485:  48 83 c4 08              addq     $8, %rsp
0x400081b489:  48 89 d8                 movq     %rbx, %rax
0x400081b48c:  5b                       popq     %rbx
0x400081b48d:  5d                       popq     %rbp
0x400081b48e:  c3                       retq     

----------------
IN: 
0x400081a883:  48 8d 15 de d8 20 00     leaq     0x20d8de(%rip), %rdx
0x400081a88a:  48 39 d0                 cmpq     %rdx, %rax
0x400081a88d:  74 39                    je       0x400081a8c8

----------------
IN: 
0x400081a88f:  8b 05 e3 c5 20 00        movl     0x20c5e3(%rip), %eax
0x400081a895:  85 c0                    testl    %eax, %eax
0x400081a897:  75 28                    jne      0x400081a8c1

----------------
IN: 
0x400081a899:  48 8d 54 24 38           leaq     0x38(%rsp), %rdx
0x400081a89e:  89 ee                    movl     %ebp, %esi
0x400081a8a0:  48 89 df                 movq     %rbx, %rdi
0x400081a8a3:  48 8b 0d 5e c4 20 00     movq     0x20c45e(%rip), %rcx
0x400081a8aa:  41 ff d4                 callq    *%r12

----------------
IN: 
0x40008031e0:  55                       pushq    %rbp
0x40008031e1:  48 8d 05 98 ea ff ff     leaq     -0x1568(%rip), %rax
0x40008031e8:  48 89 e5                 movq     %rsp, %rbp
0x40008031eb:  41 57                    pushq    %r15
0x40008031ed:  41 56                    pushq    %r14
0x40008031ef:  41 55                    pushq    %r13
0x40008031f1:  41 54                    pushq    %r12
0x40008031f3:  49 89 d5                 movq     %rdx, %r13
0x40008031f6:  53                       pushq    %rbx
0x40008031f7:  ba 09 00 00 00           movl     $9, %edx
0x40008031fc:  49 89 fe                 movq     %rdi, %r14
0x40008031ff:  49 89 cc                 movq     %rcx, %r12
0x4000803202:  48 81 ec b8 00 00 00     subq     $0xb8, %rsp
0x4000803209:  48 89 05 c0 47 22 00     movq     %rax, 0x2247c0(%rip)
0x4000803210:  48 8d 05 e9 9e 00 00     leaq     0x9ee9(%rip), %rax
0x4000803217:  89 b5 58 ff ff ff        movl     %esi, -0xa8(%rbp)
0x400080321d:  c7 85 68 ff ff ff 00 00  movl     $0, -0x98(%rbp)
0x4000803225:  00 00
0x4000803227:  48 89 05 7a 4d 22 00     movq     %rax, 0x224d7a(%rip)
0x400080322e:  48 8d 05 5b ea ff ff     leaq     -0x15a5(%rip), %rax
0x4000803235:  48 89 05 0c 4d 22 00     movq     %rax, 0x224d0c(%rip)
0x400080323c:  48 8d 05 5d ea ff ff     leaq     -0x15a3(%rip), %rax
0x4000803243:  48 89 05 06 4d 22 00     movq     %rax, 0x224d06(%rip)
0x400080324a:  48 8d 05 5f 1e 01 00     leaq     0x11e5f(%rip), %rax
0x4000803251:  48 89 05 00 4d 22 00     movq     %rax, 0x224d00(%rip)
0x4000803258:  48 8b 05 a1 4e 22 00     movq     0x224ea1(%rip), %rax
0x400080325f:  48 89 45 a0              movq     %rax, -0x60(%rbp)
0x4000803263:  48 63 05 0e 3c 22 00     movslq   0x223c0e(%rip), %rax
0x400080326a:  85 c0                    testl    %eax, %eax
0x400080326c:  48 0f 45 c2              cmovneq  %rdx, %rax
0x4000803270:  48 8d 15 a5 c5 01 00     leaq     0x1c5a5(%rip), %rdx
0x4000803277:  31 db                    xorl     %ebx, %ebx
0x4000803279:  48 01 d0                 addq     %rdx, %rax
0x400080327c:  48 89 05 fd 3a 22 00     movq     %rax, 0x223afd(%rip)
0x4000803283:  48 8d 45 a0              leaq     -0x60(%rbp), %rax
0x4000803287:  48 89 85 60 ff ff ff     movq     %rax, -0xa0(%rbp)
0x400080328e:  48 8d 45 b0              leaq     -0x50(%rbp), %rax
0x4000803292:  48 89 85 50 ff ff ff     movq     %rax, -0xb0(%rbp)
0x4000803299:  48 8d 45 90              leaq     -0x70(%rbp), %rax
0x400080329d:  48 89 85 48 ff ff ff     movq     %rax, -0xb8(%rbp)
0x40008032a4:  48 8b bd 60 ff ff ff     movq     -0xa0(%rbp), %rdi
0x40008032ab:  e8 d0 79 01 00           callq    0x400081ac80

----------------
IN: 
0x400081ac80:  48 8b 17                 movq     (%rdi), %rdx
0x400081ac83:  48 8b 02                 movq     (%rdx), %rax
0x400081ac86:  48 85 c0                 testq    %rax, %rax
0x400081ac89:  75 11                    jne      0x400081ac9c

----------------
IN: 
0x400081ac9c:  80 38 4c                 cmpb     $0x4c, (%rax)
0x400081ac9f:  75 ef                    jne      0x400081ac90

----------------
IN: 
0x400081ac90:  48 83 c2 08              addq     $8, %rdx
0x400081ac94:  48 8b 02                 movq     (%rdx), %rax
0x400081ac97:  48 85 c0                 testq    %rax, %rax
0x400081ac9a:  74 24                    je       0x400081acc0

----------------
IN: 
0x400081aca1:  80 78 01 44              cmpb     $0x44, 1(%rax)
0x400081aca5:  75 e9                    jne      0x400081ac90

----------------
IN: 
0x400081acc0:  f3 c3                    retq     

----------------
IN: 
0x40008032b0:  48 85 c0                 testq    %rax, %rax
0x40008032b3:  49 89 c7                 movq     %rax, %r15
0x40008032b6:  74 49                    je       0x4000803301

----------------
IN: 
0x4000803301:  8b 05 71 3b 22 00        movl     0x223b71(%rip), %eax
0x4000803307:  85 c0                    testl    %eax, %eax
0x4000803309:  0f 85 01 13 00 00        jne      0x4000804610

----------------
IN: 
0x400080330f:  8b 05 ab 38 22 00        movl     0x2238ab(%rip), %eax
0x4000803315:  85 c0                    testl    %eax, %eax
0x4000803317:  0f 84 c6 00 00 00        je       0x40008033e3

----------------
IN: 
0x40008033e3:  48 8d 05 46 e8 ff ff     leaq     -0x17ba(%rip), %rax
0x40008033ea:  49 39 45 00              cmpq     %rax, (%r13)
0x40008033ee:  0f 85 4b 02 00 00        jne      0x400080363f

----------------
IN: 
0x400080363f:  48 8d 35 09 d2 01 00     leaq     0x1d209(%rip), %rsi
0x4000803646:  45 31 c9                 xorl     %r9d, %r9d
0x4000803649:  31 c9                    xorl     %ecx, %ecx
0x400080364b:  31 d2                    xorl     %edx, %edx
0x400080364d:  41 b8 00 00 00 20        movl     $0x20000000, %r8d
0x4000803653:  48 89 f7                 movq     %rsi, %rdi
0x4000803656:  e8 35 95 00 00           callq    0x400080cb90

----------------
IN: 
0x400080cb90:  41 57                    pushq    %r15
0x400080cb92:  41 56                    pushq    %r14
0x400080cb94:  41 55                    pushq    %r13
0x400080cb96:  41 54                    pushq    %r12
0x400080cb98:  49 89 cd                 movq     %rcx, %r13
0x400080cb9b:  55                       pushq    %rbp
0x400080cb9c:  53                       pushq    %rbx
0x400080cb9d:  4d 89 cc                 movq     %r9, %r12
0x400080cba0:  48 83 ec 28              subq     $0x28, %rsp
0x400080cba4:  48 89 3c 24              movq     %rdi, (%rsp)
0x400080cba8:  48 89 f7                 movq     %rsi, %rdi
0x400080cbab:  89 54 24 14              movl     %edx, 0x14(%rsp)
0x400080cbaf:  48 89 74 24 08           movq     %rsi, 8(%rsp)
0x400080cbb4:  44 89 44 24 10           movl     %r8d, 0x10(%rsp)
0x400080cbb9:  e8 52 13 01 00           callq    0x400081df10

----------------
IN: 
0x400080cbbe:  44 8b 3d 4b a2 21 00     movl     0x21a24b(%rip), %r15d
0x400080cbc5:  48 89 c3                 movq     %rax, %rbx
0x400080cbc8:  48 8d 50 01              leaq     1(%rax), %rdx
0x400080cbcc:  45 85 ff                 testl    %r15d, %r15d
0x400080cbcf:  0f 84 1b 02 00 00        je       0x400080cdf0

----------------
IN: 
0x400080cdf0:  8b 44 24 10              movl     0x10(%rsp), %eax
0x400080cdf4:  25 00 00 00 20           andl     $0x20000000, %eax
0x400080cdf9:  83 f8 01                 cmpl     $1, %eax
0x400080cdfc:  48 19 ed                 sbbq     %rbp, %rbp
0x400080cdff:  48 f7 d5                 notq     %rbp
0x400080ce02:  81 e5 00 01 00 00        andl     $0x100, %ebp
0x400080ce08:  85 c0                    testl    %eax, %eax
0x400080ce0a:  b8 10 00 00 00           movl     $0x10, %eax
0x400080ce0f:  44 0f 45 f8              cmovnel  %eax, %r15d
0x400080ce13:  e9 c7 fd ff ff           jmp      0x400080cbdf

----------------
IN: 
0x400080cbdf:  48 8d bc 1d 91 04 00 00  leaq     0x491(%rbp, %rbx), %rdi
0x400080cbe7:  be 01 00 00 00           movl     $1, %esi
0x400080cbec:  48 89 54 24 18           movq     %rdx, 0x18(%rsp)
0x400080cbf1:  e8 9a 4e ff ff           callq    0x4000801a90

----------------
IN: 
0x4000801a90:  ff 25 92 55 22 00        jmpq     *0x225592(%rip)

----------------
IN: 
0x400081ae50:  48 89 f9                 movq     %rdi, %rcx
0x400081ae53:  b8 ff ff ff ff           movl     $0xffffffff, %eax
0x400081ae58:  48 89 ca                 movq     %rcx, %rdx
0x400081ae5b:  48 09 f2                 orq      %rsi, %rdx
0x400081ae5e:  48 0f af fe              imulq    %rsi, %rdi
0x400081ae62:  48 39 c2                 cmpq     %rax, %rdx
0x400081ae65:  76 12                    jbe      0x400081ae79

----------------
IN: 
0x400081ae79:  e9 02 6c fe ff           jmp      0x4000801a80

----------------
IN: 
0x4000801a80:  ff 25 9a 55 22 00        jmpq     *0x22559a(%rip)

----------------
IN: 
0x400081ae40:  48 89 fe                 movq     %rdi, %rsi
0x400081ae43:  bf 08 00 00 00           movl     $8, %edi
0x400081ae48:  e9 23 6c fe ff           jmp      0x4000801a70

----------------
IN: 
0x4000801a70:  ff 25 a2 55 22 00        jmpq     *0x2255a2(%rip)

----------------
IN: 
0x400081ad40:  55                       pushq    %rbp
0x400081ad41:  53                       pushq    %rbx
0x400081ad42:  48 83 ec 08              subq     $8, %rsp
0x400081ad46:  48 8b 15 7b d3 20 00     movq     0x20d37b(%rip), %rdx
0x400081ad4d:  48 85 d2                 testq    %rdx, %rdx
0x400081ad50:  0f 84 aa 00 00 00        je       0x400081ae00

----------------
IN: 
0x400081ae00:  48 8b 05 b1 be 20 00     movq     0x20beb1(%rip), %rax
0x400081ae07:  48 8d 0d 5a d3 20 00     leaq     0x20d35a(%rip), %rcx
0x400081ae0e:  48 8d 54 08 ff           leaq     -1(%rax, %rcx), %rdx
0x400081ae13:  48 f7 d8                 negq     %rax
0x400081ae16:  48 21 c2                 andq     %rax, %rdx
0x400081ae19:  48 89 15 a8 d2 20 00     movq     %rdx, 0x20d2a8(%rip)
0x400081ae20:  e9 38 ff ff ff           jmp      0x400081ad5d

----------------
IN: 
0x400081ad5d:  48 8d 44 39 ff           leaq     -1(%rcx, %rdi), %rax
0x400081ad62:  48 f7 df                 negq     %rdi
0x400081ad65:  48 21 c7                 andq     %rax, %rdi
0x400081ad68:  48 8d 2c 37              leaq     (%rdi, %rsi), %rbp
0x400081ad6c:  48 89 3d 5d d3 20 00     movq     %rdi, 0x20d35d(%rip)
0x400081ad73:  48 39 d5                 cmpq     %rdx, %rbp
0x400081ad76:  73 0b                    jae      0x400081ad83

----------------
IN: 
0x400081ad78:  48 89 f8                 movq     %rdi, %rax
0x400081ad7b:  48 f7 d8                 negq     %rax
0x400081ad7e:  48 39 c6                 cmpq     %rax, %rsi
0x400081ad81:  72 60                    jb       0x400081ade3

----------------
IN: 
0x400081ade3:  48 89 3d d6 d2 20 00     movq     %rdi, 0x20d2d6(%rip)
0x400081adea:  48 89 2d df d2 20 00     movq     %rbp, 0x20d2df(%rip)
0x400081adf1:  48 83 c4 08              addq     $8, %rsp
0x400081adf5:  48 89 f8                 movq     %rdi, %rax
0x400081adf8:  5b                       popq     %rbx
0x400081adf9:  5d                       popq     %rbp
0x400081adfa:  c3                       retq     

----------------
IN: 
0x400080cbf6:  48 85 c0                 testq    %rax, %rax
0x400080cbf9:  49 89 c6                 movq     %rax, %r14
0x400080cbfc:  0f 84 ff 02 00 00        je       0x400080cf01

----------------
IN: 
0x400080cc02:  48 8d ac 28 70 04 00 00  leaq     0x470(%rax, %rbp), %rbp
0x400080cc0a:  48 8b 54 24 18           movq     0x18(%rsp), %rdx
0x400080cc0f:  48 8b 74 24 08           movq     8(%rsp), %rsi
0x400080cc14:  49 89 46 28              movq     %rax, 0x28(%r14)
0x400080cc18:  48 8d 7d 20              leaq     0x20(%rbp), %rdi
0x400080cc1c:  48 89 a8 c8 02 00 00     movq     %rbp, 0x2c8(%rax)
0x400080cc23:  48 8d 45 08              leaq     8(%rbp), %rax
0x400080cc27:  49 89 46 38              movq     %rax, 0x38(%r14)
0x400080cc2b:  e8 70 22 01 00           callq    0x400081eea0

----------------
IN: 
0x400081eea0:  48 83 fa 20              cmpq     $0x20, %rdx
0x400081eea4:  48 89 f8                 movq     %rdi, %rax
0x400081eea7:  73 77                    jae      0x400081ef20

----------------
IN: 
0x400081eea9:  f6 c2 01                 testb    $1, %dl
0x400081eeac:  74 0b                    je       0x400081eeb9

----------------
IN: 
0x400081eeae:  0f b6 0e                 movzbl   (%rsi), %ecx
0x400081eeb1:  88 0f                    movb     %cl, (%rdi)
0x400081eeb3:  48 ff c6                 incq     %rsi
0x400081eeb6:  48 ff c7                 incq     %rdi
0x400081eeb9:  f6 c2 02                 testb    $2, %dl
0x400081eebc:  74 12                    je       0x400081eed0

----------------
IN: 
0x400081eed0:  f6 c2 04                 testb    $4, %dl
0x400081eed3:  74 0c                    je       0x400081eee1

----------------
IN: 
0x400081eee1:  f6 c2 08                 testb    $8, %dl
0x400081eee4:  74 0e                    je       0x400081eef4

----------------
IN: 
0x400081eef4:  81 e2 f0 00 00 00        andl     $0xf0, %edx
0x400081eefa:  74 1f                    je       0x400081ef1b

----------------
IN: 
0x400081ef1b:  f3 c3                    retq     

----------------
IN: 
0x400080cc30:  48 8b 0c 24              movq     (%rsp), %rcx
0x400080cc34:  48 89 45 08              movq     %rax, 8(%rbp)
0x400080cc38:  48 01 c3                 addq     %rax, %rbx
0x400080cc3b:  c7 45 18 01 00 00 00     movl     $1, 0x18(%rbp)
0x400080cc42:  0f b6 6c 24 14           movzbl   0x14(%rsp), %ebp
0x400080cc47:  41 0f b6 86 14 03 00 00  movzbl   0x314(%r14), %eax
0x400080cc4f:  0f b6 11                 movzbl   (%rcx), %edx
0x400080cc52:  84 d2                    testb    %dl, %dl
0x400080cc54:  48 0f 45 d9              cmovneq  %rcx, %rbx
0x400080cc58:  83 e5 03                 andl     $3, %ebp
0x400080cc5b:  83 e0 fc                 andl     $0xfffffffffffffffc, %eax
0x400080cc5e:  09 c5                    orl      %eax, %ebp
0x400080cc60:  f6 05 3a a0 21 00 01     testb    $1, 0x21a03a(%rip)
0x400080cc67:  49 89 5e 08              movq     %rbx, 8(%r14)
0x400080cc6b:  41 88 ae 14 03 00 00     movb     %bpl, 0x314(%r14)
0x400080cc72:  0f 84 a8 01 00 00        je       0x400080ce20

----------------
IN: 
0x400080ce20:  41 c7 86 cc 03 00 00 01  movl     $1, 0x3cc(%r14)
0x400080ce28:  00 00 00
0x400080ce2b:  e9 48 fe ff ff           jmp      0x400080cc78

----------------
IN: 
0x400080cc78:  45 85 ff                 testl    %r15d, %r15d
0x400080cc7b:  4d 89 ae d8 02 00 00     movq     %r13, 0x2d8(%r14)
0x400080cc82:  4d 89 66 30              movq     %r12, 0x30(%r14)
0x400080cc86:  74 24                    je       0x400080ccac

----------------
IN: 
0x400080cc88:  41 8d 77 ff              leal     -1(%r15), %esi
0x400080cc8c:  49 8d 86 70 04 00 00     leaq     0x470(%r14), %rax
0x400080cc93:  48 83 c6 48              addq     $0x48, %rsi
0x400080cc97:  48 c1 e6 04              shlq     $4, %rsi
0x400080cc9b:  4c 01 f6                 addq     %r14, %rsi
0x400080cc9e:  66 90                    nop      
0x400080cca0:  4c 89 30                 movq     %r14, (%rax)
0x400080cca3:  48 83 c0 10              addq     $0x10, %rax
0x400080cca7:  48 39 f0                 cmpq     %rsi, %rax
0x400080ccaa:  75 f4                    jne      0x400080cca0

----------------
IN: 
0x400080cca0:  4c 89 30                 movq     %r14, (%rax)
0x400080cca3:  48 83 c0 10              addq     $0x10, %rax
0x400080cca7:  48 39 f0                 cmpq     %rsi, %rax
0x400080ccaa:  75 f4                    jne      0x400080cca0

----------------
IN: 
0x400080ccac:  49 8d 86 58 03 00 00     leaq     0x358(%r14), %rax
0x400080ccb3:  48 8d 35 86 a3 21 00     leaq     0x21a386(%rip), %rsi
0x400080ccba:  49 c7 86 78 03 00 00 04  movq     $4, 0x378(%r14)
0x400080ccc2:  00 00 00
0x400080ccc5:  49 89 86 80 03 00 00     movq     %rax, 0x380(%r14)
0x400080cccc:  4b 8d 04 e4              leaq     (%r12, %r12, 8), %rax
0x400080ccd0:  48 c1 e0 04              shlq     $4, %rax
0x400080ccd4:  48 8b 04 06              movq     (%rsi, %rax), %rax
0x400080ccd8:  48 85 c0                 testq    %rax, %rax
0x400080ccdb:  0f 84 ff 01 00 00        je       0x400080cee0

----------------
IN: 
0x400080cee0:  4d 85 ed                 testq    %r13, %r13
0x400080cee3:  74 2f                    je       0x400080cf14

----------------
IN: 
0x400080cf14:  49 8d b6 b8 02 00 00     leaq     0x2b8(%r14), %rsi
0x400080cf1b:  48 89 f1                 movq     %rsi, %rcx
0x400080cf1e:  e9 02 fe ff ff           jmp      0x400080cd25

----------------
IN: 
0x400080cd25:  31 c0                    xorl     %eax, %eax
0x400080cd27:  f6 44 24 10 08           testb    $8, 0x10(%rsp)
0x400080cd2c:  75 06                    jne      0x400080cd34

----------------
IN: 
0x400080cd2e:  48 98                    cltq     
0x400080cd30:  48 c1 e0 03              shlq     $3, %rax
0x400080cd34:  49 89 8c 06 58 03 00 00  movq     %rcx, 0x358(%r14, %rax)
0x400080cd3c:  84 d2                    testb    %dl, %dl
0x400080cd3e:  49 89 b6 88 03 00 00     movq     %rsi, 0x388(%r14)
0x400080cd45:  4c 89 f0                 movq     %r14, %rax
0x400080cd48:  88 54 24 10              movb     %dl, 0x10(%rsp)
0x400080cd4c:  0f 84 88 00 00 00        je       0x400080cdda

----------------
IN: 
0x400080cdda:  48 83 c4 28              addq     $0x28, %rsp
0x400080cdde:  5b                       popq     %rbx
0x400080cddf:  5d                       popq     %rbp
0x400080cde0:  41 5c                    popq     %r12
0x400080cde2:  41 5d                    popq     %r13
0x400080cde4:  41 5e                    popq     %r14
0x400080cde6:  41 5f                    popq     %r15
0x400080cde8:  c3                       retq     

----------------
IN: 
0x400080365b:  48 85 c0                 testq    %rax, %rax
0x400080365e:  49 89 c4                 movq     %rax, %r12
0x4000803661:  0f 84 38 2b 00 00        je       0x400080619f

----------------
IN: 
0x4000803667:  4c 89 b0 a0 02 00 00     movq     %r14, 0x2a0(%rax)
0x400080366e:  0f b7 85 58 ff ff ff     movzwl   -0xa8(%rbp), %eax
0x4000803675:  31 f6                    xorl     %esi, %esi
0x4000803677:  4c 89 e7                 movq     %r12, %rdi
0x400080367a:  66 41 89 84 24 b0 02 00  movw     %ax, 0x2b0(%r12)
0x4000803682:  00
0x4000803683:  49 8b 45 00              movq     (%r13), %rax
0x4000803687:  49 89 84 24 a8 02 00 00  movq     %rax, 0x2a8(%r12)
0x400080368f:  e8 6c 94 00 00           callq    0x400080cb00

----------------
IN: 
0x400080cb00:  41 54                    pushq    %r12
0x400080cb02:  55                       pushq    %rbp
0x400080cb03:  49 89 fc                 movq     %rdi, %r12
0x400080cb06:  53                       pushq    %rbx
0x400080cb07:  48 89 f3                 movq     %rsi, %rbx
0x400080cb0a:  48 8d 3d 5f ae 21 00     leaq     0x21ae5f(%rip), %rdi
0x400080cb11:  ff 15 31 b4 21 00        callq    *0x21b431(%rip)

----------------
IN: 
0x4000801c90:  83 47 04 01              addl     $1, 4(%rdi)
0x4000801c94:  c3                       retq     

----------------
IN: 
0x400080cb17:  48 8d 04 db              leaq     (%rbx, %rbx, 8), %rax
0x400080cb1b:  48 8d 2d 1e a5 21 00     leaq     0x21a51e(%rip), %rbp
0x400080cb22:  48 c1 e0 04              shlq     $4, %rax
0x400080cb26:  48 01 e8                 addq     %rbp, %rax
0x400080cb29:  48 8b 10                 movq     (%rax), %rdx
0x400080cb2c:  48 85 d2                 testq    %rdx, %rdx
0x400080cb2f:  75 0a                    jne      0x400080cb3b

----------------
IN: 
0x400080cb31:  eb 55                    jmp      0x400080cb88

----------------
IN: 
0x400080cb88:  4c 89 20                 movq     %r12, (%rax)
0x400080cb8b:  eb c0                    jmp      0x400080cb4d

----------------
IN: 
0x400080cb4d:  48 8d 04 db              leaq     (%rbx, %rbx, 8), %rax
0x400080cb51:  48 8d 3d 18 ae 21 00     leaq     0x21ae18(%rip), %rdi
0x400080cb58:  48 c1 e0 04              shlq     $4, %rax
0x400080cb5c:  83 44 05 08 01           addl     $1, 8(%rbp, %rax)
0x400080cb61:  48 8b 05 30 ae 21 00     movq     0x21ae30(%rip), %rax
0x400080cb68:  5b                       popq     %rbx
0x400080cb69:  5d                       popq     %rbp
0x400080cb6a:  49 89 84 24 68 04 00 00  movq     %rax, 0x468(%r12)
0x400080cb72:  48 83 c0 01              addq     $1, %rax
0x400080cb76:  41 5c                    popq     %r12
0x400080cb78:  48 89 05 19 ae 21 00     movq     %rax, 0x21ae19(%rip)
0x400080cb7f:  ff 25 cb b3 21 00        jmpq     *0x21b3cb(%rip)

----------------
IN: 
0x4000801ca0:  83 6f 04 01              subl     $1, 4(%rdi)
0x4000801ca4:  c3                       retq     

----------------
IN: 
0x4000803694:  48 8b 1d a5 39 22 00     movq     0x2239a5(%rip), %rbx
0x400080369b:  49 39 dc                 cmpq     %rbx, %r12
0x400080369e:  0f 85 dc 2a 00 00        jne      0x4000806180

----------------
IN: 
0x40008036a4:  45 31 ed                 xorl     %r13d, %r13d
0x40008036a7:  8b 85 58 ff ff ff        movl     -0xa8(%rbp), %eax
0x40008036ad:  83 83 10 03 00 00 01     addl     $1, 0x310(%rbx)
0x40008036b4:  48 c7 83 48 03 00 00 00  movq     $0, 0x348(%rbx)
0x40008036bc:  00 00 00
0x40008036bf:  48 c7 83 50 03 00 00 00  movq     $0, 0x350(%rbx)
0x40008036c7:  00 00 00
0x40008036ca:  48 c7 83 40 03 00 00 ff  movq     $-1, 0x340(%rbx)
0x40008036d2:  ff ff ff
0x40008036d5:  48 8d 14 c5 00 00 00 00  leaq     (, %rax, 8), %rdx
0x40008036dd:  48 c1 e0 06              shlq     $6, %rax
0x40008036e1:  48 89 c6                 movq     %rax, %rsi
0x40008036e4:  48 29 d6                 subq     %rdx, %rsi
0x40008036e7:  4c 01 f6                 addq     %r14, %rsi
0x40008036ea:  49 39 f6                 cmpq     %rsi, %r14
0x40008036ed:  0f 83 4f 2a 00 00        jae      0x4000806142

----------------
IN: 
0x40008036f3:  48 8b 3d be 35 22 00     movq     0x2235be(%rip), %rdi
0x40008036fa:  4c 89 f0                 movq     %r14, %rax
0x40008036fd:  45 31 e4                 xorl     %r12d, %r12d
0x4000803700:  48 f7 df                 negq     %rdi
0x4000803703:  eb 28                    jmp      0x400080372d

----------------
IN: 
0x400080372d:  8b 10                    movl     (%rax), %edx
0x400080372f:  83 fa 06                 cmpl     $6, %edx
0x4000803732:  0f 84 a0 08 00 00        je       0x4000803fd8

----------------
IN: 
0x4000803fd8:  4c 89 f2                 movq     %r14, %rdx
0x4000803fdb:  48 2b 50 10              subq     0x10(%rax), %rdx
0x4000803fdf:  48 89 13                 movq     %rdx, (%rbx)
0x4000803fe2:  e9 39 f7 ff ff           jmp      0x4000803720

----------------
IN: 
0x4000803720:  48 83 c0 38              addq     $0x38, %rax
0x4000803724:  48 39 f0                 cmpq     %rsi, %rax
0x4000803727:  0f 83 91 00 00 00        jae      0x40008037be

----------------
IN: 
0x4000803738:  76 cb                    jbe      0x4000803705

----------------
IN: 
0x4000803705:  83 fa 02                 cmpl     $2, %edx
0x4000803708:  0f 84 fa 09 00 00        je       0x4000804108

----------------
IN: 
0x400080370e:  83 fa 03                 cmpl     $3, %edx
0x4000803711:  0f 84 73 09 00 00        je       0x400080408a

----------------
IN: 
0x400080408a:  48 8d 0d 8f 3f 22 00     leaq     0x223f8f(%rip), %rcx
0x4000804091:  48 8b 13                 movq     (%rbx), %rdx
0x4000804094:  48 03 50 10              addq     0x10(%rax), %rdx
0x4000804098:  41 bc 01 00 00 00        movl     $1, %r12d
0x400080409e:  48 89 0d 6b 39 22 00     movq     %rcx, 0x22396b(%rip)
0x40008040a5:  31 c9                    xorl     %ecx, %ecx
0x40008040a7:  48 83 3d 39 39 22 00 00  cmpq     $0, 0x223939(%rip)
0x40008040af:  48 89 15 6a 3f 22 00     movq     %rdx, 0x223f6a(%rip)
0x40008040b6:  0f 85 64 f6 ff ff        jne      0x4000803720

----------------
IN: 
0x4000803717:  83 fa 01                 cmpl     $1, %edx
0x400080371a:  0f 84 10 09 00 00        je       0x4000804030

----------------
IN: 
0x4000804030:  48 8b 48 10              movq     0x10(%rax), %rcx
0x4000804034:  48 8b 13                 movq     (%rbx), %rdx
0x4000804037:  49 89 c8                 movq     %rcx, %r8
0x400080403a:  49 21 f8                 andq     %rdi, %r8
0x400080403d:  49 01 d0                 addq     %rdx, %r8
0x4000804040:  4c 3b 83 40 03 00 00     cmpq     0x340(%rbx), %r8
0x4000804047:  73 07                    jae      0x4000804050

----------------
IN: 
0x4000804049:  4c 89 83 40 03 00 00     movq     %r8, 0x340(%rbx)
0x4000804050:  48 03 48 28              addq     0x28(%rax), %rcx
0x4000804054:  48 01 ca                 addq     %rcx, %rdx
0x4000804057:  48 3b 93 48 03 00 00     cmpq     0x348(%rbx), %rdx
0x400080405e:  76 07                    jbe      0x4000804067

----------------
IN: 
0x4000804060:  48 89 93 48 03 00 00     movq     %rdx, 0x348(%rbx)
0x4000804067:  f6 40 04 01              testb    $1, 4(%rax)
0x400080406b:  0f 84 af f6 ff ff        je       0x4000803720

----------------
IN: 
0x4000804071:  48 3b 93 50 03 00 00     cmpq     0x350(%rbx), %rdx
0x4000804078:  0f 86 a2 f6 ff ff        jbe      0x4000803720

----------------
IN: 
0x400080407e:  48 89 93 50 03 00 00     movq     %rdx, 0x350(%rbx)
0x4000804085:  e9 96 f6 ff ff           jmp      0x4000803720

----------------
IN: 
0x4000804050:  48 03 48 28              addq     0x28(%rax), %rcx
0x4000804054:  48 01 ca                 addq     %rcx, %rdx
0x4000804057:  48 3b 93 48 03 00 00     cmpq     0x348(%rbx), %rdx
0x400080405e:  76 07                    jbe      0x4000804067

----------------
IN: 
0x4000804108:  48 8b 13                 movq     (%rbx), %rdx
0x400080410b:  48 03 50 10              addq     0x10(%rax), %rdx
0x400080410f:  48 89 53 10              movq     %rdx, 0x10(%rbx)
0x4000804113:  e9 08 f6 ff ff           jmp      0x4000803720

----------------
IN: 
0x400080373a:  81 fa 51 e5 74 64        cmpl     $0x6474e551, %edx
0x4000803740:  0f 84 84 08 00 00        je       0x4000803fca

----------------
IN: 
0x4000803746:  81 fa 52 e5 74 64        cmpl     $0x6474e552, %edx
0x400080374c:  0f 84 5d 08 00 00        je       0x4000803faf

----------------
IN: 
0x4000803752:  83 fa 07                 cmpl     $7, %edx
0x4000803755:  75 c9                    jne      0x4000803720

----------------
IN: 
0x4000803fca:  8b 50 04                 movl     4(%rax), %edx
0x4000803fcd:  89 15 8d 3f 22 00        movl     %edx, 0x223f8d(%rip)
0x4000803fd3:  e9 48 f7 ff ff           jmp      0x4000803720

----------------
IN: 
0x4000803faf:  48 8b 50 10              movq     0x10(%rax), %rdx
0x4000803fb3:  48 89 93 58 04 00 00     movq     %rdx, 0x458(%rbx)
0x4000803fba:  48 8b 50 28              movq     0x28(%rax), %rdx
0x4000803fbe:  48 89 93 60 04 00 00     movq     %rdx, 0x460(%rbx)
0x4000803fc5:  e9 56 f7 ff ff           jmp      0x4000803720

----------------
IN: 
0x40008037be:  48 8b 83 18 04 00 00     movq     0x418(%rbx), %rax
0x40008037c5:  48 8b 8b 48 03 00 00     movq     0x348(%rbx), %rcx
0x40008037cc:  48 8b 93 50 03 00 00     movq     0x350(%rbx), %rdx
0x40008037d3:  48 85 c0                 testq    %rax, %rax
0x40008037d6:  74 0a                    je       0x40008037e2

----------------
IN: 
0x40008037e2:  48 85 c9                 testq    %rcx, %rcx
0x40008037e5:  75 0b                    jne      0x40008037f2

----------------
IN: 
0x40008037f2:  48 85 d2                 testq    %rdx, %rdx
0x40008037f5:  75 0b                    jne      0x4000803802

----------------
IN: 
0x4000803802:  4c 8b 35 07 42 22 00     movq     0x224207(%rip), %r14
0x4000803809:  4d 85 f6                 testq    %r14, %r14
0x400080380c:  0f 84 07 29 00 00        je       0x4000806119

----------------
IN: 
0x4000803812:  48 8b 05 6f 42 22 00     movq     0x22426f(%rip), %rax
0x4000803819:  48 85 c0                 testq    %rax, %rax
0x400080381c:  74 50                    je       0x400080386e

----------------
IN: 
0x400080381e:  4c 8b 78 08              movq     8(%rax), %r15
0x4000803822:  48 8b 05 17 42 22 00     movq     0x224217(%rip), %rax
0x4000803829:  49 8b 3e                 movq     (%r14), %rdi
0x400080382c:  4c 03 78 08              addq     8(%rax), %r15
0x4000803830:  4c 89 fe                 movq     %r15, %rsi
0x4000803833:  e8 48 92 01 00           callq    0x400081ca80

----------------
IN: 
0x400081ca80:  89 f1                    movl     %esi, %ecx
0x400081ca82:  89 f8                    movl     %edi, %eax
0x400081ca84:  48 83 e1 3f              andq     $0x3f, %rcx
0x400081ca88:  48 83 e0 3f              andq     $0x3f, %rax
0x400081ca8c:  83 f9 30                 cmpl     $0x30, %ecx
0x400081ca8f:  77 3f                    ja       0x400081cad0

----------------
IN: 
0x400081ca91:  83 f8 30                 cmpl     $0x30, %eax
0x400081ca94:  77 3a                    ja       0x400081cad0

----------------
IN: 
0x400081cad0:  48 83 e6 f0              andq     $0xfffffff0, %rsi
0x400081cad4:  48 83 e7 f0              andq     $0xfffffff0, %rdi
0x400081cad8:  ba ff ff 00 00           movl     $0xffff, %edx
0x400081cadd:  45 31 c0                 xorl     %r8d, %r8d
0x400081cae0:  83 e1 0f                 andl     $0xf, %ecx
0x400081cae3:  83 e0 0f                 andl     $0xf, %eax
0x400081cae6:  39 c1                    cmpl     %eax, %ecx
0x400081cae8:  74 26                    je       0x400081cb10

----------------
IN: 
0x400081caea:  77 07                    ja       0x400081caf3

----------------
IN: 
0x400081caf3:  4c 8d 48 0f              leaq     0xf(%rax), %r9
0x400081caf7:  49 29 c9                 subq     %rcx, %r9
0x400081cafa:  4c 8d 15 af 39 00 00     leaq     0x39af(%rip), %r10
0x400081cb01:  4f 63 0c 8a              movslq   (%r10, %r9, 4), %r9
0x400081cb05:  4f 8d 14 0a              leaq     (%r10, %r9), %r10
0x400081cb09:  41 ff e2                 jmpq     *%r10

----------------
IN: 
0x400081d970:  66 0f ef c0              pxor     %xmm0, %xmm0
0x400081d974:  66 0f 6f 17              movdqa   (%rdi), %xmm2
0x400081d978:  66 0f 6f 0e              movdqa   (%rsi), %xmm1
0x400081d97c:  66 0f 74 c1              pcmpeqb  %xmm1, %xmm0
0x400081d980:  66 0f 73 fa 04           pslldq   $4, %xmm2
0x400081d985:  66 0f 74 d1              pcmpeqb  %xmm1, %xmm2
0x400081d989:  66 0f f8 d0              psubb    %xmm0, %xmm2
0x400081d98d:  66 44 0f d7 ca           pmovmskb %xmm2, %r9d
0x400081d992:  d3 ea                    shrl     %cl, %edx
0x400081d994:  41 d3 e9                 shrl     %cl, %r9d
0x400081d997:  44 29 ca                 subl     %r9d, %edx
0x400081d99a:  0f 85 d5 04 00 00        jne      0x400081de75

----------------
IN: 
0x400081de75:  48 8d 3c 07              leaq     (%rdi, %rax), %rdi
0x400081de79:  48 8d 34 0e              leaq     (%rsi, %rcx), %rsi
0x400081de7d:  45 85 c0                 testl    %r8d, %r8d
0x400081de80:  74 0e                    je       0x400081de90

----------------
IN: 
0x400081de90:  48 0f bc d2              bsfq     %rdx, %rdx
0x400081de94:  0f b6 0c 16              movzbl   (%rsi, %rdx), %ecx
0x400081de98:  0f b6 04 17              movzbl   (%rdi, %rdx), %eax
0x400081de9c:  29 c8                    subl     %ecx, %eax
0x400081de9e:  c3                       retq     

----------------
IN: 
0x4000803838:  85 c0                    testl    %eax, %eax
0x400080383a:  74 32                    je       0x400080386e

----------------
IN: 
0x400080383c:  48 c7 05 91 47 22 00 00  movq     $0, 0x224791(%rip)
0x4000803844:  00 00 00
0x4000803847:  49 83 7e 08 00           cmpq     $0, 8(%r14)
0x400080384c:  4c 89 3d 7d 47 22 00     movq     %r15, 0x22477d(%rip)
0x4000803853:  c7 05 83 47 22 00 01 00  movl     $1, 0x224783(%rip)
0x400080385b:  00 00
0x400080385d:  0f 85 97 28 00 00        jne      0x40008060fa

----------------
IN: 
0x4000803863:  48 8d 05 66 47 22 00     leaq     0x224766(%rip), %rax
0x400080386a:  49 89 46 08              movq     %rax, 8(%r14)
0x400080386e:  f6 05 77 44 22 00 04     testb    $4, 0x224477(%rip)
0x4000803875:  0f 84 60 28 00 00        je       0x40008060db

----------------
IN: 
0x400080387b:  45 84 ed                 testb    %r13b, %r13b
0x400080387e:  0f 85 d6 01 00 00        jne      0x4000803a5a

----------------
IN: 
0x4000803884:  48 8b 53 10              movq     0x10(%rbx), %rdx
0x4000803888:  48 85 d2                 testq    %rdx, %rdx
0x400080388b:  0f 84 c1 01 00 00        je       0x4000803a52

----------------
IN: 
0x4000803891:  48 8b 02                 movq     (%rdx), %rax
0x4000803894:  48 8d 4b 40              leaq     0x40(%rbx), %rcx
0x4000803898:  48 85 c0                 testq    %rax, %rax
0x400080389b:  0f 84 81 00 00 00        je       0x4000803922

----------------
IN: 
0x40008038a1:  41 be ff ff ff 6f        movl     $0x6fffffff, %r14d
0x40008038a7:  41 bd ff fd ff 6f        movl     $0x6ffffdff, %r13d
0x40008038ad:  41 bb ff fe ff 6f        movl     $0x6ffffeff, %r11d
0x40008038b3:  49 ba 00 fa ff 7f 03 00  movabsq  $0x37ffffa00, %r10
0x40008038bb:  00 00
0x40008038bd:  49 b9 a0 f1 ff 7f 03 00  movabsq  $0x37ffff1a0, %r9
0x40008038c5:  00 00
0x40008038c7:  41 b8 31 00 00 00        movl     $0x31, %r8d
0x40008038cd:  bf 21 00 00 70           movl     $0x70000021, %edi
0x40008038d2:  eb 19                    jmp      0x40008038ed

----------------
IN: 
0x40008038ed:  48 83 f8 21              cmpq     $0x21, %rax
0x40008038f1:  76 ea                    jbe      0x40008038dd

----------------
IN: 
0x40008038dd:  48 89 14 c1              movq     %rdx, (%rcx, %rax, 8)
0x40008038e1:  48 83 c2 10              addq     $0x10, %rdx
0x40008038e5:  48 8b 02                 movq     (%rdx), %rax
0x40008038e8:  48 85 c0                 testq    %rax, %rax
0x40008038eb:  74 35                    je       0x4000803922

----------------
IN: 
0x40008038f3:  4c 89 f6                 movq     %r14, %rsi
0x40008038f6:  48 29 c6                 subq     %rax, %rsi
0x40008038f9:  48 83 fe 0f              cmpq     $0xf, %rsi
0x40008038fd:  76 d5                    jbe      0x40008038d4

----------------
IN: 
0x40008038ff:  8d 34 00                 leal     (%rax, %rax), %esi
0x4000803902:  d1 fe                    sarl     $1, %esi
0x4000803904:  83 fe fc                 cmpl     $0xfc, %esi
0x4000803907:  0f 86 57 08 00 00        jbe      0x4000804164

----------------
IN: 
0x4000804164:  4c 89 ee                 movq     %r13, %rsi
0x4000804167:  48 29 c6                 subq     %rax, %rsi
0x400080416a:  48 83 fe 0b              cmpq     $0xb, %rsi
0x400080416e:  77 30                    ja       0x40008041a0

----------------
IN: 
0x40008041a0:  4c 89 de                 movq     %r11, %rsi
0x40008041a3:  48 29 c6                 subq     %rax, %rsi
0x40008041a6:  48 83 fe 0a              cmpq     $0xa, %rsi
0x40008041aa:  0f 87 31 f7 ff ff        ja       0x40008038e1

----------------
IN: 
0x40008041b0:  48 f7 d8                 negq     %rax
0x40008041b3:  48 8d 04 c1              leaq     (%rcx, %rax, 8), %rax
0x40008041b7:  4a 89 14 10              movq     %rdx, (%rax, %r10)
0x40008041bb:  e9 21 f7 ff ff           jmp      0x40008038e1

----------------
IN: 
0x40008038e1:  48 83 c2 10              addq     $0x10, %rdx
0x40008038e5:  48 8b 02                 movq     (%rdx), %rax
0x40008038e8:  48 85 c0                 testq    %rax, %rax
0x40008038eb:  74 35                    je       0x4000803922

----------------
IN: 
0x40008038d4:  48 89 fe                 movq     %rdi, %rsi
0x40008038d7:  48 29 c6                 subq     %rax, %rsi
0x40008038da:  48 89 f0                 movq     %rsi, %rax
0x40008038dd:  48 89 14 c1              movq     %rdx, (%rcx, %rax, 8)
0x40008038e1:  48 83 c2 10              addq     $0x10, %rdx
0x40008038e5:  48 8b 02                 movq     (%rdx), %rax
0x40008038e8:  48 85 c0                 testq    %rax, %rax
0x40008038eb:  74 35                    je       0x4000803922

----------------
IN: 
0x4000803922:  48 8b 03                 movq     (%rbx), %rax
0x4000803925:  48 85 c0                 testq    %rax, %rax
0x4000803928:  74 71                    je       0x400080399b

----------------
IN: 
0x400080399b:  48 8b 83 e0 00 00 00     movq     0xe0(%rbx), %rax
0x40008039a2:  48 85 c0                 testq    %rax, %rax
0x40008039a5:  74 0b                    je       0x40008039b2

----------------
IN: 
0x40008039a7:  48 83 78 08 07           cmpq     $7, 8(%rax)
0x40008039ac:  0f 85 81 26 00 00        jne      0x4000806033

----------------
IN: 
0x40008039b2:  48 83 7b 78 00           cmpq     $0, 0x78(%rbx)
0x40008039b7:  74 12                    je       0x40008039cb

----------------
IN: 
0x40008039b9:  48 8b 83 88 00 00 00     movq     0x88(%rbx), %rax
0x40008039c0:  48 83 78 08 18           cmpq     $0x18, 8(%rax)
0x40008039c5:  0f 85 49 26 00 00        jne      0x4000806014

----------------
IN: 
0x40008039cb:  48 8b 83 30 01 00 00     movq     0x130(%rbx), %rax
0x40008039d2:  48 85 c0                 testq    %rax, %rax
0x40008039d5:  74 2e                    je       0x4000803a05

----------------
IN: 
0x4000803a05:  48 8b 83 70 01 00 00     movq     0x170(%rbx), %rax
0x4000803a0c:  48 85 c0                 testq    %rax, %rax
0x4000803a0f:  74 2c                    je       0x4000803a3d

----------------
IN: 
0x4000803a3d:  48 83 bb 28 01 00 00 00  cmpq     $0, 0x128(%rbx)
0x4000803a45:  74 0b                    je       0x4000803a52

----------------
IN: 
0x4000803a52:  48 89 df                 movq     %rbx, %rdi
0x4000803a55:  e8 f6 8f 00 00           callq    0x400080ca50

----------------
IN: 
0x4000803a5a:  83 bd 68 ff ff ff 02     cmpl     $2, -0x98(%rbp)
0x4000803a61:  0f 84 50 26 00 00        je       0x40008060b7

----------------
IN: 
0x4000803a67:  48 83 3d 31 33 22 00 00  cmpq     $0, 0x223331(%rip)
0x4000803a6f:  0f 84 2f 26 00 00        je       0x40008060a4

----------------
IN: 
0x40008060a4:  48 8d 05 45 19 22 00     leaq     0x221945(%rip), %rax
0x40008060ab:  48 89 85 48 ff ff ff     movq     %rax, -0xb8(%rbp)
0x40008060b2:  e9 a4 de ff ff           jmp      0x4000803f5b

----------------
IN: 
0x4000803f5b:  e8 50 6b 01 00           callq    0x400081aab0

----------------
IN: 
0x400081aab0:  41 57                    pushq    %r15
0x400081aab2:  41 56                    pushq    %r14
0x400081aab4:  41 55                    pushq    %r13
0x400081aab6:  41 54                    pushq    %r12
0x400081aab8:  55                       pushq    %rbp
0x400081aab9:  53                       pushq    %rbx
0x400081aaba:  48 81 ec e8 01 00 00     subq     $0x1e8, %rsp
0x400081aac1:  4c 8b 3d e0 c2 20 00     movq     0x20c2e0(%rip), %r15
0x400081aac8:  4d 85 ff                 testq    %r15, %r15
0x400081aacb:  0f 84 bf 00 00 00        je       0x400081ab90

----------------
IN: 
0x400081ab90:  48 8d 5c 24 50           leaq     0x50(%rsp), %rbx
0x400081ab95:  48 89 df                 movq     %rbx, %rdi
0x400081ab98:  e8 33 19 00 00           callq    0x400081c4d0

----------------
IN: 
0x400081c4d0:  b8 3f 00 00 00           movl     $0x3f, %eax
0x400081c4d5:  0f 05                    syscall  

----------------
IN: 
0x400081c4d7:  48 3d 01 f0 ff ff        cmpq     $-0xfff, %rax
0x400081c4dd:  73 01                    jae      0x400081c4e0

----------------
IN: 
0x400081c4df:  c3                       retq     

----------------
IN: 
0x400081ab9d:  85 c0                    testl    %eax, %eax
0x400081ab9f:  48 8d bb 82 00 00 00     leaq     0x82(%rbx), %rdi
0x400081aba6:  75 78                    jne      0x400081ac20

----------------
IN: 
0x400081aba8:  45 31 c0                 xorl     %r8d, %r8d
0x400081abab:  31 c0                    xorl     %eax, %eax
0x400081abad:  0f be 0f                 movsbl   (%rdi), %ecx
0x400081abb0:  8d 51 d0                 leal     -0x30(%rcx), %edx
0x400081abb3:  80 fa 09                 cmpb     $9, %dl
0x400081abb6:  77 56                    ja       0x400081ac0e

----------------
IN: 
0x400081abb8:  0f be 57 01              movsbl   1(%rdi), %edx
0x400081abbc:  48 8d 77 01              leaq     1(%rdi), %rsi
0x400081abc0:  83 e9 30                 subl     $0x30, %ecx
0x400081abc3:  8d 7a d0                 leal     -0x30(%rdx), %edi
0x400081abc6:  40 80 ff 09              cmpb     $9, %dil
0x400081abca:  77 1b                    ja       0x400081abe7

----------------
IN: 
0x400081abe7:  c1 e0 08                 shll     $8, %eax
0x400081abea:  41 83 c0 01              addl     $1, %r8d
0x400081abee:  48 8d 7e 01              leaq     1(%rsi), %rdi
0x400081abf2:  09 c8                    orl      %ecx, %eax
0x400081abf4:  80 fa 2e                 cmpb     $0x2e, %dl
0x400081abf7:  75 0b                    jne      0x400081ac04

----------------
IN: 
0x400081abf9:  41 83 f8 03              cmpl     $3, %r8d
0x400081abfd:  75 ae                    jne      0x400081abad

----------------
IN: 
0x400081abad:  0f be 0f                 movsbl   (%rdi), %ecx
0x400081abb0:  8d 51 d0                 leal     -0x30(%rcx), %edx
0x400081abb3:  80 fa 09                 cmpb     $9, %dl
0x400081abb6:  77 56                    ja       0x400081ac0e

----------------
IN: 
0x400081abcc:  0f 1f 40 00              nopl     (%rax)
0x400081abd0:  8d 0c 89                 leal     (%rcx, %rcx, 4), %ecx
0x400081abd3:  48 83 c6 01              addq     $1, %rsi
0x400081abd7:  8d 4c 4a d0              leal     -0x30(%rdx, %rcx, 2), %ecx
0x400081abdb:  0f be 16                 movsbl   (%rsi), %edx
0x400081abde:  8d 7a d0                 leal     -0x30(%rdx), %edi
0x400081abe1:  40 80 ff 09              cmpb     $9, %dil
0x400081abe5:  76 e9                    jbe      0x400081abd0

----------------
IN: 
0x400081ac04:  41 83 f8 03              cmpl     $3, %r8d
0x400081ac08:  0f 84 69 ff ff ff        je       0x400081ab77

----------------
IN: 
0x400081ab77:  48 81 c4 e8 01 00 00     addq     $0x1e8, %rsp
0x400081ab7e:  5b                       popq     %rbx
0x400081ab7f:  5d                       popq     %rbp
0x400081ab80:  41 5c                    popq     %r12
0x400081ab82:  41 5d                    popq     %r13
0x400081ab84:  41 5e                    popq     %r14
0x400081ab86:  41 5f                    popq     %r15
0x400081ab88:  c3                       retq     

----------------
IN: 
0x4000803f60:  85 c0                    testl    %eax, %eax
0x4000803f62:  0f 88 78 02 00 00        js       0x40008041e0

----------------
IN: 
0x4000803f68:  8b 15 36 2d 22 00        movl     0x222d36(%rip), %edx
0x4000803f6e:  85 d2                    testl    %edx, %edx
0x4000803f70:  0f 85 69 0b 00 00        jne      0x4000804adf

----------------
IN: 
0x4000803f76:  89 05 28 2d 22 00        movl     %eax, 0x222d28(%rip)
0x4000803f7c:  3d 1f 06 02 00           cmpl     $0x2061f, %eax
0x4000803f81:  0f 8f 63 08 00 00        jg       0x40008047ea

----------------
IN: 
0x40008047ea:  48 8b 3d df 23 22 00     movq     0x2223df(%rip), %rdi
0x40008047f1:  e8 ea 4c 00 00           callq    0x40008094e0

----------------
IN: 
0x40008094e0:  55                       pushq    %rbp
0x40008094e1:  48 8d 0d 48 d9 21 00     leaq     0x21d948(%rip), %rcx
0x40008094e8:  48 8d 15 49 d9 21 00     leaq     0x21d949(%rip), %rdx
0x40008094ef:  48 89 e5                 movq     %rsp, %rbp
0x40008094f2:  41 57                    pushq    %r15
0x40008094f4:  41 56                    pushq    %r14
0x40008094f6:  41 55                    pushq    %r13
0x40008094f8:  41 54                    pushq    %r12
0x40008094fa:  53                       pushq    %rbx
0x40008094fb:  48 83 ec 38              subq     $0x38, %rsp
0x40008094ff:  48 89 7d a8              movq     %rdi, -0x58(%rbp)
0x4000809503:  48 8b 35 a6 d7 21 00     movq     0x21d7a6(%rip), %rsi
0x400080950a:  48 8b 3d 97 d7 21 00     movq     0x21d797(%rip), %rdi
0x4000809511:  e8 ba 6c 00 00           callq    0x40008101d0

----------------
IN: 
0x40008101d0:  55                       pushq    %rbp
0x40008101d1:  48 89 e5                 movq     %rsp, %rbp
0x40008101d4:  41 57                    pushq    %r15
0x40008101d6:  41 56                    pushq    %r14
0x40008101d8:  41 55                    pushq    %r13
0x40008101da:  41 54                    pushq    %r12
0x40008101dc:  45 31 ff                 xorl     %r15d, %r15d
0x40008101df:  53                       pushq    %rbx
0x40008101e0:  48 83 ec 78              subq     $0x78, %rsp
0x40008101e4:  48 85 ff                 testq    %rdi, %rdi
0x40008101e7:  4c 8b 05 0a 6b 21 00     movq     0x216b0a(%rip), %r8
0x40008101ee:  41 0f 95 c7              setne    %r15b
0x40008101f2:  4c 23 05 07 6b 21 00     andq     0x216b07(%rip), %r8
0x40008101f9:  48 89 7d 98              movq     %rdi, -0x68(%rbp)
0x40008101fd:  48 89 75 88              movq     %rsi, -0x78(%rbp)
0x4000810201:  48 89 55 b0              movq     %rdx, -0x50(%rbp)
0x4000810205:  48 89 4d 90              movq     %rcx, -0x70(%rbp)
0x4000810209:  4d 89 c6                 movq     %r8, %r14
0x400081020c:  74 28                    je       0x4000810236

----------------
IN: 
0x4000810236:  48 8b 05 6b 6b 21 00     movq     0x216b6b(%rip), %rax
0x400081023d:  48 85 c0                 testq    %rax, %rax
0x4000810240:  48 89 45 b8              movq     %rax, -0x48(%rbp)
0x4000810244:  0f 84 44 02 00 00        je       0x400081048e

----------------
IN: 
0x400081048e:  48 8d 3d 6f 08 01 00     leaq     0x1086f(%rip), %rdi
0x4000810495:  31 f6                    xorl     %esi, %esi
0x4000810497:  e8 64 be 00 00           callq    0x400081c300

----------------
IN: 
0x400081c300:  b8 15 00 00 00           movl     $0x15, %eax
0x400081c305:  0f 05                    syscall  

----------------
IN: 
0x400081c307:  48 3d 01 f0 ff ff        cmpq     $-0xfff, %rax
0x400081c30d:  73 01                    jae      0x400081c310

----------------
IN: 
0x400081c310:  48 8d 0d 09 be 20 00     leaq     0x20be09(%rip), %rcx
0x400081c317:  f7 d8                    negl     %eax
0x400081c319:  89 01                    movl     %eax, (%rcx)
0x400081c31b:  48 83 c8 ff              orq      $0xffffffff, %rax
0x400081c31f:  c3                       retq     

----------------
IN: 
0x400081049c:  85 c0                    testl    %eax, %eax
0x400081049e:  0f 85 44 04 00 00        jne      0x40008108e8

----------------
IN: 
0x40008108e8:  49 83 c7 01              addq     $1, %r15
0x40008108ec:  ba 01 00 00 00           movl     $1, %edx
0x40008108f1:  31 db                    xorl     %ebx, %ebx
0x40008108f3:  4c 89 f8                 movq     %r15, %rax
0x40008108f6:  48 c1 e0 04              shlq     $4, %rax
0x40008108fa:  48 83 c0 10              addq     $0x10, %rax
0x40008108fe:  48 29 c4                 subq     %rax, %rsp
0x4000810901:  31 c0                    xorl     %eax, %eax
0x4000810903:  4c 8d 6c 24 0f           leaq     0xf(%rsp), %r13
0x4000810908:  49 83 e5 f0              andq     $0xfffffff0, %r13
0x400081090c:  4c 89 6d c8              movq     %r13, -0x38(%rbp)
0x4000810910:  e9 fc fa ff ff           jmp      0x4000810411

----------------
IN: 
0x4000810411:  4d 85 f6                 testq    %r14, %r14
0x4000810414:  0f 84 ca 00 00 00        je       0x40008104e4

----------------
IN: 
0x40008104e4:  48 8b 4d 98              movq     -0x68(%rbp), %rcx
0x40008104e8:  48 85 c9                 testq    %rcx, %rcx
0x40008104eb:  74 1a                    je       0x4000810507

----------------
IN: 
0x40008104ed:  48 03 45 c8              addq     -0x38(%rbp), %rax
0x40008104f1:  48 89 08                 movq     %rcx, (%rax)
0x40008104f4:  48 8b 4d 88              movq     -0x78(%rbp), %rcx
0x40008104f8:  48 89 48 08              movq     %rcx, 8(%rax)
0x40008104fc:  48 89 d0                 movq     %rdx, %rax
0x40008104ff:  48 83 c2 01              addq     $1, %rdx
0x4000810503:  48 c1 e0 04              shlq     $4, %rax
0x4000810507:  48 03 45 c8              addq     -0x38(%rbp), %rax
0x400081050b:  48 8d 0d 05 08 01 00     leaq     0x10805(%rip), %rcx
0x4000810512:  49 39 d7                 cmpq     %rdx, %r15
0x4000810515:  48 89 08                 movq     %rcx, (%rax)
0x4000810518:  48 c7 40 08 03 00 00 00  movq     $3, 8(%rax)
0x4000810520:  0f 85 bb 04 00 00        jne      0x40008109e1

----------------
IN: 
0x4000810526:  49 83 ff 01              cmpq     $1, %r15
0x400081052a:  48 8b 45 c8              movq     -0x38(%rbp), %rax
0x400081052e:  0f 84 6b 03 00 00        je       0x400081089f

----------------
IN: 
0x4000810534:  4d 89 f8                 movq     %r15, %r8
0x4000810537:  48 8b 48 08              movq     8(%rax), %rcx
0x400081053b:  49 c1 e0 04              shlq     $4, %r8
0x400081053f:  49 83 ff 02              cmpq     $2, %r15
0x4000810543:  4a 8d 74 00 f0           leaq     -0x10(%rax, %r8), %rsi
0x4000810548:  48 89 cf                 movq     %rcx, %rdi
0x400081054b:  48 89 4d b8              movq     %rcx, -0x48(%rbp)
0x400081054f:  48 89 c1                 movq     %rax, %rcx
0x4000810552:  48 8b 46 08              movq     8(%rsi), %rax
0x4000810556:  48 89 c2                 movq     %rax, %rdx
0x4000810559:  48 89 45 c0              movq     %rax, -0x40(%rbp)
0x400081055d:  48 89 f8                 movq     %rdi, %rax
0x4000810560:  48 8d 44 10 02           leaq     2(%rax, %rdx), %rax
0x4000810565:  0f 86 2b 03 00 00        jbe      0x4000810896

----------------
IN: 
0x4000810896:  44 89 7d 98              movl     %r15d, -0x68(%rbp)
0x400081089a:  e9 31 fd ff ff           jmp      0x40008105d0

----------------
IN: 
0x40008105d0:  0f b6 4d 98              movzbl   -0x68(%rbp), %ecx
0x40008105d4:  41 b9 01 00 00 00        movl     $1, %r9d
0x40008105da:  48 89 75 80              movq     %rsi, -0x80(%rbp)
0x40008105de:  44 89 ce                 movl     %r9d, %esi
0x40008105e1:  4c 89 45 88              movq     %r8, -0x78(%rbp)
0x40008105e5:  44 89 4d a8              movl     %r9d, -0x58(%rbp)
0x40008105e9:  d3 e6                    shll     %cl, %esi
0x40008105eb:  48 8b 4d b0              movq     -0x50(%rbp), %rcx
0x40008105ef:  4c 63 e6                 movslq   %esi, %r12
0x40008105f2:  89 b5 7c ff ff ff        movl     %esi, -0x84(%rbp)
0x40008105f8:  4c 89 e2                 movq     %r12, %rdx
0x40008105fb:  48 c1 e2 04              shlq     $4, %rdx
0x40008105ff:  4c 89 21                 movq     %r12, (%rcx)
0x4000810602:  48 8d 3c 10              leaq     (%rax, %rdx), %rdi
0x4000810606:  48 89 55 b0              movq     %rdx, -0x50(%rbp)
0x400081060a:  e8 71 14 ff ff           callq    0x4000801a80

----------------
IN: 
0x400081ad56:  48 8b 0d 73 d3 20 00     movq     0x20d373(%rip), %rcx
0x400081ad5d:  48 8d 44 39 ff           leaq     -1(%rcx, %rdi), %rax
0x400081ad62:  48 f7 df                 negq     %rdi
0x400081ad65:  48 21 c7                 andq     %rax, %rdi
0x400081ad68:  48 8d 2c 37              leaq     (%rdi, %rsi), %rbp
0x400081ad6c:  48 89 3d 5d d3 20 00     movq     %rdi, 0x20d35d(%rip)
0x400081ad73:  48 39 d5                 cmpq     %rdx, %rbp
0x400081ad76:  73 0b                    jae      0x400081ad83

----------------
IN: 
0x400081060f:  48 85 c0                 testq    %rax, %rax
0x4000810612:  48 89 45 a0              movq     %rax, -0x60(%rbp)
0x4000810616:  48 8b 55 b0              movq     -0x50(%rbp), %rdx
0x400081061a:  44 8b 4d a8              movl     -0x58(%rbp), %r9d
0x400081061e:  4c 8b 45 88              movq     -0x78(%rbp), %r8
0x4000810622:  48 8b 75 80              movq     -0x80(%rbp), %rsi
0x4000810626:  0f 84 9b 02 00 00        je       0x40008108c7

----------------
IN: 
0x400081062c:  48 8d 3c 10              leaq     (%rax, %rdx), %rdi
0x4000810630:  49 83 ff 02              cmpq     $2, %r15
0x4000810634:  48 89 38                 movq     %rdi, (%rax)
0x4000810637:  48 89 78 10              movq     %rdi, 0x10(%rax)
0x400081063b:  0f 84 d4 02 00 00        je       0x4000810915

----------------
IN: 
0x4000810915:  48 8b 5d c8              movq     -0x38(%rbp), %rbx
0x4000810919:  44 89 4d a8              movl     %r9d, -0x58(%rbp)
0x400081091d:  4c 89 45 b0              movq     %r8, -0x50(%rbp)
0x4000810921:  48 8b 53 18              movq     0x18(%rbx), %rdx
0x4000810925:  48 8b 73 10              movq     0x10(%rbx), %rsi
0x4000810929:  e8 42 e3 00 00           callq    0x400081ec70

----------------
IN: 
0x400081ec70:  48 83 fa 20              cmpq     $0x20, %rdx
0x400081ec74:  73 7a                    jae      0x400081ecf0

----------------
IN: 
0x400081ec76:  f6 c2 01                 testb    $1, %dl
0x400081ec79:  74 0b                    je       0x400081ec86

----------------
IN: 
0x400081ec7b:  0f b6 0e                 movzbl   (%rsi), %ecx
0x400081ec7e:  88 0f                    movb     %cl, (%rdi)
0x400081ec80:  48 ff c6                 incq     %rsi
0x400081ec83:  48 ff c7                 incq     %rdi
0x400081ec86:  f6 c2 02                 testb    $2, %dl
0x400081ec89:  74 0e                    je       0x400081ec99

----------------
IN: 
0x400081ec8b:  0f b7 0e                 movzwl   (%rsi), %ecx
0x400081ec8e:  66 89 0f                 movw     %cx, (%rdi)
0x400081ec91:  48 83 c6 02              addq     $2, %rsi
0x400081ec95:  48 83 c7 02              addq     $2, %rdi
0x400081ec99:  f6 c2 04                 testb    $4, %dl
0x400081ec9c:  74 0c                    je       0x400081ecaa

----------------
IN: 
0x400081ecaa:  f6 c2 08                 testb    $8, %dl
0x400081ecad:  74 11                    je       0x400081ecc0

----------------
IN: 
0x400081ecc0:  81 e2 f0 00 00 00        andl     $0xf0, %edx
0x400081ecc6:  74 23                    je       0x400081eceb

----------------
IN: 
0x400081eceb:  48 89 f8                 movq     %rdi, %rax
0x400081ecee:  c3                       retq     

----------------
IN: 
0x400081092e:  48 8d 35 19 04 01 00     leaq     0x10419(%rip), %rsi
0x4000810935:  ba 01 00 00 00           movl     $1, %edx
0x400081093a:  48 89 c7                 movq     %rax, %rdi
0x400081093d:  e8 2e e3 00 00           callq    0x400081ec70

----------------
IN: 
0x400081ec99:  f6 c2 04                 testb    $4, %dl
0x400081ec9c:  74 0c                    je       0x400081ecaa

----------------
IN: 
0x4000810942:  48 8b 55 b8              movq     -0x48(%rbp), %rdx
0x4000810946:  48 8b 33                 movq     (%rbx), %rsi
0x4000810949:  48 89 c7                 movq     %rax, %rdi
0x400081094c:  e8 1f e3 00 00           callq    0x400081ec70

----------------
IN: 
0x400081ec86:  f6 c2 02                 testb    $2, %dl
0x400081ec89:  74 0e                    je       0x400081ec99

----------------
IN: 
0x400081ec9e:  8b 0e                    movl     (%rsi), %ecx
0x400081eca0:  89 0f                    movl     %ecx, (%rdi)
0x400081eca2:  48 83 c6 04              addq     $4, %rsi
0x400081eca6:  48 83 c7 04              addq     $4, %rdi
0x400081ecaa:  f6 c2 08                 testb    $8, %dl
0x400081ecad:  74 11                    je       0x400081ecc0

----------------
IN: 
0x4000810951:  48 8d 35 f6 03 01 00     leaq     0x103f6(%rip), %rsi
0x4000810958:  ba 01 00 00 00           movl     $1, %edx
0x400081095d:  48 89 c7                 movq     %rax, %rdi
0x4000810960:  e8 0b e3 00 00           callq    0x400081ec70

----------------
IN: 
0x4000810965:  8b 45 98                 movl     -0x68(%rbp), %eax
0x4000810968:  44 8b 4d a8              movl     -0x58(%rbp), %r9d
0x400081096c:  4c 8b 45 b0              movq     -0x50(%rbp), %r8
0x4000810970:  83 e8 01                 subl     $1, %eax
0x4000810973:  89 c1                    movl     %eax, %ecx
0x4000810975:  89 45 88                 movl     %eax, -0x78(%rbp)
0x4000810978:  48 89 d8                 movq     %rbx, %rax
0x400081097b:  41 d3 e1                 shll     %cl, %r9d
0x400081097e:  4c 01 c0                 addq     %r8, %rax
0x4000810981:  44 89 4d 80              movl     %r9d, -0x80(%rbp)
0x4000810985:  48 89 45 c8              movq     %rax, -0x38(%rbp)
0x4000810989:  e9 b7 fd ff ff           jmp      0x4000810745

----------------
IN: 
0x4000810745:  0f b6 4d 98              movzbl   -0x68(%rbp), %ecx
0x4000810749:  48 8b 75 a0              movq     -0x60(%rbp), %rsi
0x400081074d:  ba 10 00 00 00           movl     $0x10, %edx
0x4000810752:  48 89 f0                 movq     %rsi, %rax
0x4000810755:  48 d3 e2                 shlq     %cl, %rdx
0x4000810758:  48 01 f2                 addq     %rsi, %rdx
0x400081075b:  0f 1f 44 00 00           nopl     (%rax, %rax)
0x4000810760:  48 c7 40 08 00 00 00 00  movq     $0, 8(%rax)
0x4000810768:  48 83 c0 10              addq     $0x10, %rax
0x400081076c:  48 39 d0                 cmpq     %rdx, %rax
0x400081076f:  75 ef                    jne      0x4000810760

----------------
IN: 
0x4000810760:  48 c7 40 08 00 00 00 00  movq     $0, 8(%rax)
0x4000810768:  48 83 c0 10              addq     $0x10, %rax
0x400081076c:  48 39 d0                 cmpq     %rdx, %rax
0x400081076f:  75 ef                    jne      0x4000810760

----------------
IN: 
0x4000810771:  4c 8b 6d c8              movq     -0x38(%rbp), %r13
0x4000810775:  4c 8b 4d a0              movq     -0x60(%rbp), %r9
0x4000810779:  bf 01 00 00 00           movl     $1, %edi
0x400081077e:  4c 89 f9                 movq     %r15, %rcx
0x4000810781:  0f 1f 80 00 00 00 00     nopl     (%rax)
0x4000810788:  48 83 e9 01              subq     $1, %rcx
0x400081078c:  41 89 f8                 movl     %edi, %r8d
0x400081078f:  41 d3 e0                 shll     %cl, %r8d
0x4000810792:  4d 85 e4                 testq    %r12, %r12
0x4000810795:  4d 63 c0                 movslq   %r8d, %r8
0x4000810798:  74 31                    je       0x40008107cb

----------------
IN: 
0x400081079a:  4c 89 ca                 movq     %r9, %rdx
0x400081079d:  4c 89 e0                 movq     %r12, %rax
0x40008107a0:  48 83 e8 01              subq     $1, %rax
0x40008107a4:  49 85 c0                 testq    %r8, %rax
0x40008107a7:  74 19                    je       0x40008107c2

----------------
IN: 
0x40008107a9:  49 8b 75 f8              movq     -8(%r13), %rsi
0x40008107ad:  48 83 e8 01              subq     $1, %rax
0x40008107b1:  48 83 c6 01              addq     $1, %rsi
0x40008107b5:  48 01 72 08              addq     %rsi, 8(%rdx)
0x40008107b9:  48 83 c2 10              addq     $0x10, %rdx
0x40008107bd:  49 85 c0                 testq    %r8, %rax
0x40008107c0:  75 e7                    jne      0x40008107a9

----------------
IN: 
0x40008107c2:  48 83 c2 10              addq     $0x10, %rdx
0x40008107c6:  48 85 c0                 testq    %rax, %rax
0x40008107c9:  75 d5                    jne      0x40008107a0

----------------
IN: 
0x40008107a0:  48 83 e8 01              subq     $1, %rax
0x40008107a4:  49 85 c0                 testq    %r8, %rax
0x40008107a7:  74 19                    je       0x40008107c2

----------------
IN: 
0x40008107cb:  49 83 ed 10              subq     $0x10, %r13
0x40008107cf:  48 85 c9                 testq    %rcx, %rcx
0x40008107d2:  75 b4                    jne      0x4000810788

----------------
IN: 
0x4000810788:  48 83 e9 01              subq     $1, %rcx
0x400081078c:  41 89 f8                 movl     %edi, %r8d
0x400081078f:  41 d3 e0                 shll     %cl, %r8d
0x4000810792:  4d 85 e4                 testq    %r12, %r12
0x4000810795:  4d 63 c0                 movslq   %r8d, %r8
0x4000810798:  74 31                    je       0x40008107cb

----------------
IN: 
0x40008107d4:  48 8b 45 a0              movq     -0x60(%rbp), %rax
0x40008107d8:  44 8b 85 7c ff ff ff     movl     -0x84(%rbp), %r8d
0x40008107df:  0f b6 4d 88              movzbl   -0x78(%rbp), %ecx
0x40008107e3:  41 83 e8 02              subl     $2, %r8d
0x40008107e7:  48 8d 50 20              leaq     0x20(%rax), %rdx
0x40008107eb:  b8 01 00 00 00           movl     $1, %eax
0x40008107f0:  4d 63 c0                 movslq   %r8d, %r8
0x40008107f3:  48 d3 e0                 shlq     %cl, %rax
0x40008107f6:  49 39 c0                 cmpq     %rax, %r8
0x40008107f9:  74 47                    je       0x4000810842

----------------
IN: 
0x4000810842:  8b 75 80                 movl     -0x80(%rbp), %esi
0x4000810845:  48 8b 5d c0              movq     -0x40(%rbp), %rbx
0x4000810849:  f7 de                    negl     %esi
0x400081084b:  48 83 c3 01              addq     $1, %rbx
0x400081084f:  48 63 f6                 movslq   %esi, %rsi
0x4000810852:  48 c1 e6 04              shlq     $4, %rsi
0x4000810856:  66 2e 0f 1f 84 00 00 00  nopw     %cs:(%rax, %rax)
0x400081085e:  00 00
0x4000810860:  48 89 d9                 movq     %rbx, %rcx
0x4000810863:  48 03 0c 32              addq     (%rdx, %rsi), %rcx
0x4000810867:  48 83 c2 10              addq     $0x10, %rdx
0x400081086b:  48 89 4a f0              movq     %rcx, -0x10(%rdx)
0x400081086f:  48 83 e8 01              subq     $1, %rax
0x4000810873:  75 eb                    jne      0x4000810860

----------------
IN: 
0x4000810860:  48 89 d9                 movq     %rbx, %rcx
0x4000810863:  48 03 0c 32              addq     (%rdx, %rsi), %rcx
0x4000810867:  48 83 c2 10              addq     $0x10, %rdx
0x400081086b:  48 89 4a f0              movq     %rcx, -0x10(%rdx)
0x400081086f:  48 83 e8 01              subq     $1, %rax
0x4000810873:  75 eb                    jne      0x4000810860

----------------
IN: 
0x4000810875:  48 8b 4d a0              movq     -0x60(%rbp), %rcx
0x4000810879:  48 8b 75 90              movq     -0x70(%rbp), %rsi
0x400081087d:  48 8b 41 08              movq     8(%rcx), %rax
0x4000810881:  48 89 06                 movq     %rax, (%rsi)
0x4000810884:  48 8d 65 d8              leaq     -0x28(%rbp), %rsp
0x4000810888:  48 89 c8                 movq     %rcx, %rax
0x400081088b:  5b                       popq     %rbx
0x400081088c:  41 5c                    popq     %r12
0x400081088e:  41 5d                    popq     %r13
0x4000810890:  41 5e                    popq     %r14
0x4000810892:  41 5f                    popq     %r15
0x4000810894:  5d                       popq     %rbp
0x4000810895:  c3                       retq     

----------------
IN: 
0x4000809516:  bf 28 00 00 00           movl     $0x28, %edi
0x400080951b:  48 89 05 1e d9 21 00     movq     %rax, 0x21d91e(%rip)
0x4000809522:  e8 59 85 ff ff           callq    0x4000801a80

----------------
IN: 
0x4000809527:  48 85 c0                 testq    %rax, %rax
0x400080952a:  48 89 05 ef d8 21 00     movq     %rax, 0x21d8ef(%rip)
0x4000809531:  0f 84 97 04 00 00        je       0x40008099ce

----------------
IN: 
0x4000809537:  49 89 c6                 movq     %rax, %r14
0x400080953a:  48 8b 05 f7 d8 21 00     movq     0x21d8f7(%rip), %rax
0x4000809541:  48 ba cd cc cc cc cc cc  movabsq  $-0x3333333333333333, %rdx
0x4000809549:  cc cc
0x400080954b:  48 89 45 c0              movq     %rax, -0x40(%rbp)
0x400080954f:  48 c1 e0 02              shlq     $2, %rax
0x4000809553:  48 89 45 b8              movq     %rax, -0x48(%rbp)
0x4000809557:  48 83 c0 4f              addq     $0x4f, %rax
0x400080955b:  48 f7 e2                 mulq     %rdx
0x400080955e:  48 c1 ea 05              shrq     $5, %rdx
0x4000809562:  48 8d 1c 92              leaq     (%rdx, %rdx, 4), %rbx
0x4000809566:  48 89 df                 movq     %rbx, %rdi
0x4000809569:  48 c1 e7 05              shlq     $5, %rdi
0x400080956d:  e8 0e 85 ff ff           callq    0x4000801a80

----------------
IN: 
0x4000809572:  48 85 c0                 testq    %rax, %rax
0x4000809575:  49 89 06                 movq     %rax, (%r14)
0x4000809578:  0f 84 1c 04 00 00        je       0x400080999a

----------------
IN: 
0x400080957e:  48 8d 35 b2 75 01 00     leaq     0x175b2(%rip), %rsi
0x4000809585:  4d 89 f7                 movq     %r14, %r15
0x4000809588:  48 83 7d c0 00           cmpq     $0, -0x40(%rbp)
0x400080958d:  4c 8d 70 28              leaq     0x28(%rax), %r14
0x4000809591:  48 89 05 30 e4 21 00     movq     %rax, 0x21e430(%rip)
0x4000809598:  48 c7 40 10 00 00 00 00  movq     $0, 0x10(%rax)
0x40008095a0:  48 89 70 08              movq     %rsi, 8(%rax)
0x40008095a4:  48 8d 35 35 67 01 00     leaq     0x16735(%rip), %rsi
0x40008095ab:  48 c7 40 20 16 00 00 00  movq     $0x16, 0x20(%rax)
0x40008095b3:  c7 05 6b d8 21 00 00 00  movl     $0, 0x21d86b(%rip)
0x40008095bb:  00 00
0x40008095bd:  4c 8d 25 fc 66 01 00     leaq     0x166fc(%rip), %r12
0x40008095c4:  4c 8d 2d 2c 67 01 00     leaq     0x1672c(%rip), %r13
0x40008095cb:  48 89 70 18              movq     %rsi, 0x18(%rax)
0x40008095cf:  48 8d 34 dd 00 00 00 00  leaq     (, %rbx, 8), %rsi
0x40008095d7:  48 8d 5c 30 08           leaq     8(%rax, %rsi), %rbx
0x40008095dc:  49 8d 46 d8              leaq     -0x28(%r14), %rax
0x40008095e0:  48 89 75 b0              movq     %rsi, -0x50(%rbp)
0x40008095e4:  48 89 45 c8              movq     %rax, -0x38(%rbp)
0x40008095e8:  74 0e                    je       0x40008095f8

----------------
IN: 
0x40008095ea:  48 8b 55 b8              movq     -0x48(%rbp), %rdx
0x40008095ee:  31 f6                    xorl     %esi, %esi
0x40008095f0:  4c 89 f7                 movq     %r14, %rdi
0x40008095f3:  e8 88 55 01 00           callq    0x400081eb80

----------------
IN: 
0x400081eb80:  66 0f 6e c6              movd     %esi, %xmm0
0x400081eb84:  48 89 f8                 movq     %rdi, %rax
0x400081eb87:  66 0f 60 c0              punpcklbw %xmm0, %xmm0
0x400081eb8b:  66 0f 61 c0              punpcklwd %xmm0, %xmm0
0x400081eb8f:  66 0f 70 c0 00           pshufd   $0, %xmm0, %xmm0
0x400081eb94:  48 83 fa 40              cmpq     $0x40, %rdx
0x400081eb98:  77 36                    ja       0x400081ebd0

----------------
IN: 
0x400081eb9a:  48 83 fa 10              cmpq     $0x10, %rdx
0x400081eb9e:  0f 86 8a 00 00 00        jbe      0x400081ec2e

----------------
IN: 
0x400081ec2e:  66 48 0f 7e c1           movd     %xmm0, %rcx
0x400081ec33:  f6 c2 18                 testb    $0x18, %dl
0x400081ec36:  75 22                    jne      0x400081ec5a

----------------
IN: 
0x400081ec5a:  48 89 0f                 movq     %rcx, (%rdi)
0x400081ec5d:  48 89 4c 17 f8           movq     %rcx, -8(%rdi, %rdx)
0x400081ec62:  c3                       retq     

----------------
IN: 
0x40008095f8:  48 8d 05 d9 66 01 00     leaq     0x166d9(%rip), %rax
0x40008095ff:  4c 39 e0                 cmpq     %r12, %rax
0x4000809602:  74 6c                    je       0x4000809670

----------------
IN: 
0x4000809604:  48 8d 43 f8              leaq     -8(%rbx), %rax
0x4000809608:  48 8b 4d b0              movq     -0x50(%rbp), %rcx
0x400080960c:  49 83 c7 08              addq     $8, %r15
0x4000809610:  49 83 c4 08              addq     $8, %r12
0x4000809614:  49 89 46 d8              movq     %rax, -0x28(%r14)
0x4000809618:  49 89 07                 movq     %rax, (%r15)
0x400080961b:  48 8d 05 15 75 01 00     leaq     0x17515(%rip), %rax
0x4000809622:  48 c7 43 08 00 00 00 00  movq     $0, 8(%rbx)
0x400080962a:  4c 89 6b 10              movq     %r13, 0x10(%rbx)
0x400080962e:  49 01 ce                 addq     %rcx, %r14
0x4000809631:  48 89 03                 movq     %rax, (%rbx)
0x4000809634:  49 8b 04 24              movq     (%r12), %rax
0x4000809638:  48 89 43 18              movq     %rax, 0x18(%rbx)
0x400080963c:  48 01 cb                 addq     %rcx, %rbx
0x400080963f:  41 80 7d 00 2f           cmpb     $0x2f, (%r13)
0x4000809644:  49 8d 44 05 01           leaq     1(%r13, %rax), %rax
0x4000809649:  0f 85 2c 03 00 00        jne      0x400080997b

----------------
IN: 
0x400080964f:  48 83 7d c0 00           cmpq     $0, -0x40(%rbp)
0x4000809654:  49 89 c5                 movq     %rax, %r13
0x4000809657:  49 8d 46 d8              leaq     -0x28(%r14), %rax
0x400080965b:  48 89 45 c8              movq     %rax, -0x38(%rbp)
0x400080965f:  75 89                    jne      0x40008095ea

----------------
IN: 
0x4000809670:  48 8b 1d c9 d9 21 00     movq     0x21d9c9(%rip), %rbx
0x4000809677:  48 8b 45 c8              movq     -0x38(%rbp), %rax
0x400080967b:  48 c7 05 ba e9 21 00 1a  movq     $0x1a, 0x21e9ba(%rip)
0x4000809683:  00 00 00
0x4000809686:  49 c7 47 08 00 00 00 00  movq     $0, 8(%r15)
0x400080968e:  48 85 db                 testq    %rbx, %rbx
0x4000809691:  48 c7 00 00 00 00 00     movq     $0, (%rax)
0x4000809698:  74 59                    je       0x40008096f3

----------------
IN: 
0x400080969a:  0f b6 83 14 03 00 00     movzbl   0x314(%rbx), %eax
0x40008096a1:  83 e0 03                 andl     $3, %eax
0x40008096a4:  3c 02                    cmpb     $2, %al
0x40008096a6:  0f 84 03 03 00 00        je       0x40008099af

----------------
IN: 
0x40008096ac:  48 8b 83 28 01 00 00     movq     0x128(%rbx), %rax
0x40008096b3:  48 85 c0                 testq    %rax, %rax
0x40008096b6:  0f 84 5c 01 00 00        je       0x4000809818

----------------
IN: 
0x4000809818:  48 8b 83 b8 00 00 00     movq     0xb8(%rbx), %rax
0x400080981f:  48 c7 83 a8 03 00 00 ff  movq     $-1, 0x3a8(%rbx)
0x4000809827:  ff ff ff
0x400080982a:  48 85 c0                 testq    %rax, %rax
0x400080982d:  74 31                    je       0x4000809860

----------------
IN: 
0x4000809860:  48 c7 83 18 03 00 00 ff  movq     $-1, 0x318(%rbx)
0x4000809868:  ff ff ff
0x400080986b:  e9 83 fe ff ff           jmp      0x40008096f3

----------------
IN: 
0x40008096f3:  48 8b 45 a8              movq     -0x58(%rbp), %rax
0x40008096f7:  48 85 c0                 testq    %rax, %rax
0x40008096fa:  0f 84 f8 00 00 00        je       0x40008097f8

----------------
IN: 
0x40008097f8:  48 c7 05 4d d6 21 00 ff  movq     $-1, 0x21d64d(%rip)
0x4000809800:  ff ff ff
0x4000809803:  48 8d 65 d8              leaq     -0x28(%rbp), %rsp
0x4000809807:  5b                       popq     %rbx
0x4000809808:  41 5c                    popq     %r12
0x400080980a:  41 5d                    popq     %r13
0x400080980c:  41 5e                    popq     %r14
0x400080980e:  41 5f                    popq     %r15
0x4000809810:  5d                       popq     %rbp
0x4000809811:  c3                       retq     

----------------
IN: 
0x40008047f6:  48 8b 3d db 31 22 00     movq     0x2231db(%rip), %rdi
0x40008047fd:  31 f6                    xorl     %esi, %esi
0x40008047ff:  e8 7c d8 00 00           callq    0x4000812080

----------------
IN: 
0x4000812080:  48 85 f6                 testq    %rsi, %rsi
0x4000812083:  74 53                    je       0x40008120d8

----------------
IN: 
0x40008120d8:  48 8b 05 11 4f 21 00     movq     0x214f11(%rip), %rax
0x40008120df:  48 83 78 08 00           cmpq     $0, 8(%rax)
0x40008120e4:  75 ba                    jne      0x40008120a0

----------------
IN: 
0x40008120e6:  48 85 ff                 testq    %rdi, %rdi
0x40008120e9:  c7 00 01 00 00 00        movl     $1, (%rax)
0x40008120ef:  75 ba                    jne      0x40008120ab

----------------
IN: 
0x40008120ab:  48 8d 14 f6              leaq     (%rsi, %rsi, 8), %rdx
0x40008120af:  48 8d 0d 8a 4f 21 00     leaq     0x214f8a(%rip), %rcx
0x40008120b6:  48 89 78 20              movq     %rdi, 0x20(%rax)
0x40008120ba:  48 c1 e2 04              shlq     $4, %rdx
0x40008120be:  48 8b 14 11              movq     (%rcx, %rdx), %rdx
0x40008120c2:  48 8d 0d a7 ff ff ff     leaq     -0x59(%rip), %rcx
0x40008120c9:  48 89 48 10              movq     %rcx, 0x10(%rax)
0x40008120cd:  48 89 50 08              movq     %rdx, 8(%rax)
0x40008120d1:  c3                       retq     

----------------
IN: 
0x4000804804:  48 83 3d d4 31 22 00 00  cmpq     $0, 0x2231d4(%rip)
0x400080480c:  49 89 c6                 movq     %rax, %r14
0x400080480f:  c7 40 18 00 00 00 00     movl     $0, 0x18(%rax)
0x4000804816:  75 11                    jne      0x4000804829

----------------
IN: 
0x4000804818:  48 8b 05 f1 31 22 00     movq     0x2231f1(%rip), %rax
0x400080481f:  48 8b 00                 movq     (%rax), %rax
0x4000804822:  48 89 05 b7 31 22 00     movq     %rax, 0x2231b7(%rip)
0x4000804829:  0f b6 05 bc 34 22 00     movzbl   0x2234bc(%rip), %eax
0x4000804830:  83 05 11 28 22 00 01     addl     $1, 0x222811(%rip)
0x4000804837:  83 e0 fc                 andl     $0xfffffffffffffffc, %eax
0x400080483a:  83 c8 01                 orl      $1, %eax
0x400080483d:  88 05 a9 34 22 00        movb     %al, 0x2234a9(%rip)
0x4000804843:  48 8d 05 8e 31 22 00     leaq     0x22318e(%rip), %rax
0x400080484a:  48 89 43 18              movq     %rax, 0x18(%rbx)
0x400080484e:  48 83 05 42 31 22 00 01  addq     $1, 0x223142(%rip)
0x4000804856:  48 83 3d 12 25 22 00 fe  cmpq     $-2, 0x222512(%rip)
0x400080485e:  48 89 1d 93 31 22 00     movq     %rbx, 0x223193(%rip)
0x4000804865:  75 13                    jne      0x400080487a

----------------
IN: 
0x4000804867:  31 c0                    xorl     %eax, %eax
0x4000804869:  48 83 3b 00              cmpq     $0, (%rbx)
0x400080486d:  0f 94 c0                 sete     %al
0x4000804870:  48 f7 d8                 negq     %rax
0x4000804873:  48 89 05 f6 24 22 00     movq     %rax, 0x2224f6(%rip)
0x400080487a:  66 83 3d b2 c7 ff ff 40  cmpw     $0x40, -0x384e(%rip)
0x4000804882:  0f 85 dd 12 00 00        jne      0x4000805b65

----------------
IN: 
0x4000804888:  66 83 3d a6 c7 ff ff 38  cmpw     $0x38, -0x385a(%rip)
0x4000804890:  0f 85 b0 12 00 00        jne      0x4000805b46

----------------
IN: 
0x4000804896:  0f b7 05 9b c7 ff ff     movzwl   -0x3865(%rip), %eax
0x400080489d:  48 8d 15 5c c7 ff ff     leaq     -0x38a4(%rip), %rdx
0x40008048a4:  48 03 15 75 c7 ff ff     addq     -0x388b(%rip), %rdx
0x40008048ab:  48 8d 34 c5 00 00 00 00  leaq     (, %rax, 8), %rsi
0x40008048b3:  48 89 c1                 movq     %rax, %rcx
0x40008048b6:  48 89 15 bb 33 22 00     movq     %rdx, 0x2233bb(%rip)
0x40008048bd:  48 c1 e1 06              shlq     $6, %rcx
0x40008048c1:  66 89 05 c0 33 22 00     movw     %ax, 0x2233c0(%rip)
0x40008048c8:  48 29 f1                 subq     %rsi, %rcx
0x40008048cb:  48 8d 74 0a c8           leaq     -0x38(%rdx, %rcx), %rsi
0x40008048d0:  31 c9                    xorl     %ecx, %ecx
0x40008048d2:  48 39 c8                 cmpq     %rcx, %rax
0x40008048d5:  74 29                    je       0x4000804900

----------------
IN: 
0x40008048d7:  48 89 f2                 movq     %rsi, %rdx
0x40008048da:  48 83 c1 01              addq     $1, %rcx
0x40008048de:  48 83 ee 38              subq     $0x38, %rsi
0x40008048e2:  81 3a 52 e5 74 64        cmpl     $0x6474e552, (%rdx)
0x40008048e8:  75 e8                    jne      0x40008048d2

----------------
IN: 
0x40008048ea:  48 8b 42 10              movq     0x10(%rdx), %rax
0x40008048ee:  48 89 05 3b 35 22 00     movq     %rax, 0x22353b(%rip)
0x40008048f5:  48 8b 42 28              movq     0x28(%rdx), %rax
0x40008048f9:  48 89 05 38 35 22 00     movq     %rax, 0x223538(%rip)
0x4000804900:  48 83 3d f8 34 22 00 00  cmpq     $0, 0x2234f8(%rip)
0x4000804908:  74 0c                    je       0x4000804916

----------------
IN: 
0x4000804916:  48 8b 05 1b 37 22 00     movq     0x22371b(%rip), %rax
0x400080491d:  48 c7 85 58 ff ff ff 00  movq     $0, -0xa8(%rbp)
0x4000804925:  00 00 00
0x4000804928:  48 85 c0                 testq    %rax, %rax
0x400080492b:  0f 85 d1 12 00 00        jne      0x4000805c02

----------------
IN: 
0x4000804931:  e8 3a f9 00 00           callq    0x4000814270

----------------
IN: 
0x4000814270:  80 3d ed 3c 21 00 00     cmpb     $0, 0x213ced(%rip)
0x4000814277:  75 08                    jne      0x4000814281

----------------
IN: 
0x4000814279:  48 8b 05 e8 3c 21 00     movq     0x213ce8(%rip), %rax
0x4000814280:  c3                       retq     

----------------
IN: 
0x4000804936:  48 89 85 40 ff ff ff     movq     %rax, -0xc0(%rbp)
0x400080493d:  48 8b 83 e8 00 00 00     movq     0xe8(%rbx), %rax
0x4000804944:  48 85 c0                 testq    %rax, %rax
0x4000804947:  74 04                    je       0x400080494d

----------------
IN: 
0x4000804949:  4c 89 70 08              movq     %r14, 8(%rax)
0x400080494d:  48 8b 05 6c 31 22 00     movq     0x22316c(%rip), %rax
0x4000804954:  48 85 c0                 testq    %rax, %rax
0x4000804957:  74 04                    je       0x400080495d

----------------
IN: 
0x400080495d:  41 c7 46 18 01 00 00 00  movl     $1, 0x18(%r14)
0x4000804965:  e8 06 d7 00 00           callq    0x4000812070

----------------
IN: 
0x4000812070:  f3 c3                    retq     

----------------
IN: 
0x400080496a:  90                       nop      
0x400080496b:  8b 15 9f 24 22 00        movl     0x22249f(%rip), %edx
0x4000804971:  85 d2                    testl    %edx, %edx
0x4000804973:  0f 85 49 12 00 00        jne      0x4000805bc2

----------------
IN: 
0x4000804979:  48 8b 85 48 ff ff ff     movq     -0xb8(%rbp), %rax
0x4000804980:  48 83 38 00              cmpq     $0, (%rax)
0x4000804984:  0f 85 62 01 00 00        jne      0x4000804aec

----------------
IN: 
0x400080498a:  48 8b 3d 37 22 22 00     movq     0x222237(%rip), %rdi
0x4000804991:  45 31 e4                 xorl     %r12d, %r12d
0x4000804994:  48 85 ff                 testq    %rdi, %rdi
0x4000804997:  74 35                    je       0x40008049ce

----------------
IN: 
0x40008049ce:  48 8d 3d eb ea 01 00     leaq     0x1eaeb(%rip), %rdi
0x40008049d5:  be 04 00 00 00           movl     $4, %esi
0x40008049da:  e8 21 79 01 00           callq    0x400081c300

----------------
IN: 
0x40008049df:  85 c0                    testl    %eax, %eax
0x40008049e1:  0f 84 b6 0f 00 00        je       0x400080599d

----------------
IN: 
0x40008049e7:  48 8b 85 48 ff ff ff     movq     -0xb8(%rbp), %rax
0x40008049ee:  31 f6                    xorl     %esi, %esi
0x40008049f0:  48 8b 10                 movq     (%rax), %rdx
0x40008049f3:  48 85 d2                 testq    %rdx, %rdx
0x40008049f6:  0f 85 43 0f 00 00        jne      0x400080593f

----------------
IN: 
0x40008049fc:  0f 31                    rdtsc    
0x40008049fe:  89 c0                    movl     %eax, %eax
0x4000804a00:  48 c1 e2 20              shlq     $0x20, %rdx
0x4000804a04:  45 31 f6                 xorl     %r14d, %r14d
0x4000804a07:  48 09 c2                 orq      %rax, %rdx
0x4000804a0a:  83 bd 68 ff ff ff 03     cmpl     $3, -0x98(%rbp)
0x4000804a11:  48 89 df                 movq     %rbx, %rdi
0x4000804a14:  49 89 d5                 movq     %rdx, %r13
0x4000804a17:  44 89 e2                 movl     %r12d, %edx
0x4000804a1a:  41 0f 94 c6              sete     %r14b
0x4000804a1e:  45 31 c0                 xorl     %r8d, %r8d
0x4000804a21:  44 89 f1                 movl     %r14d, %ecx
0x4000804a24:  e8 67 a5 00 00           callq    0x400080ef90

----------------
IN: 
0x400080ef90:  8d 42 02                 leal     2(%rdx), %eax
0x400080ef93:  55                       pushq    %rbp
0x400080ef94:  48 8d 04 40              leaq     (%rax, %rax, 2), %rax
0x400080ef98:  48 89 e5                 movq     %rsp, %rbp
0x400080ef9b:  41 57                    pushq    %r15
0x400080ef9d:  41 56                    pushq    %r14
0x400080ef9f:  41 55                    pushq    %r13
0x400080efa1:  48 8d 04 c5 1e 00 00 00  leaq     0x1e(, %rax, 8), %rax
0x400080efa9:  41 54                    pushq    %r12
0x400080efab:  53                       pushq    %rbx
0x400080efac:  48 c1 e8 04              shrq     $4, %rax
0x400080efb0:  48 81 ec e8 00 00 00     subq     $0xe8, %rsp
0x400080efb7:  44 89 85 fc fe ff ff     movl     %r8d, -0x104(%rbp)
0x400080efbe:  48 c1 e0 04              shlq     $4, %rax
0x400080efc2:  48 89 bd 38 ff ff ff     movq     %rdi, -0xc8(%rbp)
0x400080efc9:  89 8d 04 ff ff ff        movl     %ecx, -0xfc(%rbp)
0x400080efcf:  48 29 c4                 subq     %rax, %rsp
0x400080efd2:  4c 8d 44 24 0f           leaq     0xf(%rsp), %r8
0x400080efd7:  49 83 e0 f0              andq     $0xfffffff0, %r8
0x400080efdb:  49 8d 40 18              leaq     0x18(%r8), %rax
0x400080efdf:  4d 89 c7                 movq     %r8, %r15
0x400080efe2:  41 c7 00 00 00 00 00     movl     $0, (%r8)
0x400080efe9:  49 89 78 08              movq     %rdi, 8(%r8)
0x400080efed:  49 89 40 10              movq     %rax, 0x10(%r8)
0x400080eff1:  0f b6 87 14 03 00 00     movzbl   0x314(%rdi), %eax
0x400080eff8:  88 85 78 ff ff ff        movb     %al, -0x88(%rbp)
0x400080effe:  83 e0 9f                 andl     $0xffffffffffffff9f, %eax
0x400080f001:  83 c8 20                 orl      $0x20, %eax
0x400080f004:  85 d2                    testl    %edx, %edx
0x400080f006:  88 87 14 03 00 00        movb     %al, 0x314(%rdi)
0x400080f00c:  0f 84 50 0f 00 00        je       0x400080ff62

----------------
IN: 
0x400080ff62:  49 89 fd                 movq     %rdi, %r13
0x400080ff65:  31 c0                    xorl     %eax, %eax
0x400080ff67:  c7 85 20 ff ff ff 01 00  movl     $1, -0xe0(%rbp)
0x400080ff6f:  00 00
0x400080ff71:  e9 06 f1 ff ff           jmp      0x400080f07c

----------------
IN: 
0x400080f07c:  4c 01 c0                 addq     %r8, %rax
0x400080f07f:  48 c7 45 90 00 00 00 00  movq     $0, -0x70(%rbp)
0x400080f087:  4c 89 85 28 ff ff ff     movq     %r8, -0xd8(%rbp)
0x400080f08e:  48 89 85 68 ff ff ff     movq     %rax, -0x98(%rbp)
0x400080f095:  48 c7 40 10 00 00 00 00  movq     $0, 0x10(%rax)
0x400080f09d:  8b 05 7d 90 21 00        movl     0x21907d(%rip), %eax
0x400080f0a3:  48 c7 85 10 ff ff ff 00  movq     $0, -0xf0(%rbp)
0x400080f0ab:  00 00 00
0x400080f0ae:  c7 05 68 90 21 00 00 00  movl     $0, 0x219068(%rip)
0x400080f0b6:  00 00
0x400080f0b8:  48 c7 85 18 ff ff ff 00  movq     $0, -0xe8(%rbp)
0x400080f0c0:  00 00 00
0x400080f0c3:  4c 89 bd 08 ff ff ff     movq     %r15, -0xf8(%rbp)
0x400080f0ca:  89 85 00 ff ff ff        movl     %eax, -0x100(%rbp)
0x400080f0d0:  48 8d 45 a0              leaq     -0x60(%rbp), %rax
0x400080f0d4:  48 89 85 58 ff ff ff     movq     %rax, -0xa8(%rbp)
0x400080f0db:  48 8d 45 8f              leaq     -0x71(%rbp), %rax
0x400080f0df:  48 89 85 50 ff ff ff     movq     %rax, -0xb0(%rbp)
0x400080f0e6:  48 8d 45 90              leaq     -0x70(%rbp), %rax
0x400080f0ea:  48 89 85 48 ff ff ff     movq     %rax, -0xb8(%rbp)
0x400080f0f1:  48 8d 45 98              leaq     -0x68(%rbp), %rax
0x400080f0f5:  48 89 85 40 ff ff ff     movq     %rax, -0xc0(%rbp)
0x400080f0fc:  4c 89 c0                 movq     %r8, %rax
0x400080f0ff:  49 83 bd b8 02 00 00 00  cmpq     $0, 0x2b8(%r13)
0x400080f107:  c7 00 01 00 00 00        movl     $1, (%rax)
0x400080f10d:  48 c7 85 78 ff ff ff 00  movq     $0, -0x88(%rbp)
0x400080f115:  00 00 00
0x400080f118:  0f 84 5a 0b 00 00        je       0x400080fc78

----------------
IN: 
0x400080fc78:  49 83 bd b8 03 00 00 00  cmpq     $0, 0x3b8(%r13)
0x400080fc80:  0f 85 15 05 00 00        jne      0x400081019b

----------------
IN: 
0x400080fc86:  4c 39 ad 38 ff ff ff     cmpq     %r13, -0xc8(%rbp)
0x400080fc8d:  0f 84 08 05 00 00        je       0x400081019b

----------------
IN: 
0x400081019b:  48 c7 85 78 ff ff ff 00  movq     $0, -0x88(%rbp)
0x40008101a3:  00 00 00
0x40008101a6:  e9 73 ef ff ff           jmp      0x400080f11e

----------------
IN: 
0x400080f11e:  49 83 7d 48 00           cmpq     $0, 0x48(%r13)
0x400080f123:  0f 84 27 0b 00 00        je       0x400080fc50

----------------
IN: 
0x400080f129:  49 8b 45 68              movq     0x68(%r13), %rax
0x400080f12d:  4d 8b 65 10              movq     0x10(%r13), %r12
0x400080f131:  4c 89 6d a0              movq     %r13, -0x60(%rbp)
0x400080f135:  48 8b 40 08              movq     8(%rax), %rax
0x400080f139:  48 89 85 70 ff ff ff     movq     %rax, -0x90(%rbp)
0x400080f140:  48 89 45 b0              movq     %rax, -0x50(%rbp)
0x400080f144:  8b 85 04 ff ff ff        movl     -0xfc(%rbp), %eax
0x400080f14a:  89 45 a8                 movl     %eax, -0x58(%rbp)
0x400080f14d:  8b 85 fc fe ff ff        movl     -0x104(%rbp), %eax
0x400080f153:  89 45 ac                 movl     %eax, -0x54(%rbp)
0x400080f156:  49 8b 04 24              movq     (%r12), %rax
0x400080f15a:  48 85 c0                 testq    %rax, %rax
0x400080f15d:  0f 84 09 0b 00 00        je       0x400080fc6c

----------------
IN: 
0x400080f163:  48 8b b5 28 ff ff ff     movq     -0xd8(%rbp), %rsi
0x400080f16a:  45 31 ff                 xorl     %r15d, %r15d
0x400080f16d:  48 89 f3                 movq     %rsi, %rbx
0x400080f170:  eb 28                    jmp      0x400080f19a

----------------
IN: 
0x400080f19a:  48 83 f8 01              cmpq     $1, %rax
0x400080f19e:  0f 85 bc 00 00 00        jne      0x400080f260

----------------
IN: 
0x400080f1a4:  4c 8b b5 70 ff ff ff     movq     -0x90(%rbp), %r14
0x400080f1ab:  4d 03 74 24 08           addq     8(%r12), %r14
0x400080f1b0:  be 24 00 00 00           movl     $0x24, %esi
0x400080f1b5:  4c 89 f7                 movq     %r14, %rdi
0x400080f1b8:  e8 a3 d6 00 00           callq    0x400081c860

----------------
IN: 
0x400081c860:  66 0f 6e ce              movd     %esi, %xmm1
0x400081c864:  89 f8                    movl     %edi, %eax
0x400081c866:  25 ff 0f 00 00           andl     $0xfff, %eax
0x400081c86b:  66 0f 60 c9              punpcklbw %xmm1, %xmm1
0x400081c86f:  3d c0 0f 00 00           cmpl     $0xfc0, %eax
0x400081c874:  66 0f 61 c9              punpcklwd %xmm1, %xmm1
0x400081c878:  66 0f 70 c9 00           pshufd   $0, %xmm1, %xmm1
0x400081c87d:  0f 8f 5d 01 00 00        jg       0x400081c9e0

----------------
IN: 
0x400081c883:  f3 0f 6f 07              movdqu   (%rdi), %xmm0
0x400081c887:  66 0f ef db              pxor     %xmm3, %xmm3
0x400081c88b:  66 0f 6f e0              movdqa   %xmm0, %xmm4
0x400081c88f:  66 0f 74 c1              pcmpeqb  %xmm1, %xmm0
0x400081c893:  66 0f 74 e3              pcmpeqb  %xmm3, %xmm4
0x400081c897:  66 0f eb c4              por      %xmm4, %xmm0
0x400081c89b:  66 0f d7 c0              pmovmskb %xmm0, %eax
0x400081c89f:  85 c0                    testl    %eax, %eax
0x400081c8a1:  74 15                    je       0x400081c8b8

----------------
IN: 
0x400081c8a3:  0f bc c0                 bsfl     %eax, %eax
0x400081c8a6:  ba 00 00 00 00           movl     $0, %edx
0x400081c8ab:  48 8d 04 07              leaq     (%rdi, %rax), %rax
0x400081c8af:  40 38 30                 cmpb     %sil, (%rax)
0x400081c8b2:  48 0f 45 c2              cmovneq  %rdx, %rax
0x400081c8b6:  c3                       retq     

----------------
IN: 
0x400080f1bd:  48 85 c0                 testq    %rax, %rax
0x400080f1c0:  0f 85 77 02 00 00        jne      0x400080f43d

----------------
IN: 
0x400080f1c6:  4c 8b 85 58 ff ff ff     movq     -0xa8(%rbp), %r8
0x400080f1cd:  48 8b 95 50 ff ff ff     movq     -0xb0(%rbp), %rdx
0x400080f1d4:  48 8d 0d a5 f9 ff ff     leaq     -0x65b(%rip), %rcx
0x400080f1db:  48 8b b5 48 ff ff ff     movq     -0xb8(%rbp), %rsi
0x400080f1e2:  48 8b bd 40 ff ff ff     movq     -0xc0(%rbp), %rdi
0x400080f1e9:  4c 89 75 b8              movq     %r14, -0x48(%rbp)
0x400080f1ed:  e8 0e 23 00 00           callq    0x4000811500

----------------
IN: 
0x4000811500:  53                       pushq    %rbx
0x4000811501:  48 81 ec 40 01 00 00     subq     $0x140, %rsp
0x4000811508:  48 8d 44 24 4c           leaq     0x4c(%rsp), %rax
0x400081150d:  48 89 7c 24 18           movq     %rdi, 0x18(%rsp)
0x4000811512:  48 89 7c 24 50           movq     %rdi, 0x50(%rsp)
0x4000811517:  48 89 74 24 20           movq     %rsi, 0x20(%rsp)
0x400081151c:  48 89 74 24 58           movq     %rsi, 0x58(%rsp)
0x4000811521:  48 89 4c 24 30           movq     %rcx, 0x30(%rsp)
0x4000811526:  4c 89 44 24 38           movq     %r8, 0x38(%rsp)
0x400081152b:  48 89 54 24 28           movq     %rdx, 0x28(%rsp)
0x4000811530:  48 89 54 24 60           movq     %rdx, 0x60(%rsp)
0x4000811535:  48 89 44 24 68           movq     %rax, 0x68(%rsp)
0x400081153a:  ff 15 90 64 21 00        callq    *0x216490(%rip)

----------------
IN: 
0x4000801c80:  48 8d 05 39 63 22 00     leaq     0x226339(%rip), %rax
0x4000801c87:  c3                       retq     

----------------
IN: 
0x4000811540:  48 8d 7c 24 50           leaq     0x50(%rsp), %rdi
0x4000811545:  48 8b 18                 movq     (%rax), %rbx
0x4000811548:  31 f6                    xorl     %esi, %esi
0x400081154a:  48 89 44 24 08           movq     %rax, 8(%rsp)
0x400081154f:  48 89 38                 movq     %rdi, (%rax)
0x4000811552:  48 8d 7c 24 70           leaq     0x70(%rsp), %rdi
0x4000811557:  48 89 5c 24 10           movq     %rbx, 0x10(%rsp)
0x400081155c:  e8 ef af 00 00           callq    0x400081c550

----------------
IN: 
0x400081c550:  48 89 1f                 movq     %rbx, (%rdi)
0x400081c553:  48 89 e8                 movq     %rbp, %rax
0x400081c556:  48 33 05 13 a7 20 00     xorq     0x20a713(%rip), %rax
0x400081c55d:  48 c1 c0 11              rolq     $0x11, %rax
0x400081c561:  48 89 47 08              movq     %rax, 8(%rdi)
0x400081c565:  4c 89 67 10              movq     %r12, 0x10(%rdi)
0x400081c569:  4c 89 6f 18              movq     %r13, 0x18(%rdi)
0x400081c56d:  4c 89 77 20              movq     %r14, 0x20(%rdi)
0x400081c571:  4c 89 7f 28              movq     %r15, 0x28(%rdi)
0x400081c575:  48 8d 54 24 08           leaq     8(%rsp), %rdx
0x400081c57a:  48 33 15 ef a6 20 00     xorq     0x20a6ef(%rip), %rdx
0x400081c581:  48 c1 c2 11              rolq     $0x11, %rdx
0x400081c585:  48 89 57 30              movq     %rdx, 0x30(%rdi)
0x400081c589:  48 8b 04 24              movq     (%rsp), %rax
0x400081c58d:  90                       nop      
0x400081c58e:  48 33 05 db a6 20 00     xorq     0x20a6db(%rip), %rax
0x400081c595:  48 c1 c0 11              rolq     $0x11, %rax
0x400081c599:  48 89 47 38              movq     %rax, 0x38(%rdi)
0x400081c59d:  31 c0                    xorl     %eax, %eax
0x400081c59f:  c3                       retq     

----------------
IN: 
0x4000811561:  85 c0                    testl    %eax, %eax
0x4000811563:  75 4b                    jne      0x40008115b0

----------------
IN: 
0x4000811565:  89 c3                    movl     %eax, %ebx
0x4000811567:  48 8b 7c 24 38           movq     0x38(%rsp), %rdi
0x400081156c:  4c 8b 4c 24 30           movq     0x30(%rsp), %r9
0x4000811571:  41 ff d1                 callq    *%r9

----------------
IN: 
0x400080eb80:  53                       pushq    %rbx
0x400080eb81:  48 89 fb                 movq     %rdi, %rbx
0x400080eb84:  48 8b 3f                 movq     (%rdi), %rdi
0x400080eb87:  8b 4b 08                 movl     8(%rbx), %ecx
0x400080eb8a:  48 8b 73 18              movq     0x18(%rbx), %rsi
0x400080eb8e:  44 8b 43 0c              movl     0xc(%rbx), %r8d
0x400080eb92:  0f b6 87 14 03 00 00     movzbl   0x314(%rdi), %eax
0x400080eb99:  4c 8b 4f 30              movq     0x30(%rdi), %r9
0x400080eb9d:  83 e0 03                 andl     $3, %eax
0x400080eba0:  84 c0                    testb    %al, %al
0x400080eba2:  0f b6 d0                 movzbl   %al, %edx
0x400080eba5:  b8 01 00 00 00           movl     $1, %eax
0x400080ebaa:  0f 44 d0                 cmovel   %eax, %edx
0x400080ebad:  e8 2e ae ff ff           callq    0x40008099e0

----------------
IN: 
0x40008099e0:  41 57                    pushq    %r15
0x40008099e2:  41 56                    pushq    %r14
0x40008099e4:  41 55                    pushq    %r13
0x40008099e6:  41 54                    pushq    %r12
0x40008099e8:  55                       pushq    %rbp
0x40008099e9:  53                       pushq    %rbx
0x40008099ea:  48 81 ec c8 03 00 00     subq     $0x3c8, %rsp
0x40008099f1:  4d 85 c9                 testq    %r9, %r9
0x40008099f4:  89 54 24 04              movl     %edx, 4(%rsp)
0x40008099f8:  89 4c 24 38              movl     %ecx, 0x38(%rsp)
0x40008099fc:  0f 88 67 0b 00 00        js       0x400080a569

----------------
IN: 
0x4000809a02:  4c 39 0d 37 df 21 00     cmpq     %r9, 0x21df37(%rip)
0x4000809a09:  4c 89 cd                 movq     %r9, %rbp
0x4000809a0c:  4c 8d 35 2d d6 21 00     leaq     0x21d62d(%rip), %r14
0x4000809a13:  0f 86 8d 0b 00 00        jbe      0x400080a5a6

----------------
IN: 
0x4000809a19:  4b 8d 04 c9              leaq     (%r9, %r9, 8), %rax
0x4000809a1d:  49 89 fc                 movq     %rdi, %r12
0x4000809a20:  48 89 f3                 movq     %rsi, %rbx
0x4000809a23:  45 89 c5                 movl     %r8d, %r13d
0x4000809a26:  48 c1 e0 04              shlq     $4, %rax
0x4000809a2a:  4d 8b 3c 06              movq     (%r14, %rax), %r15
0x4000809a2e:  4d 85 ff                 testq    %r15, %r15
0x4000809a31:  75 1a                    jne      0x4000809a4d

----------------
IN: 
0x4000809a4d:  41 0f b6 87 15 03 00 00  movzbl   0x315(%r15), %eax
0x4000809a55:  89 c2                    movl     %eax, %edx
0x4000809a57:  c0 e8 05                 shrb     $5, %al
0x4000809a5a:  d0 ea                    shrb     $1, %dl
0x4000809a5c:  09 d0                    orl      %edx, %eax
0x4000809a5e:  a8 01                    testb    $1, %al
0x4000809a60:  75 de                    jne      0x4000809a40

----------------
IN: 
0x4000809a62:  4c 89 fe                 movq     %r15, %rsi
0x4000809a65:  48 89 df                 movq     %rbx, %rdi
0x4000809a68:  e8 23 8f 00 00           callq    0x4000812990

----------------
IN: 
0x4000812990:  55                       pushq    %rbp
0x4000812991:  53                       pushq    %rbx
0x4000812992:  48 89 f3                 movq     %rsi, %rbx
0x4000812995:  48 89 fd                 movq     %rdi, %rbp
0x4000812998:  48 83 ec 08              subq     $8, %rsp
0x400081299c:  48 8b 76 08              movq     8(%rsi), %rsi
0x40008129a0:  e8 db a0 00 00           callq    0x400081ca80

----------------
IN: 
0x400081caec:  41 89 d0                 movl     %edx, %r8d
0x400081caef:  91                       xchgl    %ecx, %eax
0x400081caf0:  48 87 f7                 xchgq    %rsi, %rdi
0x400081caf3:  4c 8d 48 0f              leaq     0xf(%rax), %r9
0x400081caf7:  49 29 c9                 subq     %rcx, %r9
0x400081cafa:  4c 8d 15 af 39 00 00     leaq     0x39af(%rip), %r10
0x400081cb01:  4f 63 0c 8a              movslq   (%r10, %r9, 4), %r9
0x400081cb05:  4f 8d 14 0a              leaq     (%r10, %r9), %r10
0x400081cb09:  41 ff e2                 jmpq     *%r10

----------------
IN: 
0x400081dd30:  66 0f ef c0              pxor     %xmm0, %xmm0
0x400081dd34:  66 0f 6f 17              movdqa   (%rdi), %xmm2
0x400081dd38:  66 0f 6f 0e              movdqa   (%rsi), %xmm1
0x400081dd3c:  66 0f 74 c1              pcmpeqb  %xmm1, %xmm0
0x400081dd40:  66 0f 73 fa 01           pslldq   $1, %xmm2
0x400081dd45:  66 0f 74 d1              pcmpeqb  %xmm1, %xmm2
0x400081dd49:  66 0f f8 d0              psubb    %xmm0, %xmm2
0x400081dd4d:  66 44 0f d7 ca           pmovmskb %xmm2, %r9d
0x400081dd52:  d3 ea                    shrl     %cl, %edx
0x400081dd54:  41 d3 e9                 shrl     %cl, %r9d
0x400081dd57:  44 29 ca                 subl     %r9d, %edx
0x400081dd5a:  0f 85 15 01 00 00        jne      0x400081de75

----------------
IN: 
0x400081de82:  48 87 f7                 xchgq    %rsi, %rdi
0x400081de85:  90                       nop      
0x400081de86:  66 2e 0f 1f 84 00 00 00  nopw     %cs:(%rax, %rax)
0x400081de8e:  00 00
0x400081de90:  48 0f bc d2              bsfq     %rdx, %rdx
0x400081de94:  0f b6 0c 16              movzbl   (%rsi, %rdx), %ecx
0x400081de98:  0f b6 04 17              movzbl   (%rdi, %rdx), %eax
0x400081de9c:  29 c8                    subl     %ecx, %eax
0x400081de9e:  c3                       retq     

----------------
IN: 
0x40008129a5:  85 c0                    testl    %eax, %eax
0x40008129a7:  ba 01 00 00 00           movl     $1, %edx
0x40008129ac:  74 2f                    je       0x40008129dd

----------------
IN: 
0x40008129ae:  48 8b 5b 38              movq     0x38(%rbx), %rbx
0x40008129b2:  48 85 db                 testq    %rbx, %rbx
0x40008129b5:  75 12                    jne      0x40008129c9

----------------
IN: 
0x40008129c9:  48 8b 33                 movq     (%rbx), %rsi
0x40008129cc:  48 89 ef                 movq     %rbp, %rdi
0x40008129cf:  e8 ac a0 00 00           callq    0x400081ca80

----------------
IN: 
0x40008129d4:  85 c0                    testl    %eax, %eax
0x40008129d6:  75 e8                    jne      0x40008129c0

----------------
IN: 
0x40008129c0:  48 8b 5b 08              movq     8(%rbx), %rbx
0x40008129c4:  48 85 db                 testq    %rbx, %rbx
0x40008129c7:  74 27                    je       0x40008129f0

----------------
IN: 
0x40008129f0:  48 83 c4 08              addq     $8, %rsp
0x40008129f4:  31 d2                    xorl     %edx, %edx
0x40008129f6:  89 d0                    movl     %edx, %eax
0x40008129f8:  5b                       popq     %rbx
0x40008129f9:  5d                       popq     %rbp
0x40008129fa:  c3                       retq     

----------------
IN: 
0x4000809a6d:  85 c0                    testl    %eax, %eax
0x4000809a6f:  0f 85 bb 01 00 00        jne      0x4000809c30

----------------
IN: 
0x4000809a75:  41 f6 87 15 03 00 00 01  testb    $1, 0x315(%r15)
0x4000809a7d:  75 c1                    jne      0x4000809a40

----------------
IN: 
0x4000809a7f:  49 8b 87 b0 00 00 00     movq     0xb0(%r15), %rax
0x4000809a86:  48 85 c0                 testq    %rax, %rax
0x4000809a89:  74 b5                    je       0x4000809a40

----------------
IN: 
0x4000809a40:  4d 8b 7f 18              movq     0x18(%r15), %r15
0x4000809a44:  4d 85 ff                 testq    %r15, %r15
0x4000809a47:  0f 84 ab 00 00 00        je       0x4000809af8

----------------
IN: 
0x400081ca96:  66 0f 12 0f              movlpd   (%rdi), %xmm1
0x400081ca9a:  66 0f 12 16              movlpd   (%rsi), %xmm2
0x400081ca9e:  66 0f 16 4f 08           movhpd   8(%rdi), %xmm1
0x400081caa3:  66 0f 16 56 08           movhpd   8(%rsi), %xmm2
0x400081caa8:  66 0f ef c0              pxor     %xmm0, %xmm0
0x400081caac:  66 0f 74 c1              pcmpeqb  %xmm1, %xmm0
0x400081cab0:  66 0f 74 ca              pcmpeqb  %xmm2, %xmm1
0x400081cab4:  66 0f f8 c8              psubb    %xmm0, %xmm1
0x400081cab8:  66 0f d7 d1              pmovmskb %xmm1, %edx
0x400081cabc:  81 ea ff ff 00 00        subl     $0xffff, %edx
0x400081cac2:  0f 85 c8 13 00 00        jne      0x400081de90

----------------
IN: 
0x4000809a8b:  49 8b 57 68              movq     0x68(%r15), %rdx
0x4000809a8f:  48 8b 70 08              movq     8(%rax), %rsi
0x4000809a93:  48 89 df                 movq     %rbx, %rdi
0x4000809a96:  48 03 72 08              addq     8(%rdx), %rsi
0x4000809a9a:  e8 e1 2f 01 00           callq    0x400081ca80

----------------
IN: 
0x4000809a9f:  85 c0                    testl    %eax, %eax
0x4000809aa1:  75 9d                    jne      0x4000809a40

----------------
IN: 
0x4000809af8:  4d 85 e4                 testq    %r12, %r12
0x4000809afb:  0f 95 44 24 08           setne    8(%rsp)
0x4000809b00:  f6 05 99 d1 21 00 40     testb    $0x40, 0x21d199(%rip)
0x4000809b07:  0f b6 44 24 08           movzbl   8(%rsp), %eax
0x4000809b0c:  74 3d                    je       0x4000809b4b

----------------
IN: 
0x4000809b4b:  8b 15 bf d2 21 00        movl     0x21d2bf(%rip), %edx
0x4000809b51:  48 c7 44 24 10 00 00 00  movq     $0, 0x10(%rsp)
0x4000809b59:  00
0x4000809b5a:  85 d2                    testl    %edx, %edx
0x4000809b5c:  0f 85 4e 04 00 00        jne      0x4000809fb0

----------------
IN: 
0x4000809b62:  be 2f 00 00 00           movl     $0x2f, %esi
0x4000809b67:  48 89 df                 movq     %rbx, %rdi
0x4000809b6a:  c6 44 24 5f 00           movb     $0, 0x5f(%rsp)
0x4000809b6f:  e8 ec 2c 01 00           callq    0x400081c860

----------------
IN: 
0x4000809b74:  48 85 c0                 testq    %rax, %rax
0x4000809b77:  0f 84 b2 01 00 00        je       0x4000809d2f

----------------
IN: 
0x4000809d2f:  48 89 df                 movq     %rbx, %rdi
0x4000809d32:  e8 d9 41 01 00           callq    0x400081df10

----------------
IN: 
0x4000809d37:  48 83 c0 01              addq     $1, %rax
0x4000809d3b:  f6 05 5e cf 21 00 01     testb    $1, 0x21cf5e(%rip)
0x4000809d42:  48 89 44 24 18           movq     %rax, 0x18(%rsp)
0x4000809d47:  0f 85 67 06 00 00        jne      0x400080a3b4

----------------
IN: 
0x4000809d4d:  4d 85 e4                 testq    %r12, %r12
0x4000809d50:  0f 84 63 01 00 00        je       0x4000809eb9

----------------
IN: 
0x4000809d56:  49 83 bc 24 28 01 00 00  cmpq     $0, 0x128(%r12)
0x4000809d5e:  00
0x4000809d5f:  0f 84 54 01 00 00        je       0x4000809eb9

----------------
IN: 
0x4000809eb9:  48 8b 05 80 d1 21 00     movq     0x21d180(%rip), %rax
0x4000809ec0:  4d 85 e4                 testq    %r12, %r12
0x4000809ec3:  48 89 44 24 30           movq     %rax, 0x30(%rsp)
0x4000809ec8:  0f 84 95 03 00 00        je       0x400080a263

----------------
IN: 
0x4000809ece:  48 8d 44 24 70           leaq     0x70(%rsp), %rax
0x4000809ed3:  48 89 6c 24 40           movq     %rbp, 0x40(%rsp)
0x4000809ed8:  c6 44 24 3f 00           movb     $0, 0x3f(%rsp)
0x4000809edd:  4c 89 e5                 movq     %r12, %rbp
0x4000809ee0:  48 89 44 24 20           movq     %rax, 0x20(%rsp)
0x4000809ee5:  48 8d 44 24 60           leaq     0x60(%rsp), %rax
0x4000809eea:  48 89 44 24 28           movq     %rax, 0x28(%rsp)
0x4000809eef:  48 8d 44 24 5f           leaq     0x5f(%rsp), %rax
0x4000809ef4:  49 89 c7                 movq     %rax, %r15
0x4000809ef7:  eb 57                    jmp      0x4000809f50

----------------
IN: 
0x4000809f50:  48 8b 85 18 03 00 00     movq     0x318(%rbp), %rax
0x4000809f57:  4c 8d 9d 18 03 00 00     leaq     0x318(%rbp), %r11
0x4000809f5e:  48 83 f8 ff              cmpq     $0xff, %rax
0x4000809f62:  74 dc                    je       0x4000809f40

----------------
IN: 
0x4000809f40:  48 8b ad d8 02 00 00     movq     0x2d8(%rbp), %rbp
0x4000809f47:  48 85 ed                 testq    %rbp, %rbp
0x4000809f4a:  0f 84 03 03 00 00        je       0x400080a253

----------------
IN: 
0x400080a253:  80 7c 24 3f 00           cmpb     $0, 0x3f(%rsp)
0x400080a258:  48 8b 6c 24 40           movq     0x40(%rsp), %rbp
0x400080a25d:  0f 85 6a 01 00 00        jne      0x400080a3cd

----------------
IN: 
0x400080a263:  48 8b 4c 24 30           movq     0x30(%rsp), %rcx
0x400080a268:  48 85 c9                 testq    %rcx, %rcx
0x400080a26b:  0f 84 f4 fa ff ff        je       0x4000809d65

----------------
IN: 
0x400080a271:  0f b6 81 14 03 00 00     movzbl   0x314(%rcx), %eax
0x400080a278:  88 44 24 20              movb     %al, 0x20(%rsp)
0x400080a27c:  83 e0 03                 andl     $3, %eax
0x400080a27f:  3c 02                    cmpb     $2, %al
0x400080a281:  0f 84 de fa ff ff        je       0x4000809d65

----------------
IN: 
0x400080a287:  48 8b 81 18 03 00 00     movq     0x318(%rcx), %rax
0x400080a28e:  4c 8d 91 18 03 00 00     leaq     0x318(%rcx), %r10
0x400080a295:  48 83 f8 ff              cmpq     $0xff, %rax
0x400080a299:  0f 84 c6 fa ff ff        je       0x4000809d65

----------------
IN: 
0x4000809d65:  48 83 3d e3 d0 21 00 ff  cmpq     $-1, 0x21d0e3(%rip)
0x4000809d6d:  0f 84 11 07 00 00        je       0x400080a484

----------------
IN: 
0x400080a484:  4d 85 e4                 testq    %r12, %r12
0x400080a487:  0f 85 36 f9 ff ff        jne      0x4000809dc3

----------------
IN: 
0x4000809dc3:  49 8b 84 24 a8 03 00 00  movq     0x3a8(%r12), %rax
0x4000809dcb:  4d 8d bc 24 a8 03 00 00  leaq     0x3a8(%r12), %r15
0x4000809dd3:  48 83 f8 ff              cmpq     $0xff, %rax
0x4000809dd7:  0f 84 62 03 00 00        je       0x400080a13f

----------------
IN: 
0x400080a13f:  41 f7 c5 00 00 00 04     testl    $0x4000000, %r13d
0x400080a146:  48 c7 44 24 60 00 00 00  movq     $0, 0x60(%rsp)
0x400080a14e:  00
0x400080a14f:  0f 85 f1 03 00 00        jne      0x400080a546

----------------
IN: 
0x400080a155:  44 8b 0d 64 cb 21 00     movl     0x21cb64(%rip), %r9d
0x400080a15c:  45 85 c9                 testl    %r9d, %r9d
0x400080a15f:  75 73                    jne      0x400080a1d4

----------------
IN: 
0x400080a161:  48 89 df                 movq     %rbx, %rdi
0x400080a164:  e8 27 ef 00 00           callq    0x4000819090

----------------
IN: 
0x4000819090:  55                       pushq    %rbp
0x4000819091:  48 89 e5                 movq     %rsp, %rbp
0x4000819094:  41 57                    pushq    %r15
0x4000819096:  41 56                    pushq    %r14
0x4000819098:  41 55                    pushq    %r13
0x400081909a:  41 54                    pushq    %r12
0x400081909c:  53                       pushq    %rbx
0x400081909d:  48 89 fb                 movq     %rdi, %rbx
0x40008190a0:  48 83 ec 48              subq     $0x48, %rsp
0x40008190a4:  f6 05 f5 db 20 00 01     testb    $1, 0x20dbf5(%rip)
0x40008190ab:  0f 85 2f 06 00 00        jne      0x40008196e0

----------------
IN: 
0x40008190b1:  4c 8b 25 f8 ef 20 00     movq     0x20eff8(%rip), %r12
0x40008190b8:  4d 85 e4                 testq    %r12, %r12
0x40008190bb:  0f 84 3f 02 00 00        je       0x4000819300

----------------
IN: 
0x4000819300:  48 8d 35 99 ed 20 00     leaq     0x20ed99(%rip), %rsi
0x4000819307:  48 8d 3d a3 7e 00 00     leaq     0x7ea3(%rip), %rdi
0x400081930e:  ba 01 00 00 00           movl     $1, %edx
0x4000819313:  e8 e8 93 ff ff           callq    0x4000812700

----------------
IN: 
0x4000812700:  41 55                    pushq    %r13
0x4000812702:  41 54                    pushq    %r12
0x4000812704:  31 c0                    xorl     %eax, %eax
0x4000812706:  55                       pushq    %rbp
0x4000812707:  53                       pushq    %rbx
0x4000812708:  49 89 f4                 movq     %rsi, %r12
0x400081270b:  be 00 00 08 00           movl     $0x80000, %esi
0x4000812710:  41 89 d5                 movl     %edx, %r13d
0x4000812713:  48 c7 c5 ff ff ff ff     movq     $-1, %rbp
0x400081271a:  48 81 ec 98 00 00 00     subq     $0x98, %rsp
0x4000812721:  e8 7a 9b 00 00           callq    0x400081c2a0

----------------
IN: 
0x400081c2a0:  b8 02 00 00 00           movl     $2, %eax
0x400081c2a5:  0f 05                    syscall  

----------------
IN: 
0x400081c2a7:  48 3d 01 f0 ff ff        cmpq     $-0xfff, %rax
0x400081c2ad:  73 01                    jae      0x400081c2b0

----------------
IN: 
0x400081c2af:  c3                       retq     

----------------
IN: 
0x4000812726:  85 c0                    testl    %eax, %eax
0x4000812728:  78 31                    js       0x400081275b

----------------
IN: 
0x400081272a:  48 89 e2                 movq     %rsp, %rdx
0x400081272d:  89 c6                    movl     %eax, %esi
0x400081272f:  bf 01 00 00 00           movl     $1, %edi
0x4000812734:  89 c3                    movl     %eax, %ebx
0x4000812736:  e8 e5 9a 00 00           callq    0x400081c220

----------------
IN: 
0x400081c220:  83 ff 01                 cmpl     $1, %edi
0x400081c223:  89 f0                    movl     %esi, %eax
0x400081c225:  77 29                    ja       0x400081c250

----------------
IN: 
0x400081c227:  48 63 f8                 movslq   %eax, %rdi
0x400081c22a:  48 89 d6                 movq     %rdx, %rsi
0x400081c22d:  b8 05 00 00 00           movl     $5, %eax
0x400081c232:  0f 05                    syscall  

----------------
IN: 
0x400081c234:  48 3d 00 f0 ff ff        cmpq     $-0x1000, %rax
0x400081c23a:  77 04                    ja       0x400081c240

----------------
IN: 
0x400081c23c:  f3 c3                    retq     

----------------
IN: 
0x400081273b:  85 c0                    testl    %eax, %eax
0x400081273d:  78 0e                    js       0x400081274d

----------------
IN: 
0x400081273f:  48 8b 74 24 30           movq     0x30(%rsp), %rsi
0x4000812744:  48 85 f6                 testq    %rsi, %rsi
0x4000812747:  49 89 34 24              movq     %rsi, (%r12)
0x400081274b:  75 23                    jne      0x4000812770

----------------
IN: 
0x4000812770:  45 31 c9                 xorl     %r9d, %r9d
0x4000812773:  41 89 d8                 movl     %ebx, %r8d
0x4000812776:  b9 02 00 00 00           movl     $2, %ecx
0x400081277b:  44 89 ea                 movl     %r13d, %edx
0x400081277e:  31 ff                    xorl     %edi, %edi
0x4000812780:  e8 3b 9c 00 00           callq    0x400081c3c0

----------------
IN: 
0x400081c3c0:  48 85 ff                 testq    %rdi, %rdi
0x400081c3c3:  41 57                    pushq    %r15
0x400081c3c5:  4d 89 cf                 movq     %r9, %r15
0x400081c3c8:  41 56                    pushq    %r14
0x400081c3ca:  41 89 ce                 movl     %ecx, %r14d
0x400081c3cd:  41 55                    pushq    %r13
0x400081c3cf:  49 89 f5                 movq     %rsi, %r13
0x400081c3d2:  41 54                    pushq    %r12
0x400081c3d4:  49 89 fc                 movq     %rdi, %r12
0x400081c3d7:  55                       pushq    %rbp
0x400081c3d8:  53                       pushq    %rbx
0x400081c3d9:  74 35                    je       0x400081c410

----------------
IN: 
0x400081c410:  f6 c2 04                 testb    $4, %dl
0x400081c413:  74 c6                    je       0x400081c3db

----------------
IN: 
0x400081c3db:  49 63 e8                 movslq   %r8d, %rbp
0x400081c3de:  48 63 da                 movslq   %edx, %rbx
0x400081c3e1:  4d 89 f9                 movq     %r15, %r9
0x400081c3e4:  49 89 e8                 movq     %rbp, %r8
0x400081c3e7:  4d 63 d6                 movslq   %r14d, %r10
0x400081c3ea:  48 89 da                 movq     %rbx, %rdx
0x400081c3ed:  4c 89 ee                 movq     %r13, %rsi
0x400081c3f0:  4c 89 e7                 movq     %r12, %rdi
0x400081c3f3:  b8 09 00 00 00           movl     $9, %eax
0x400081c3f8:  0f 05                    syscall  

----------------
IN: 
0x400081c3fa:  48 3d 00 f0 ff ff        cmpq     $-0x1000, %rax
0x400081c400:  77 4e                    ja       0x400081c450

----------------
IN: 
0x400081c402:  5b                       popq     %rbx
0x400081c403:  5d                       popq     %rbp
0x400081c404:  41 5c                    popq     %r12
0x400081c406:  41 5d                    popq     %r13
0x400081c408:  41 5e                    popq     %r14
0x400081c40a:  41 5f                    popq     %r15
0x400081c40c:  c3                       retq     

----------------
IN: 
0x4000812785:  48 89 c5                 movq     %rax, %rbp
0x4000812788:  eb ca                    jmp      0x4000812754

----------------
IN: 
0x4000812754:  89 df                    movl     %ebx, %edi
0x4000812756:  e8 45 9c 00 00           callq    0x400081c3a0

----------------
IN: 
0x400081c3a0:  b8 03 00 00 00           movl     $3, %eax
0x400081c3a5:  0f 05                    syscall  

----------------
IN: 
0x400081c3a7:  48 3d 01 f0 ff ff        cmpq     $-0xfff, %rax
0x400081c3ad:  73 01                    jae      0x400081c3b0

----------------
IN: 
0x400081c3af:  c3                       retq     

----------------
IN: 
0x400081275b:  48 81 c4 98 00 00 00     addq     $0x98, %rsp
0x4000812762:  48 89 e8                 movq     %rbp, %rax
0x4000812765:  5b                       popq     %rbx
0x4000812766:  5d                       popq     %rbp
0x4000812767:  41 5c                    popq     %r12
0x4000812769:  41 5d                    popq     %r13
0x400081276b:  c3                       retq     

----------------
IN: 
0x4000819318:  48 83 f8 ff              cmpq     $0xff, %rax
0x400081931c:  49 89 c4                 movq     %rax, %r12
0x400081931f:  0f 84 09 04 00 00        je       0x400081972e

----------------
IN: 
0x4000819325:  4c 8b 35 74 ed 20 00     movq     0x20ed74(%rip), %r14
0x400081932c:  49 83 fe 10              cmpq     $0x10, %r14
0x4000819330:  0f 86 ed 03 00 00        jbe      0x4000819723

----------------
IN: 
0x4000819336:  48 8d 35 97 7e 00 00     leaq     0x7e97(%rip), %rsi
0x400081933d:  ba 0b 00 00 00           movl     $0xb, %edx
0x4000819342:  48 89 c7                 movq     %rax, %rdi
0x4000819345:  e8 d6 52 00 00           callq    0x400081e620

----------------
IN: 
0x400081e620:  48 85 d2                 testq    %rdx, %rdx
0x400081e623:  0f 84 f7 00 00 00        je       0x400081e720

----------------
IN: 
0x400081e629:  48 83 fa 01              cmpq     $1, %rdx
0x400081e62d:  0f 8e bd 00 00 00        jle      0x400081e6f0

----------------
IN: 
0x400081e633:  48 29 fe                 subq     %rdi, %rsi
0x400081e636:  49 89 d2                 movq     %rdx, %r10
0x400081e639:  49 83 fa 20              cmpq     $0x20, %r10
0x400081e63d:  0f 8d e0 00 00 00        jge      0x400081e723

----------------
IN: 
0x400081e643:  49 f7 c2 01 00 00 00     testq    $1, %r10
0x400081e64a:  74 1d                    je       0x400081e669

----------------
IN: 
0x400081e64c:  0f b6 07                 movzbl   (%rdi), %eax
0x400081e64f:  0f b6 14 37              movzbl   (%rdi, %rsi), %edx
0x400081e653:  49 83 ea 01              subq     $1, %r10
0x400081e657:  0f 84 99 00 00 00        je       0x400081e6f6

----------------
IN: 
0x400081e65d:  48 83 c7 01              addq     $1, %rdi
0x400081e661:  29 d0                    subl     %edx, %eax
0x400081e663:  0f 85 8f 00 00 00        jne      0x400081e6f8

----------------
IN: 
0x400081e669:  49 f7 c2 02 00 00 00     testq    $2, %r10
0x400081e670:  74 15                    je       0x400081e687

----------------
IN: 
0x400081e672:  0f b7 07                 movzwl   (%rdi), %eax
0x400081e675:  0f b7 14 37              movzwl   (%rdi, %rsi), %edx
0x400081e679:  49 83 ea 02              subq     $2, %r10
0x400081e67d:  74 7a                    je       0x400081e6f9

----------------
IN: 
0x400081e67f:  48 83 c7 02              addq     $2, %rdi
0x400081e683:  39 d0                    cmpl     %edx, %eax
0x400081e685:  75 72                    jne      0x400081e6f9

----------------
IN: 
0x400081e687:  49 f7 c2 04 00 00 00     testq    $4, %r10
0x400081e68e:  74 13                    je       0x400081e6a3

----------------
IN: 
0x400081e6a3:  49 f7 c2 08 00 00 00     testq    $8, %r10
0x400081e6aa:  74 16                    je       0x400081e6c2

----------------
IN: 
0x400081e6ac:  48 8b 07                 movq     (%rdi), %rax
0x400081e6af:  48 8b 14 37              movq     (%rdi, %rsi), %rdx
0x400081e6b3:  49 83 ea 08              subq     $8, %r10
0x400081e6b7:  74 40                    je       0x400081e6f9

----------------
IN: 
0x400081e6f9:  48 39 d0                 cmpq     %rdx, %rax
0x400081e6fc:  74 22                    je       0x400081e720

----------------
IN: 
0x400081e720:  31 c0                    xorl     %eax, %eax
0x400081e722:  c3                       retq     

----------------
IN: 
0x400081934a:  85 c0                    testl    %eax, %eax
0x400081934c:  0f 85 ec 03 00 00        jne      0x400081973e

----------------
IN: 
0x4000819352:  41 8b 44 24 0c           movl     0xc(%r12), %eax
0x4000819357:  4c 89 25 52 ed 20 00     movq     %r12, 0x20ed52(%rip)
0x400081935e:  48 8d 04 40              leaq     (%rax, %rax, 2), %rax
0x4000819362:  48 8d 04 85 17 00 00 00  leaq     0x17(, %rax, 4), %rax
0x400081936a:  48 83 e0 f8              andq     $0xfffffff8, %rax
0x400081936e:  4d 8d 2c 04              leaq     (%r12, %rax), %r13
0x4000819372:  48 83 c0 30              addq     $0x30, %rax
0x4000819376:  49 39 c6                 cmpq     %rax, %r14
0x4000819379:  4c 89 2d 28 ed 20 00     movq     %r13, 0x20ed28(%rip)
0x4000819380:  72 1c                    jb       0x400081939e

----------------
IN: 
0x4000819382:  48 8d 35 57 7e 00 00     leaq     0x7e57(%rip), %rsi
0x4000819389:  ba 14 00 00 00           movl     $0x14, %edx
0x400081938e:  4c 89 ef                 movq     %r13, %rdi
0x4000819391:  e8 8a 52 00 00           callq    0x400081e620

----------------
IN: 
0x400081e690:  8b 07                    movl     (%rdi), %eax
0x400081e692:  8b 14 37                 movl     (%rdi, %rsi), %edx
0x400081e695:  49 83 ea 04              subq     $4, %r10
0x400081e699:  74 5e                    je       0x400081e6f9

----------------
IN: 
0x400081e69b:  48 83 c7 04              addq     $4, %rdi
0x400081e69f:  39 d0                    cmpl     %edx, %eax
0x400081e6a1:  75 56                    jne      0x400081e6f9

----------------
IN: 
0x400081e6c2:  f3 0f 6f 0f              movdqu   (%rdi), %xmm1
0x400081e6c6:  f3 0f 6f 04 37           movdqu   (%rdi, %rsi), %xmm0
0x400081e6cb:  66 0f 74 c8              pcmpeqb  %xmm0, %xmm1
0x400081e6cf:  66 0f d7 d1              pmovmskb %xmm1, %edx
0x400081e6d3:  31 c0                    xorl     %eax, %eax
0x400081e6d5:  81 ea ff ff 00 00        subl     $0xffff, %edx
0x400081e6db:  74 43                    je       0x400081e720

----------------
IN: 
0x4000819396:  85 c0                    testl    %eax, %eax
0x4000819398:  0f 84 3b fd ff ff        je       0x40008190d9

----------------
IN: 
0x40008190d9:  49 83 fd ff              cmpq     $0xff, %r13
0x40008190dd:  0f 84 cd 02 00 00        je       0x40008193b0

----------------
IN: 
0x40008190e3:  4b 8d 0c 34              leaq     (%r12, %r14), %rcx
0x40008190e7:  48 8d 3d 16 7c 00 00     leaq     0x7c16(%rip), %rdi
0x40008190ee:  31 f6                    xorl     %esi, %esi
0x40008190f0:  4c 29 e9                 subq     %r13, %rcx
0x40008190f3:  49 89 ce                 movq     %rcx, %r14
0x40008190f6:  48 89 4d c0              movq     %rcx, -0x40(%rbp)
0x40008190fa:  89 4d cc                 movl     %ecx, -0x34(%rbp)
0x40008190fd:  e8 fe 31 00 00           callq    0x400081c300

----------------
IN: 
0x4000819102:  4c 8b 25 9f ef 20 00     movq     0x20ef9f(%rip), %r12
0x4000819109:  89 45 9c                 movl     %eax, -0x64(%rbp)
0x400081910c:  45 8b 7c 24 14           movl     0x14(%r12), %r15d
0x4000819111:  41 83 ef 01              subl     $1, %r15d
0x4000819115:  78 79                    js       0x4000819190

----------------
IN: 
0x4000819117:  45 89 fb                 movl     %r15d, %r11d
0x400081911a:  41 d1 fb                 sarl     $1, %r11d
0x400081911d:  49 63 c3                 movslq   %r11d, %rax
0x4000819120:  89 45 c8                 movl     %eax, -0x38(%rbp)
0x4000819123:  48 8d 04 40              leaq     (%rax, %rax, 2), %rax
0x4000819127:  41 8b 74 c4 34           movl     0x34(%r12, %rax, 8), %esi
0x400081912c:  41 39 f6                 cmpl     %esi, %r14d
0x400081912f:  76 5f                    jbe      0x4000819190

----------------
IN: 
0x4000819131:  45 31 f6                 xorl     %r14d, %r14d
0x4000819134:  eb 3c                    jmp      0x4000819172

----------------
IN: 
0x4000819172:  4c 01 ee                 addq     %r13, %rsi
0x4000819175:  48 89 df                 movq     %rbx, %rdi
0x4000819178:  e8 23 fe ff ff           callq    0x4000818fa0

----------------
IN: 
0x4000818fa0:  0f be 07                 movsbl   (%rdi), %eax
0x4000818fa3:  0f be 16                 movsbl   (%rsi), %edx
0x4000818fa6:  66 2e 0f 1f 84 00 00 00  nopw     %cs:(%rax, %rax)
0x4000818fae:  00 00
0x4000818fb0:  84 c0                    testb    %al, %al
0x4000818fb2:  0f 84 b9 00 00 00        je       0x4000819071

----------------
IN: 
0x4000818fb8:  8d 48 d0                 leal     -0x30(%rax), %ecx
0x4000818fbb:  80 f9 09                 cmpb     $9, %cl
0x4000818fbe:  8d 4a d0                 leal     -0x30(%rdx), %ecx
0x4000818fc1:  0f 87 89 00 00 00        ja       0x4000819050

----------------
IN: 
0x4000819050:  80 f9 09                 cmpb     $9, %cl
0x4000819053:  76 22                    jbe      0x4000819077

----------------
IN: 
0x4000819055:  38 d0                    cmpb     %dl, %al
0x4000819057:  75 24                    jne      0x400081907d

----------------
IN: 
0x4000819059:  0f be 47 01              movsbl   1(%rdi), %eax
0x400081905d:  0f be 56 01              movsbl   1(%rsi), %edx
0x4000819061:  48 83 c7 01              addq     $1, %rdi
0x4000819065:  48 83 c6 01              addq     $1, %rsi
0x4000819069:  84 c0                    testb    %al, %al
0x400081906b:  0f 85 47 ff ff ff        jne      0x4000818fb8

----------------
IN: 
0x400081907d:  29 d0                    subl     %edx, %eax
0x400081907f:  c3                       retq     

----------------
IN: 
0x400081917d:  85 c0                    testl    %eax, %eax
0x400081917f:  74 27                    je       0x40008191a8

----------------
IN: 
0x4000819181:  79 bd                    jns      0x4000819140

----------------
IN: 
0x4000819183:  44 8b 75 c8              movl     -0x38(%rbp), %r14d
0x4000819187:  41 83 c6 01              addl     $1, %r14d
0x400081918b:  45 39 f7                 cmpl     %r14d, %r15d
0x400081918e:  7d bd                    jge      0x400081914d

----------------
IN: 
0x400081914d:  43 8d 04 37              leal     (%r15, %r14), %eax
0x4000819151:  41 89 c3                 movl     %eax, %r11d
0x4000819154:  41 c1 eb 1f              shrl     $0x1f, %r11d
0x4000819158:  41 01 c3                 addl     %eax, %r11d
0x400081915b:  41 d1 fb                 sarl     $1, %r11d
0x400081915e:  49 63 c3                 movslq   %r11d, %rax
0x4000819161:  89 45 c8                 movl     %eax, -0x38(%rbp)
0x4000819164:  48 8d 04 40              leaq     (%rax, %rax, 2), %rax
0x4000819168:  41 8b 74 c4 34           movl     0x34(%r12, %rax, 8), %esi
0x400081916d:  39 75 cc                 cmpl     %esi, -0x34(%rbp)
0x4000819170:  76 1e                    jbe      0x4000819190

----------------
IN: 
0x4000819140:  44 8b 7d c8              movl     -0x38(%rbp), %r15d
0x4000819144:  41 83 ef 01              subl     $1, %r15d
0x4000819148:  45 39 f7                 cmpl     %r14d, %r15d
0x400081914b:  7c 43                    jl       0x4000819190

----------------
IN: 
0x4000818fc7:  80 f9 09                 cmpb     $9, %cl
0x4000818fca:  0f 87 b0 00 00 00        ja       0x4000819080

----------------
IN: 
0x4000818fd0:  44 8d 40 d0              leal     -0x30(%rax), %r8d
0x4000818fd4:  0f be 47 01              movsbl   1(%rdi), %eax
0x4000818fd8:  8d 4a d0                 leal     -0x30(%rdx), %ecx
0x4000818fdb:  4c 8d 57 01              leaq     1(%rdi), %r10
0x4000818fdf:  4c 8d 4e 01              leaq     1(%rsi), %r9
0x4000818fe3:  4c 89 d7                 movq     %r10, %rdi
0x4000818fe6:  8d 50 d0                 leal     -0x30(%rax), %edx
0x4000818fe9:  80 fa 09                 cmpb     $9, %dl
0x4000818fec:  77 1a                    ja       0x4000819008

----------------
IN: 
0x4000819008:  0f be 56 01              movsbl   1(%rsi), %edx
0x400081900c:  8d 72 d0                 leal     -0x30(%rdx), %esi
0x400081900f:  40 80 fe 09              cmpb     $9, %sil
0x4000819013:  4c 89 ce                 movq     %r9, %rsi
0x4000819016:  77 20                    ja       0x4000819038

----------------
IN: 
0x4000819038:  44 39 c1                 cmpl     %r8d, %ecx
0x400081903b:  0f 84 6f ff ff ff        je       0x4000818fb0

----------------
IN: 
0x4000818fb0:  84 c0                    testb    %al, %al
0x4000818fb2:  0f 84 b9 00 00 00        je       0x4000819071

----------------
IN: 
0x4000819071:  0f be c2                 movsbl   %dl, %eax
0x4000819074:  f7 d8                    negl     %eax
0x4000819076:  c3                       retq     

----------------
IN: 
0x40008191a8:  48 8b 05 49 db 20 00     movq     0x20db49(%rip), %rax
0x40008191af:  48 89 45 a8              movq     %rax, -0x58(%rbp)
0x40008191b3:  48 8b 05 46 db 20 00     movq     0x20db46(%rip), %rax
0x40008191ba:  48 89 45 a0              movq     %rax, -0x60(%rbp)
0x40008191be:  8b 45 c8                 movl     -0x38(%rbp), %eax
0x40008191c1:  85 c0                    testl    %eax, %eax
0x40008191c3:  0f 8e a9 05 00 00        jle      0x4000819772

----------------
IN: 
0x40008191c9:  44 8d 70 ff              leal     -1(%rax), %r14d
0x40008191cd:  49 63 ce                 movslq   %r14d, %rcx
0x40008191d0:  48 8d 04 49              leaq     (%rcx, %rcx, 2), %rax
0x40008191d4:  41 8b 74 c4 34           movl     0x34(%r12, %rax, 8), %esi
0x40008191d9:  39 75 c0                 cmpl     %esi, -0x40(%rbp)
0x40008191dc:  77 27                    ja       0x4000819205

----------------
IN: 
0x4000819205:  41 8d 46 01              leal     1(%r14), %eax
0x4000819209:  4c 01 ee                 addq     %r13, %rsi
0x400081920c:  48 89 df                 movq     %rbx, %rdi
0x400081920f:  89 45 c0                 movl     %eax, -0x40(%rbp)
0x4000819212:  e8 89 fd ff ff           callq    0x4000818fa0

----------------
IN: 
0x4000819217:  85 c0                    testl    %eax, %eax
0x4000819219:  74 cd                    je       0x40008191e8

----------------
IN: 
0x40008191e8:  45 85 f6                 testl    %r14d, %r14d
0x40008191eb:  74 32                    je       0x400081921f

----------------
IN: 
0x40008191ed:  41 8d 4e ff              leal     -1(%r14), %ecx
0x40008191f1:  48 63 c1                 movslq   %ecx, %rax
0x40008191f4:  48 8d 04 40              leaq     (%rax, %rax, 2), %rax
0x40008191f8:  41 8b 74 c4 34           movl     0x34(%r12, %rax, 8), %esi
0x40008191fd:  39 75 cc                 cmpl     %esi, -0x34(%rbp)
0x4000819200:  76 1d                    jbe      0x400081921f

----------------
IN: 
0x4000819202:  41 89 ce                 movl     %ecx, %r14d
0x4000819205:  41 8d 46 01              leal     1(%r14), %eax
0x4000819209:  4c 01 ee                 addq     %r13, %rsi
0x400081920c:  48 89 df                 movq     %rbx, %rdi
0x400081920f:  89 45 c0                 movl     %eax, -0x40(%rbp)
0x4000819212:  e8 89 fd ff ff           callq    0x4000818fa0

----------------
IN: 
0x400081921b:  44 8b 75 c0              movl     -0x40(%rbp), %r14d
0x400081921f:  81 3d cb da 20 00 03 03  cmpl     $0x303, 0x20dacb(%rip)
0x4000819227:  00 00
0x4000819229:  8b 05 75 da 20 00        movl     0x20da75(%rip), %eax
0x400081922f:  89 45 b0                 movl     %eax, -0x50(%rbp)
0x4000819232:  0f 84 58 05 00 00        je       0x4000819790

----------------
IN: 
0x4000819790:  48 8b 4d a8              movq     -0x58(%rbp), %rcx
0x4000819794:  48 23 4d a0              andq     -0x60(%rbp), %rcx
0x4000819798:  48 b8 00 00 00 00 00 00  movabsq  $-0x8000000000000000, %rax
0x40008197a0:  00 80
0x40008197a2:  48 09 c8                 orq      %rcx, %rax
0x40008197a5:  8b 4d b0                 movl     -0x50(%rbp), %ecx
0x40008197a8:  48 f7 d0                 notq     %rax
0x40008197ab:  48 89 45 b8              movq     %rax, -0x48(%rbp)
0x40008197af:  85 c9                    testl    %ecx, %ecx
0x40008197b1:  0f 85 69 fd ff ff        jne      0x4000819520

----------------
IN: 
0x4000819520:  44 3b 75 c8              cmpl     -0x38(%rbp), %r14d
0x4000819524:  49 63 ce                 movslq   %r14d, %rcx
0x4000819527:  7e 2f                    jle      0x4000819558

----------------
IN: 
0x4000819558:  48 8d 04 49              leaq     (%rcx, %rcx, 2), %rax
0x400081955c:  49 8d 04 c4              leaq     (%r12, %rax, 8), %rax
0x4000819560:  81 78 30 03 03 00 00     cmpl     $0x303, 0x30(%rax)
0x4000819567:  75 aa                    jne      0x4000819513

----------------
IN: 
0x4000819513:  41 83 c6 01              addl     $1, %r14d
0x4000819517:  45 39 fe                 cmpl     %r15d, %r14d
0x400081951a:  0f 8f 7e 03 00 00        jg       0x400081989e

----------------
IN: 
0x4000819569:  8b 48 38                 movl     0x38(%rax), %ecx
0x400081956c:  39 4d cc                 cmpl     %ecx, -0x34(%rbp)
0x400081956f:  76 a2                    jbe      0x4000819513

----------------
IN: 
0x4000819571:  48 8b 70 40              movq     0x40(%rax), %rsi
0x4000819575:  48 85 75 b8              testq    %rsi, -0x48(%rbp)
0x4000819579:  75 98                    jne      0x4000819513

----------------
IN: 
0x400081957b:  8b 55 b0                 movl     -0x50(%rbp), %edx
0x400081957e:  39 50 3c                 cmpl     %edx, 0x3c(%rax)
0x4000819581:  77 90                    ja       0x4000819513

----------------
IN: 
0x4000819583:  48 85 f6                 testq    %rsi, %rsi
0x4000819586:  74 07                    je       0x400081958f

----------------
IN: 
0x400081958f:  49 8d 44 0d 00           leaq     (%r13, %rcx), %rax
0x4000819594:  48 89 45 b8              movq     %rax, -0x48(%rbp)
0x4000819598:  0f 1f 84 00 00 00 00 00  nopl     (%rax, %rax)
0x40008195a0:  f6 05 f9 d6 20 00 01     testb    $1, 0x20d6f9(%rip)
0x40008195a7:  0f 85 53 01 00 00        jne      0x4000819700

----------------
IN: 
0x40008195ad:  48 83 7d b8 00           cmpq     $0, -0x48(%rbp)
0x40008195b2:  0f 84 d8 fb ff ff        je       0x4000819190

----------------
IN: 
0x40008195b8:  48 8b 5d b8              movq     -0x48(%rbp), %rbx
0x40008195bc:  48 89 df                 movq     %rbx, %rdi
0x40008195bf:  e8 4c 49 00 00           callq    0x400081df10

----------------
IN: 
0x400081df4a:  48 83 e0 f0              andq     $0xfffffff0, %rax
0x400081df4e:  66 0f 74 48 10           pcmpeqb  0x10(%rax), %xmm1
0x400081df53:  66 0f 74 50 20           pcmpeqb  0x20(%rax), %xmm2
0x400081df58:  66 0f 74 58 30           pcmpeqb  0x30(%rax), %xmm3
0x400081df5d:  66 0f d7 d1              pmovmskb %xmm1, %edx
0x400081df61:  66 44 0f d7 c2           pmovmskb %xmm2, %r8d
0x400081df66:  66 0f d7 cb              pmovmskb %xmm3, %ecx
0x400081df6a:  48 c1 e2 10              shlq     $0x10, %rdx
0x400081df6e:  48 c1 e1 10              shlq     $0x10, %rcx
0x400081df72:  4c 09 c1                 orq      %r8, %rcx
0x400081df75:  48 c1 e1 20              shlq     $0x20, %rcx
0x400081df79:  48 09 ca                 orq      %rcx, %rdx
0x400081df7c:  48 89 f9                 movq     %rdi, %rcx
0x400081df7f:  48 31 c1                 xorq     %rax, %rcx
0x400081df82:  48 83 e0 c0              andq     $0xffffffc0, %rax
0x400081df86:  48 d3 fa                 sarq     %cl, %rdx
0x400081df89:  48 85 d2                 testq    %rdx, %rdx
0x400081df8c:  0f 84 7e 00 00 00        je       0x400081e010

----------------
IN: 
0x400081df92:  48 0f bc c2              bsfq     %rdx, %rax
0x400081df96:  c3                       retq     

----------------
IN: 
0x40008195c4:  48 8d 50 01              leaq     1(%rax), %rdx
0x40008195c8:  48 83 c0 1f              addq     $0x1f, %rax
0x40008195cc:  48 89 de                 movq     %rbx, %rsi
0x40008195cf:  48 83 e0 f0              andq     $0xfffffff0, %rax
0x40008195d3:  48 29 c4                 subq     %rax, %rsp
0x40008195d6:  48 8d 4c 24 0f           leaq     0xf(%rsp), %rcx
0x40008195db:  48 83 e1 f0              andq     $0xfffffff0, %rcx
0x40008195df:  48 89 cf                 movq     %rcx, %rdi
0x40008195e2:  e8 b9 58 00 00           callq    0x400081eea0

----------------
IN: 
0x400081ef20:  48 89 44 24 f8           movq     %rax, -8(%rsp)
0x400081ef25:  89 f1                    movl     %esi, %ecx
0x400081ef27:  83 e1 07                 andl     $7, %ecx
0x400081ef2a:  74 34                    je       0x400081ef60

----------------
IN: 
0x400081ef2c:  48 8d 54 11 f8           leaq     -8(%rcx, %rdx), %rdx
0x400081ef31:  83 e9 08                 subl     $8, %ecx
0x400081ef34:  66 90                    nop      
0x400081ef36:  66 2e 0f 1f 84 00 00 00  nopw     %cs:(%rax, %rax)
0x400081ef3e:  00 00
0x400081ef40:  0f b6 06                 movzbl   (%rsi), %eax
0x400081ef43:  88 07                    movb     %al, (%rdi)
0x400081ef45:  ff c1                    incl     %ecx
0x400081ef47:  48 8d 76 01              leaq     1(%rsi), %rsi
0x400081ef4b:  48 8d 7f 01              leaq     1(%rdi), %rdi
0x400081ef4f:  75 ef                    jne      0x400081ef40

----------------
IN: 
0x400081ef40:  0f b6 06                 movzbl   (%rsi), %eax
0x400081ef43:  88 07                    movb     %al, (%rdi)
0x400081ef45:  ff c1                    incl     %ecx
0x400081ef47:  48 8d 76 01              leaq     1(%rsi), %rsi
0x400081ef4b:  48 8d 7f 01              leaq     1(%rdi), %rdi
0x400081ef4f:  75 ef                    jne      0x400081ef40

----------------
IN: 
0x400081ef51:  0f 1f 44 00 00           nopl     (%rax, %rax)
0x400081ef56:  66 2e 0f 1f 84 00 00 00  nopw     %cs:(%rax, %rax)
0x400081ef5e:  00 00
0x400081ef60:  48 81 fa 00 04 00 00     cmpq     $0x400, %rdx
0x400081ef67:  77 77                    ja       0x400081efe0

----------------
IN: 
0x400081ef69:  89 d1                    movl     %edx, %ecx
0x400081ef6b:  c1 e9 05                 shrl     $5, %ecx
0x400081ef6e:  74 60                    je       0x400081efd0

----------------
IN: 
0x400081efd0:  83 e2 1f                 andl     $0x1f, %edx
0x400081efd3:  48 8b 44 24 f8           movq     -8(%rsp), %rax
0x400081efd8:  0f 85 cb fe ff ff        jne      0x400081eea9

----------------
IN: 
0x400081eeb9:  f6 c2 02                 testb    $2, %dl
0x400081eebc:  74 12                    je       0x400081eed0

----------------
IN: 
0x400081eebe:  0f b7 0e                 movzwl   (%rsi), %ecx
0x400081eec1:  66 89 0f                 movw     %cx, (%rdi)
0x400081eec4:  48 83 c6 02              addq     $2, %rsi
0x400081eec8:  48 83 c7 02              addq     $2, %rdi
0x400081eecc:  0f 1f 40 00              nopl     (%rax)
0x400081eed0:  f6 c2 04                 testb    $4, %dl
0x400081eed3:  74 0c                    je       0x400081eee1

----------------
IN: 
0x400081eee6:  48 8b 0e                 movq     (%rsi), %rcx
0x400081eee9:  48 89 0f                 movq     %rcx, (%rdi)
0x400081eeec:  48 83 c6 08              addq     $8, %rsi
0x400081eef0:  48 83 c7 08              addq     $8, %rdi
0x400081eef4:  81 e2 f0 00 00 00        andl     $0xf0, %edx
0x400081eefa:  74 1f                    je       0x400081ef1b

----------------
IN: 
0x400081eefc:  0f 1f 40 00              nopl     (%rax)
0x400081ef00:  48 8b 0e                 movq     (%rsi), %rcx
0x400081ef03:  4c 8b 46 08              movq     8(%rsi), %r8
0x400081ef07:  48 89 0f                 movq     %rcx, (%rdi)
0x400081ef0a:  4c 89 47 08              movq     %r8, 8(%rdi)
0x400081ef0e:  83 ea 10                 subl     $0x10, %edx
0x400081ef11:  48 8d 76 10              leaq     0x10(%rsi), %rsi
0x400081ef15:  48 8d 7f 10              leaq     0x10(%rdi), %rdi
0x400081ef19:  75 e5                    jne      0x400081ef00

----------------
IN: 
0x40008195e7:  48 89 c7                 movq     %rax, %rdi
0x40008195ea:  e8 d1 48 00 00           callq    0x400081dec0

----------------
IN: 
0x400081dec0:  55                       pushq    %rbp
0x400081dec1:  53                       pushq    %rbx
0x400081dec2:  48 89 fd                 movq     %rdi, %rbp
0x400081dec5:  48 83 ec 08              subq     $8, %rsp
0x400081dec9:  e8 42 00 00 00           callq    0x400081df10

----------------
IN: 
0x400081dece:  48 8d 58 01              leaq     1(%rax), %rbx
0x400081ded2:  48 89 df                 movq     %rbx, %rdi
0x400081ded5:  e8 a6 3b fe ff           callq    0x4000801a80

----------------
IN: 
0x400081deda:  48 85 c0                 testq    %rax, %rax
0x400081dedd:  74 19                    je       0x400081def8

----------------
IN: 
0x400081dedf:  48 83 c4 08              addq     $8, %rsp
0x400081dee3:  48 89 da                 movq     %rbx, %rdx
0x400081dee6:  48 89 ee                 movq     %rbp, %rsi
0x400081dee9:  5b                       popq     %rbx
0x400081deea:  5d                       popq     %rbp
0x400081deeb:  48 89 c7                 movq     %rax, %rdi
0x400081deee:  e9 ad 0f 00 00           jmp      0x400081eea0

----------------
IN: 
0x400081ef60:  48 81 fa 00 04 00 00     cmpq     $0x400, %rdx
0x400081ef67:  77 77                    ja       0x400081efe0

----------------
IN: 
0x400081ef70:  ff c9                    decl     %ecx
0x400081ef72:  48 8b 06                 movq     (%rsi), %rax
0x400081ef75:  4c 8b 46 08              movq     8(%rsi), %r8
0x400081ef79:  4c 8b 4e 10              movq     0x10(%rsi), %r9
0x400081ef7d:  4c 8b 56 18              movq     0x18(%rsi), %r10
0x400081ef81:  48 89 07                 movq     %rax, (%rdi)
0x400081ef84:  4c 89 47 08              movq     %r8, 8(%rdi)
0x400081ef88:  4c 89 4f 10              movq     %r9, 0x10(%rdi)
0x400081ef8c:  4c 89 57 18              movq     %r10, 0x18(%rdi)
0x400081ef90:  48 8d 76 20              leaq     0x20(%rsi), %rsi
0x400081ef94:  48 8d 7f 20              leaq     0x20(%rdi), %rdi
0x400081ef98:  74 36                    je       0x400081efd0

----------------
IN: 
0x400081efde:  f3 c3                    retq     

----------------
IN: 
0x40008195ef:  48 8d 65 d8              leaq     -0x28(%rbp), %rsp
0x40008195f3:  5b                       popq     %rbx
0x40008195f4:  41 5c                    popq     %r12
0x40008195f6:  41 5d                    popq     %r13
0x40008195f8:  41 5e                    popq     %r14
0x40008195fa:  41 5f                    popq     %r15
0x40008195fc:  5d                       popq     %rbp
0x40008195fd:  c3                       retq     

----------------
IN: 
0x400080a169:  48 85 c0                 testq    %rax, %rax
0x400080a16c:  48 89 44 24 08           movq     %rax, 8(%rsp)
0x400080a171:  74 61                    je       0x400080a1d4

----------------
IN: 
0x400080a173:  4d 85 e4                 testq    %r12, %r12
0x400080a176:  0f 84 1c 03 00 00        je       0x400080a498

----------------
IN: 
0x400080a17c:  41 f6 84 24 d5 03 00 00  testb    $8, 0x3d5(%r12)
0x400080a184:  08
0x400080a185:  0f 85 2b 03 00 00        jne      0x400080a4b6

----------------
IN: 
0x400080a18b:  4c 89 e2                 movq     %r12, %rdx
0x400080a18e:  4c 8d 7c 24 70           leaq     0x70(%rsp), %r15
0x400080a193:  48 83 ec 08              subq     $8, %rsp
0x400080a197:  45 89 e8                 movl     %r13d, %r8d
0x400080a19a:  6a 00                    pushq    $0
0x400080a19c:  b9 08 00 00 00           movl     $8, %ecx
0x400080a1a1:  4c 89 fe                 movq     %r15, %rsi
0x400080a1a4:  4c 8b 7c 24 18           movq     0x18(%rsp), %r15
0x400080a1a9:  4c 8d 4c 24 6f           leaq     0x6f(%rsp), %r9
0x400080a1ae:  4c 89 ff                 movq     %r15, %rdi
0x400080a1b1:  e8 5a c5 ff ff           callq    0x4000806710

----------------
IN: 
0x4000806710:  55                       pushq    %rbp
0x4000806711:  48 89 e5                 movq     %rsp, %rbp
0x4000806714:  41 57                    pushq    %r15
0x4000806716:  41 56                    pushq    %r14
0x4000806718:  41 55                    pushq    %r13
0x400080671a:  41 54                    pushq    %r12
0x400080671c:  49 89 fe                 movq     %rdi, %r14
0x400080671f:  53                       pushq    %rbx
0x4000806720:  48 89 f3                 movq     %rsi, %rbx
0x4000806723:  48 83 ec 28              subq     $0x28, %rsp
0x4000806727:  8b 45 10                 movl     0x10(%rbp), %eax
0x400080672a:  85 c9                    testl    %ecx, %ecx
0x400080672c:  44 89 45 b4              movl     %r8d, -0x4c(%rbp)
0x4000806730:  4c 89 4d c8              movq     %r9, -0x38(%rbp)
0x4000806734:  89 45 c0                 movl     %eax, -0x40(%rbp)
0x4000806737:  8b 05 d3 06 22 00        movl     0x2206d3(%rip), %eax
0x400080673d:  74 19                    je       0x4000806758

----------------
IN: 
0x400080673f:  85 c0                    testl    %eax, %eax
0x4000806741:  74 15                    je       0x4000806758

----------------
IN: 
0x4000806758:  31 c0                    xorl     %eax, %eax
0x400080675a:  be 00 00 08 00           movl     $0x80000, %esi
0x400080675f:  4c 89 f7                 movq     %r14, %rdi
0x4000806762:  e8 39 5b 01 00           callq    0x400081c2a0

----------------
IN: 
0x4000806767:  83 f8 ff                 cmpl     $0xff, %eax
0x400080676a:  89 45 c4                 movl     %eax, -0x3c(%rbp)
0x400080676d:  0f 84 96 02 00 00        je       0x4000806a09

----------------
IN: 
0x4000806773:  48 8d 43 08              leaq     8(%rbx), %rax
0x4000806777:  c7 05 9f 19 22 00 00 00  movl     $0, 0x22199f(%rip)
0x400080677f:  00 00
0x4000806781:  45 31 ed                 xorl     %r13d, %r13d
0x4000806784:  48 c7 03 00 00 00 00     movq     $0, (%rbx)
0x400080678b:  41 bc 40 03 00 00        movl     $0x340, %r12d
0x4000806791:  48 89 45 b8              movq     %rax, -0x48(%rbp)
0x4000806795:  48 8b 45 b8              movq     -0x48(%rbp), %rax
0x4000806799:  8b 7d c4                 movl     -0x3c(%rbp), %edi
0x400080679c:  4c 89 e2                 movq     %r12, %rdx
0x400080679f:  4c 29 ea                 subq     %r13, %rdx
0x40008067a2:  4a 8d 34 28              leaq     (%rax, %r13), %rsi
0x40008067a6:  e8 15 5b 01 00           callq    0x400081c2c0

----------------
IN: 
0x400081c2c0:  b8 00 00 00 00           movl     $0, %eax
0x400081c2c5:  0f 05                    syscall  

----------------
IN: 
0x400081c2c7:  48 3d 01 f0 ff ff        cmpq     $-0xfff, %rax
0x400081c2cd:  73 01                    jae      0x400081c2d0

----------------
IN: 
0x400081c2cf:  c3                       retq     

----------------
IN: 
0x40008067ab:  48 85 c0                 testq    %rax, %rax
0x40008067ae:  0f 8e 9c 04 00 00        jle      0x4000806c50

----------------
IN: 
0x40008067b4:  48 03 03                 addq     (%rbx), %rax
0x40008067b7:  48 83 f8 3f              cmpq     $0x3f, %rax
0x40008067bb:  49 89 c5                 movq     %rax, %r13
0x40008067be:  48 89 03                 movq     %rax, (%rbx)
0x40008067c1:  76 d2                    jbe      0x4000806795

----------------
IN: 
0x40008067c3:  49 83 fd 3f              cmpq     $0x3f, %r13
0x40008067c7:  0f 8e 83 03 00 00        jle      0x4000806b50

----------------
IN: 
0x40008067cd:  48 8b 7d b8              movq     -0x48(%rbp), %rdi
0x40008067d1:  48 8d 35 18 d0 01 00     leaq     0x1d018(%rip), %rsi
0x40008067d8:  ba 08 00 00 00           movl     $8, %edx
0x40008067dd:  e8 3e 7e 01 00           callq    0x400081e620

----------------
IN: 
0x400081e6fe:  49 89 c3                 movq     %rax, %r11
0x400081e701:  49 29 d3                 subq     %rdx, %r11
0x400081e704:  49 0f bc cb              bsfq     %r11, %rcx
0x400081e708:  48 c1 f9 03              sarq     $3, %rcx
0x400081e70c:  48 c1 e1 03              shlq     $3, %rcx
0x400081e710:  48 d3 f8                 sarq     %cl, %rax
0x400081e713:  0f b6 c0                 movzbl   %al, %eax
0x400081e716:  48 d3 fa                 sarq     %cl, %rdx
0x400081e719:  0f b6 d2                 movzbl   %dl, %edx
0x400081e71c:  29 d0                    subl     %edx, %eax
0x400081e71e:  c3                       retq     

----------------
IN: 
0x40008067e2:  85 c0                    testl    %eax, %eax
0x40008067e4:  0f 85 8e 03 00 00        jne      0x4000806b78

----------------
IN: 
0x4000806b78:  48 8b 7d b8              movq     -0x48(%rbp), %rdi
0x4000806b7c:  48 8d 35 1d 91 01 00     leaq     0x1911d(%rip), %rsi
0x4000806b83:  ba 08 00 00 00           movl     $8, %edx
0x4000806b88:  e8 93 7a 01 00           callq    0x400081e620

----------------
IN: 
0x4000806b8d:  85 c0                    testl    %eax, %eax
0x4000806b8f:  0f 84 55 fc ff ff        je       0x40008067ea

----------------
IN: 
0x40008067ea:  0f b6 43 10              movzbl   0x10(%rbx), %eax
0x40008067ee:  84 c0                    testb    %al, %al
0x40008067f0:  0f 85 9a 01 00 00        jne      0x4000806990

----------------
IN: 
0x40008067f6:  48 8d 7b 11              leaq     0x11(%rbx), %rdi
0x40008067fa:  48 8d 35 f8 cf 01 00     leaq     0x1cff8(%rip), %rsi
0x4000806801:  ba 07 00 00 00           movl     $7, %edx
0x4000806806:  e8 15 7e 01 00           callq    0x400081e620

----------------
IN: 
0x400080680b:  85 c0                    testl    %eax, %eax
0x400080680d:  0f 85 8b 01 00 00        jne      0x400080699e

----------------
IN: 
0x4000806813:  83 7b 1c 01              cmpl     $1, 0x1c(%rbx)
0x4000806817:  0f 85 43 04 00 00        jne      0x4000806c60

----------------
IN: 
0x400080681d:  66 83 7b 1a 3e           cmpw     $0x3e, 0x1a(%rbx)
0x4000806822:  0f 85 cf 01 00 00        jne      0x40008069f7

----------------
IN: 
0x4000806828:  0f b7 43 18              movzwl   0x18(%rbx), %eax
0x400080682c:  8d 50 fe                 leal     -2(%rax), %edx
0x400080682f:  66 83 fa 01              cmpw     $1, %dx
0x4000806833:  0f 87 36 04 00 00        ja       0x4000806c6f

----------------
IN: 
0x4000806839:  66 83 f8 02              cmpw     $2, %ax
0x400080683d:  0f 84 3b 04 00 00        je       0x4000806c7e

----------------
IN: 
0x4000806843:  66 83 7b 3e 38           cmpw     $0x38, 0x3e(%rbx)
0x4000806848:  0f 85 52 04 00 00        jne      0x4000806ca0

----------------
IN: 
0x400080684e:  0f b7 7b 40              movzwl   0x40(%rbx), %edi
0x4000806852:  48 8b 73 28              movq     0x28(%rbx), %rsi
0x4000806856:  48 8d 04 fd 00 00 00 00  leaq     (, %rdi, 8), %rax
0x400080685e:  49 89 f8                 movq     %rdi, %r8
0x4000806861:  49 c1 e0 06              shlq     $6, %r8
0x4000806865:  49 29 c0                 subq     %rax, %r8
0x4000806868:  49 8d 04 30              leaq     (%r8, %rsi), %rax
0x400080686c:  4d 89 c7                 movq     %r8, %r15
0x400080686f:  4c 39 e8                 cmpq     %r13, %rax
0x4000806872:  0f 87 a8 01 00 00        ja       0x4000806a20

----------------
IN: 
0x4000806878:  48 03 75 b8              addq     -0x48(%rbp), %rsi
0x400080687c:  48 89 75 c8              movq     %rsi, -0x38(%rbp)
0x4000806880:  48 89 f0                 movq     %rsi, %rax
0x4000806883:  49 01 c0                 addq     %rax, %r8
0x4000806886:  4c 39 c0                 cmpq     %r8, %rax
0x4000806889:  0f 83 e9 00 00 00        jae      0x4000806978

----------------
IN: 
0x400080688f:  49 89 c5                 movq     %rax, %r13
0x4000806892:  eb 27                    jmp      0x40008068bb

----------------
IN: 
0x40008068bb:  41 83 7d 00 04           cmpl     $4, (%r13)
0x40008068c0:  75 d6                    jne      0x4000806898

----------------
IN: 
0x4000806898:  48 8d 14 fd 00 00 00 00  leaq     (, %rdi, 8), %rdx
0x40008068a0:  48 89 f8                 movq     %rdi, %rax
0x40008068a3:  49 83 c5 38              addq     $0x38, %r13
0x40008068a7:  48 c1 e0 06              shlq     $6, %rax
0x40008068ab:  48 29 d0                 subq     %rdx, %rax
0x40008068ae:  48 03 45 c8              addq     -0x38(%rbp), %rax
0x40008068b2:  49 39 c5                 cmpq     %rax, %r13
0x40008068b5:  0f 83 bd 00 00 00        jae      0x4000806978

----------------
IN: 
0x40008068c2:  4d 8b 65 20              movq     0x20(%r13), %r12
0x40008068c6:  49 83 fc 1f              cmpq     $0x1f, %r12
0x40008068ca:  76 cc                    jbe      0x4000806898

----------------
IN: 
0x40008068cc:  49 83 7d 30 03           cmpq     $3, 0x30(%r13)
0x40008068d1:  76 c5                    jbe      0x4000806898

----------------
IN: 
0x40008068d3:  49 8b 75 08              movq     8(%r13), %rsi
0x40008068d7:  49 8d 04 34              leaq     (%r12, %rsi), %rax
0x40008068db:  48 3b 03                 cmpq     (%rbx), %rax
0x40008068de:  0f 87 bc 02 00 00        ja       0x4000806ba0

----------------
IN: 
0x40008068e4:  48 8b 45 b8              movq     -0x48(%rbp), %rax
0x40008068e8:  4c 8d 3c 30              leaq     (%rax, %rsi), %r15
0x40008068ec:  eb 32                    jmp      0x4000806920

----------------
IN: 
0x4000806920:  48 8d 35 b9 ce 01 00     leaq     0x1ceb9(%rip), %rsi
0x4000806927:  ba 10 00 00 00           movl     $0x10, %edx
0x400080692c:  4c 89 ff                 movq     %r15, %rdi
0x400080692f:  e8 ec 7c 01 00           callq    0x400081e620

----------------
IN: 
0x400081e6dd:  0f bc ca                 bsfl     %edx, %ecx
0x400081e6e0:  48 8d 0c 0f              leaq     (%rdi, %rcx), %rcx
0x400081e6e4:  0f b6 01                 movzbl   (%rcx), %eax
0x400081e6e7:  0f b6 14 0e              movzbl   (%rsi, %rcx), %edx
0x400081e6eb:  eb 09                    jmp      0x400081e6f6

----------------
IN: 
0x400081e6f6:  29 d0                    subl     %edx, %eax
0x400081e6f8:  c3                       retq     

----------------
IN: 
0x4000806934:  85 c0                    testl    %eax, %eax
0x4000806936:  75 b8                    jne      0x40008068f0

----------------
IN: 
0x40008068f0:  41 8b 17                 movl     (%r15), %edx
0x40008068f3:  41 8b 47 04              movl     4(%r15), %eax
0x40008068f7:  48 83 c2 03              addq     $3, %rdx
0x40008068fb:  48 83 c0 03              addq     $3, %rax
0x40008068ff:  48 83 e2 fc              andq     $0xfffffffc, %rdx
0x4000806903:  48 83 e0 fc              andq     $0xfffffffc, %rax
0x4000806907:  48 8d 44 02 0c           leaq     0xc(%rdx, %rax), %rax
0x400080690c:  49 8d 54 24 e0           leaq     -0x20(%r12), %rdx
0x4000806911:  48 39 d0                 cmpq     %rdx, %rax
0x4000806914:  0f 87 ae 01 00 00        ja       0x4000806ac8

----------------
IN: 
0x400080691a:  49 29 c4                 subq     %rax, %r12
0x400080691d:  49 01 c7                 addq     %rax, %r15
0x4000806920:  48 8d 35 b9 ce 01 00     leaq     0x1ceb9(%rip), %rsi
0x4000806927:  ba 10 00 00 00           movl     $0x10, %edx
0x400080692c:  4c 89 ff                 movq     %r15, %rdi
0x400080692f:  e8 ec 7c 01 00           callq    0x400081e620

----------------
IN: 
0x4000806938:  4d 85 e4                 testq    %r12, %r12
0x400080693b:  0f 84 87 01 00 00        je       0x4000806ac8

----------------
IN: 
0x4000806941:  41 0f b6 47 14           movzbl   0x14(%r15), %eax
0x4000806946:  41 0f b6 57 18           movzbl   0x18(%r15), %edx
0x400080694b:  c1 e0 08                 shll     $8, %eax
0x400080694e:  01 d0                    addl     %edx, %eax
0x4000806950:  41 0f b6 57 1c           movzbl   0x1c(%r15), %edx
0x4000806955:  c1 e0 08                 shll     $8, %eax
0x4000806958:  01 d0                    addl     %edx, %eax
0x400080695a:  41 8b 57 10              movl     0x10(%r15), %edx
0x400080695e:  85 d2                    testl    %edx, %edx
0x4000806960:  0f 85 91 00 00 00        jne      0x40008069f7

----------------
IN: 
0x4000806966:  8b 15 38 03 22 00        movl     0x220338(%rip), %edx
0x400080696c:  85 d2                    testl    %edx, %edx
0x400080696e:  74 08                    je       0x4000806978

----------------
IN: 
0x4000806970:  39 d0                    cmpl     %edx, %eax
0x4000806972:  0f 87 7f 00 00 00        ja       0x40008069f7

----------------
IN: 
0x4000806978:  8b 45 c4                 movl     -0x3c(%rbp), %eax
0x400080697b:  48 8d 65 d8              leaq     -0x28(%rbp), %rsp
0x400080697f:  5b                       popq     %rbx
0x4000806980:  41 5c                    popq     %r12
0x4000806982:  41 5d                    popq     %r13
0x4000806984:  41 5e                    popq     %r14
0x4000806986:  41 5f                    popq     %r15
0x4000806988:  5d                       popq     %rbp
0x4000806989:  c3                       retq     

----------------
IN: 
0x400080a1b6:  83 f8 ff                 cmpl     $0xff, %eax
0x400080a1b9:  89 c2                    movl     %eax, %edx
0x400080a1bb:  5f                       popq     %rdi
0x400080a1bc:  41 58                    popq     %r8
0x400080a1be:  74 0a                    je       0x400080a1ca

----------------
IN: 
0x400080a1c0:  4c 89 7c 24 60           movq     %r15, 0x60(%rsp)
0x400080a1c5:  e9 5c fc ff ff           jmp      0x4000809e26

----------------
IN: 
0x4000809e26:  f6 05 73 ce 21 00 01     testb    $1, 0x21ce73(%rip)
0x4000809e2d:  0f 85 66 05 00 00        jne      0x400080a399

----------------
IN: 
0x4000809e33:  41 f7 c5 00 00 00 10     testl    $0x10000000, %r13d
0x4000809e3a:  b8 00 00 00 00           movl     $0, %eax
0x4000809e3f:  4c 0f 45 e0              cmovneq  %rax, %r12
0x4000809e43:  83 fa ff                 cmpl     $0xff, %edx
0x4000809e46:  0f 84 57 fe ff ff        je       0x4000809ca3

----------------
IN: 
0x4000809e4c:  4c 8d 7c 24 70           leaq     0x70(%rsp), %r15
0x4000809e51:  e9 9c fd ff ff           jmp      0x4000809bf2

----------------
IN: 
0x4000809bf2:  48 8b 05 77 d2 21 00     movq     0x21d277(%rip), %rax
0x4000809bf9:  4d 89 e1                 movq     %r12, %r9
0x4000809bfc:  4c 89 f9                 movq     %r15, %rcx
0x4000809bff:  48 89 df                 movq     %rbx, %rdi
0x4000809c02:  48 89 44 24 68           movq     %rax, 0x68(%rsp)
0x4000809c07:  55                       pushq    %rbp
0x4000809c08:  48 8d 44 24 70           leaq     0x70(%rsp), %rax
0x4000809c0d:  50                       pushq    %rax
0x4000809c0e:  41 55                    pushq    %r13
0x4000809c10:  8b 44 24 1c              movl     0x1c(%rsp), %eax
0x4000809c14:  50                       pushq    %rax
0x4000809c15:  4c 8b 84 24 80 00 00 00  movq     0x80(%rsp), %r8
0x4000809c1d:  48 8b 74 24 30           movq     0x30(%rsp), %rsi
0x4000809c22:  e8 09 d7 ff ff           callq    0x4000807330

----------------
IN: 
0x4000807330:  55                       pushq    %rbp
0x4000807331:  48 89 e5                 movq     %rsp, %rbp
0x4000807334:  41 57                    pushq    %r15
0x4000807336:  41 56                    pushq    %r14
0x4000807338:  41 55                    pushq    %r13
0x400080733a:  41 54                    pushq    %r12
0x400080733c:  41 89 d6                 movl     %edx, %r14d
0x400080733f:  53                       pushq    %rbx
0x4000807340:  4c 89 cb                 movq     %r9, %rbx
0x4000807343:  48 81 ec 18 01 00 00     subq     $0x118, %rsp
0x400080734a:  48 89 b5 f8 fe ff ff     movq     %rsi, -0x108(%rbp)
0x4000807351:  48 8b 75 28              movq     0x28(%rbp), %rsi
0x4000807355:  48 89 bd 38 ff ff ff     movq     %rdi, -0xc8(%rbp)
0x400080735c:  31 ff                    xorl     %edi, %edi
0x400080735e:  89 95 24 ff ff ff        movl     %edx, -0xdc(%rbp)
0x4000807364:  48 89 8d 00 ff ff ff     movq     %rcx, -0x100(%rbp)
0x400080736b:  4c 89 85 30 ff ff ff     movq     %r8, -0xd0(%rbp)
0x4000807372:  e8 09 ad 00 00           callq    0x4000812080

----------------
IN: 
0x40008120a0:  48 85 ff                 testq    %rdi, %rdi
0x40008120a3:  74 5b                    je       0x4000812100

----------------
IN: 
0x4000812100:  f3 c3                    retq     

----------------
IN: 
0x4000807377:  48 8d 95 40 ff ff ff     leaq     -0xc0(%rbp), %rdx
0x400080737e:  44 89 f6                 movl     %r14d, %esi
0x4000807381:  bf 01 00 00 00           movl     $1, %edi
0x4000807386:  48 89 85 28 ff ff ff     movq     %rax, -0xd8(%rbp)
0x400080738d:  e8 8e 4e 01 00           callq    0x400081c220

----------------
IN: 
0x4000807392:  85 c0                    testl    %eax, %eax
0x4000807394:  0f 88 a8 07 00 00        js       0x4000807b42

----------------
IN: 
0x400080739a:  48 8b 85 48 ff ff ff     movq     -0xb8(%rbp), %rax
0x40008073a1:  48 8d 35 98 fc 21 00     leaq     0x21fc98(%rip), %rsi
0x40008073a8:  4c 8b bd 40 ff ff ff     movq     -0xc0(%rbp), %r15
0x40008073af:  48 89 85 08 ff ff ff     movq     %rax, -0xf8(%rbp)
0x40008073b6:  48 8b 45 28              movq     0x28(%rbp), %rax
0x40008073ba:  48 8d 04 c0              leaq     (%rax, %rax, 8), %rax
0x40008073be:  48 c1 e0 04              shlq     $4, %rax
0x40008073c2:  4c 8b 24 06              movq     (%rsi, %rax), %r12
0x40008073c6:  48 8b 85 08 ff ff ff     movq     -0xf8(%rbp), %rax
0x40008073cd:  4d 85 e4                 testq    %r12, %r12
0x40008073d0:  75 1c                    jne      0x40008073ee

----------------
IN: 
0x40008073ee:  41 f6 84 24 15 03 00 00  testb    $0x20, 0x315(%r12)
0x40008073f6:  20
0x40008073f7:  75 e7                    jne      0x40008073e0

----------------
IN: 
0x40008073f9:  4d 39 bc 24 98 03 00 00  cmpq     %r15, 0x398(%r12)
0x4000807401:  75 dd                    jne      0x40008073e0

----------------
IN: 
0x40008073e0:  4d 8b 64 24 18           movq     0x18(%r12), %r12
0x40008073e5:  4d 85 e4                 testq    %r12, %r12
0x40008073e8:  0f 84 ba 00 00 00        je       0x40008074a8

----------------
IN: 
0x40008074a8:  48 83 7d 28 00           cmpq     $0, 0x28(%rbp)
0x40008074ad:  0f 85 c5 0b 00 00        jne      0x4000808078

----------------
IN: 
0x40008074b3:  f6 45 18 04              testb    $4, 0x18(%rbp)
0x40008074b7:  0f 85 a9 0d 00 00        jne      0x4000808266

----------------
IN: 
0x40008074bd:  f6 05 dc f7 21 00 40     testb    $0x40, 0x21f7dc(%rip)
0x40008074c4:  0f 85 33 05 00 00        jne      0x40008079fd

----------------
IN: 
0x40008074ca:  48 8b 85 28 ff ff ff     movq     -0xd8(%rbp), %rax
0x40008074d1:  8b 40 18                 movl     0x18(%rax), %eax
0x40008074d4:  85 c0                    testl    %eax, %eax
0x40008074d6:  0f 84 94 01 00 00        je       0x4000807670

----------------
IN: 
0x40008074dc:  83 f8 01                 cmpl     $1, %eax
0x40008074df:  0f 85 eb 13 00 00        jne      0x40008088d0

----------------
IN: 
0x40008074e5:  c6 85 23 ff ff ff 00     movb     $0, -0xdd(%rbp)
0x40008074ec:  4c 8b 4d 28              movq     0x28(%rbp), %r9
0x40008074f0:  44 8b 45 18              movl     0x18(%rbp), %r8d
0x40008074f4:  48 89 d9                 movq     %rbx, %rcx
0x40008074f7:  8b 55 10                 movl     0x10(%rbp), %edx
0x40008074fa:  48 8b b5 38 ff ff ff     movq     -0xc8(%rbp), %rsi
0x4000807501:  48 8b bd 30 ff ff ff     movq     -0xd0(%rbp), %rdi
0x4000807508:  e8 83 56 00 00           callq    0x400080cb90

----------------
IN: 
0x400080cce1:  48 05 b8 02 00 00        addq     $0x2b8, %rax
0x400080cce7:  4d 85 ed                 testq    %r13, %r13
0x400080ccea:  49 89 86 58 03 00 00     movq     %rax, 0x358(%r14)
0x400080ccf1:  0f 84 d9 01 00 00        je       0x400080ced0

----------------
IN: 
0x400080ccf7:  be 01 00 00 00           movl     $1, %esi
0x400080ccfc:  eb 05                    jmp      0x400080cd03

----------------
IN: 
0x400080cd03:  49 8b 85 d8 02 00 00     movq     0x2d8(%r13), %rax
0x400080cd0a:  48 85 c0                 testq    %rax, %rax
0x400080cd0d:  75 f1                    jne      0x400080cd00

----------------
IN: 
0x400080cd0f:  85 f6                    testl    %esi, %esi
0x400080cd11:  0f 85 19 01 00 00        jne      0x400080ce30

----------------
IN: 
0x400080ce30:  49 8b 86 58 03 00 00     movq     0x358(%r14), %rax
0x400080ce37:  49 8d 8d b8 02 00 00     leaq     0x2b8(%r13), %rcx
0x400080ce3e:  49 8d b6 b8 02 00 00     leaq     0x2b8(%r14), %rsi
0x400080ce45:  48 39 c8                 cmpq     %rcx, %rax
0x400080ce48:  0f 84 ee fe ff ff        je       0x400080cd3c

----------------
IN: 
0x400080cd3c:  84 d2                    testb    %dl, %dl
0x400080cd3e:  49 89 b6 88 03 00 00     movq     %rsi, 0x388(%r14)
0x400080cd45:  4c 89 f0                 movq     %r14, %rax
0x400080cd48:  88 54 24 10              movb     %dl, 0x10(%rsp)
0x400080cd4c:  0f 84 88 00 00 00        je       0x400080cdda

----------------
IN: 
0x400080cd52:  48 8b 3c 24              movq     (%rsp), %rdi
0x400080cd56:  45 31 ff                 xorl     %r15d, %r15d
0x400080cd59:  e8 b2 11 01 00           callq    0x400081df10

----------------
IN: 
0x400080cd5e:  0f b6 54 24 10           movzbl   0x10(%rsp), %edx
0x400080cd63:  49 89 c4                 movq     %rax, %r12
0x400080cd66:  48 8d 40 01              leaq     1(%rax), %rax
0x400080cd6a:  48 89 44 24 08           movq     %rax, 8(%rsp)
0x400080cd6f:  48 89 c3                 movq     %rax, %rbx
0x400080cd72:  80 fa 2f                 cmpb     $0x2f, %dl
0x400080cd75:  75 30                    jne      0x400080cda7

----------------
IN: 
0x400080cd77:  e9 70 01 00 00           jmp      0x400080ceec

----------------
IN: 
0x400080ceec:  48 89 c7                 movq     %rax, %rdi
0x400080ceef:  e8 8c 4b ff ff           callq    0x4000801a80

----------------
IN: 
0x400080cef4:  48 85 c0                 testq    %rax, %rax
0x400080cef7:  49 89 c5                 movq     %rax, %r13
0x400080cefa:  74 0c                    je       0x400080cf08

----------------
IN: 
0x400080cefc:  48 89 c7                 movq     %rax, %rdi
0x400080ceff:  eb 89                    jmp      0x400080ce8a

----------------
IN: 
0x400080ce8a:  48 8b 54 24 08           movq     8(%rsp), %rdx
0x400080ce8f:  48 8b 34 24              movq     (%rsp), %rsi
0x400080ce93:  e8 d8 1d 01 00           callq    0x400081ec70

----------------
IN: 
0x400081ecf0:  89 f1                    movl     %esi, %ecx
0x400081ecf2:  83 e1 07                 andl     $7, %ecx
0x400081ecf5:  74 29                    je       0x400081ed20

----------------
IN: 
0x400081ed20:  48 81 fa 00 04 00 00     cmpq     $0x400, %rdx
0x400081ed27:  77 77                    ja       0x400081eda0

----------------
IN: 
0x400081ed29:  89 d1                    movl     %edx, %ecx
0x400081ed2b:  c1 e9 05                 shrl     $5, %ecx
0x400081ed2e:  74 60                    je       0x400081ed90

----------------
IN: 
0x400081ed30:  ff c9                    decl     %ecx
0x400081ed32:  48 8b 06                 movq     (%rsi), %rax
0x400081ed35:  4c 8b 46 08              movq     8(%rsi), %r8
0x400081ed39:  4c 8b 4e 10              movq     0x10(%rsi), %r9
0x400081ed3d:  4c 8b 56 18              movq     0x18(%rsi), %r10
0x400081ed41:  48 89 07                 movq     %rax, (%rdi)
0x400081ed44:  4c 89 47 08              movq     %r8, 8(%rdi)
0x400081ed48:  4c 89 4f 10              movq     %r9, 0x10(%rdi)
0x400081ed4c:  4c 89 57 18              movq     %r10, 0x18(%rdi)
0x400081ed50:  48 8d 76 20              leaq     0x20(%rsi), %rsi
0x400081ed54:  48 8d 7f 20              leaq     0x20(%rdi), %rdi
0x400081ed58:  74 36                    je       0x400081ed90

----------------
IN: 
0x400081ed90:  83 e2 1f                 andl     $0x1f, %edx
0x400081ed93:  0f 85 dd fe ff ff        jne      0x400081ec76

----------------
IN: 
0x400081ed99:  48 89 f8                 movq     %rdi, %rax
0x400081ed9c:  c3                       retq     

----------------
IN: 
0x400080ce98:  eb 09                    jmp      0x400080cea3

----------------
IN: 
0x400080cea3:  80 78 ff 2f              cmpb     $0x2f, -1(%rax)
0x400080cea7:  48 8d 50 ff              leaq     -1(%rax), %rdx
0x400080ceab:  75 f3                    jne      0x400080cea0

----------------
IN: 
0x400080cea0:  48 89 d0                 movq     %rdx, %rax
0x400080cea3:  80 78 ff 2f              cmpb     $0x2f, -1(%rax)
0x400080cea7:  48 8d 50 ff              leaq     -1(%rax), %rdx
0x400080ceab:  75 f3                    jne      0x400080cea0

----------------
IN: 
0x400080cead:  49 39 d5                 cmpq     %rdx, %r13
0x400080ceb0:  48 0f 44 d0              cmoveq   %rax, %rdx
0x400080ceb4:  c6 02 00                 movb     $0, (%rdx)
0x400080ceb7:  e9 14 ff ff ff           jmp      0x400080cdd0

----------------
IN: 
0x400080cdd0:  4d 89 ae 38 03 00 00     movq     %r13, 0x338(%r14)
0x400080cdd7:  4c 89 f0                 movq     %r14, %rax
0x400080cdda:  48 83 c4 28              addq     $0x28, %rsp
0x400080cdde:  5b                       popq     %rbx
0x400080cddf:  5d                       popq     %rbp
0x400080cde0:  41 5c                    popq     %r12
0x400080cde2:  41 5d                    popq     %r13
0x400080cde4:  41 5e                    popq     %r14
0x400080cde6:  41 5f                    popq     %r15
0x400080cde8:  c3                       retq     

----------------
IN: 
0x400080750d:  48 85 c0                 testq    %rax, %rax
0x4000807510:  49 89 c4                 movq     %rax, %r12
0x4000807513:  0f 84 df 0b 00 00        je       0x40008080f8

----------------
IN: 
0x4000807519:  48 8b bd 00 ff ff ff     movq     -0x100(%rbp), %rdi
0x4000807520:  48 8b 47 20              movq     0x20(%rdi), %rax
0x4000807524:  0f b7 77 18              movzwl   0x18(%rdi), %esi
0x4000807528:  49 89 84 24 a8 02 00 00  movq     %rax, 0x2a8(%r12)
0x4000807530:  0f b7 47 40              movzwl   0x40(%rdi), %eax
0x4000807534:  66 89 b5 d0 fe ff ff     movw     %si, -0x130(%rbp)
0x400080753b:  48 8b 77 28              movq     0x28(%rdi), %rsi
0x400080753f:  48 8d 14 c5 00 00 00 00  leaq     (, %rax, 8), %rdx
0x4000807547:  48 89 c3                 movq     %rax, %rbx
0x400080754a:  66 41 89 84 24 b0 02 00  movw     %ax, 0x2b0(%r12)
0x4000807552:  00
0x4000807553:  48 c1 e3 06              shlq     $6, %rbx
0x4000807557:  48 29 d3                 subq     %rdx, %rbx
0x400080755a:  48 8d 14 33              leaq     (%rbx, %rsi), %rdx
0x400080755e:  48 3b 17                 cmpq     (%rdi), %rdx
0x4000807561:  0f 87 09 05 00 00        ja       0x4000807a70

----------------
IN: 
0x4000807567:  4c 8d 6c 37 08           leaq     8(%rdi, %rsi), %r13
0x400080756c:  48 8d 14 40              leaq     (%rax, %rax, 2), %rdx
0x4000807570:  48 89 a5 e8 fe ff ff     movq     %rsp, -0x118(%rbp)
0x4000807577:  4c 01 eb                 addq     %r13, %rbx
0x400080757a:  48 c1 e2 04              shlq     $4, %rdx
0x400080757e:  48 83 c2 16              addq     $0x16, %rdx
0x4000807582:  81 e2 f0 ff ff 00        andl     $0xfffff0, %edx
0x4000807588:  48 29 d4                 subq     %rdx, %rsp
0x400080758b:  48 8d 54 24 07           leaq     7(%rsp), %rdx
0x4000807590:  48 c1 ea 03              shrq     $3, %rdx
0x4000807594:  49 39 dd                 cmpq     %rbx, %r13
0x4000807597:  48 8d 3c d5 00 00 00 00  leaq     (, %rdx, 8), %rdi
0x400080759f:  48 89 95 e0 fe ff ff     movq     %rdx, -0x120(%rbp)
0x40008075a6:  48 89 bd f0 fe ff ff     movq     %rdi, -0x110(%rbp)
0x40008075ad:  0f 83 6f 0c 00 00        jae      0x4000808222

----------------
IN: 
0x40008075b3:  8b 75 18                 movl     0x18(%rbp), %esi
0x40008075b6:  4c 89 bd d8 fe ff ff     movq     %r15, -0x128(%rbp)
0x40008075bd:  4c 89 eb                 movq     %r13, %rbx
0x40008075c0:  c6 85 18 ff ff ff 00     movb     $0, -0xe8(%rbp)
0x40008075c7:  45 31 f6                 xorl     %r14d, %r14d
0x40008075ca:  48 c7 85 10 ff ff ff 07  movq     $7, -0xf0(%rbp)
0x40008075d2:  00 00 00
0x40008075d5:  49 89 ff                 movq     %rdi, %r15
0x40008075d8:  81 e6 00 00 00 08        andl     $0x8000000, %esi
0x40008075de:  89 b5 cc fe ff ff        movl     %esi, -0x134(%rbp)
0x40008075e4:  eb 54                    jmp      0x400080763a

----------------
IN: 
0x400080763a:  8b 13                    movl     (%rbx), %edx
0x400080763c:  83 fa 06                 cmpl     $6, %edx
0x400080763f:  0f 84 2b 01 00 00        je       0x4000807770

----------------
IN: 
0x4000807770:  48 8b 53 10              movq     0x10(%rbx), %rdx
0x4000807774:  49 89 94 24 a0 02 00 00  movq     %rdx, 0x2a0(%r12)
0x400080777c:  e9 97 fe ff ff           jmp      0x4000807618

----------------
IN: 
0x4000807618:  48 8d 0c c5 00 00 00 00  leaq     (, %rax, 8), %rcx
0x4000807620:  48 89 c2                 movq     %rax, %rdx
0x4000807623:  48 83 c3 38              addq     $0x38, %rbx
0x4000807627:  48 c1 e2 06              shlq     $6, %rdx
0x400080762b:  48 29 ca                 subq     %rcx, %rdx
0x400080762e:  4c 01 ea                 addq     %r13, %rdx
0x4000807631:  48 39 d3                 cmpq     %rdx, %rbx
0x4000807634:  0f 83 06 02 00 00        jae      0x4000807840

----------------
IN: 
0x4000807645:  77 a9                    ja       0x40008075f0

----------------
IN: 
0x4000807647:  83 fa 01                 cmpl     $1, %edx
0x400080764a:  74 64                    je       0x40008076b0

----------------
IN: 
0x400080764c:  83 fa 02                 cmpl     $2, %edx
0x400080764f:  75 c7                    jne      0x4000807618

----------------
IN: 
0x40008076b0:  48 8b 15 01 f6 21 00     movq     0x21f601(%rip), %rdx
0x40008076b7:  48 8b 7b 30              movq     0x30(%rbx), %rdi
0x40008076bb:  48 8d 4a ff              leaq     -1(%rdx), %rcx
0x40008076bf:  48 85 cf                 testq    %rdi, %rcx
0x40008076c2:  0f 85 58 03 00 00        jne      0x4000807a20

----------------
IN: 
0x40008076c8:  48 8b 73 10              movq     0x10(%rbx), %rsi
0x40008076cc:  4c 8b 4b 08              movq     8(%rbx), %r9
0x40008076d0:  48 83 ef 01              subq     $1, %rdi
0x40008076d4:  49 89 f0                 movq     %rsi, %r8
0x40008076d7:  4d 29 c8                 subq     %r9, %r8
0x40008076da:  49 85 f8                 testq    %r8, %rdi
0x40008076dd:  0f 85 ed 03 00 00        jne      0x4000807ad0

----------------
IN: 
0x40008076e3:  4f 8d 04 76              leaq     (%r14, %r14, 2), %r8
0x40008076e7:  48 f7 da                 negq     %rdx
0x40008076ea:  49 89 f3                 movq     %rsi, %r11
0x40008076ed:  49 21 d3                 andq     %rdx, %r11
0x40008076f0:  4d 8d 56 01              leaq     1(%r14), %r10
0x40008076f4:  49 c1 e0 04              shlq     $4, %r8
0x40008076f8:  4b 8d 3c 07              leaq     (%r15, %r8), %rdi
0x40008076fc:  4c 89 1f                 movq     %r11, (%rdi)
0x40008076ff:  49 89 f3                 movq     %rsi, %r11
0x4000807702:  4c 03 5b 20              addq     0x20(%rbx), %r11
0x4000807706:  48 03 73 28              addq     0x28(%rbx), %rsi
0x400080770a:  4c 01 d9                 addq     %r11, %rcx
0x400080770d:  4c 89 5f 10              movq     %r11, 0x10(%rdi)
0x4000807711:  48 21 d1                 andq     %rdx, %rcx
0x4000807714:  4c 21 ca                 andq     %r9, %rdx
0x4000807717:  49 83 fa 01              cmpq     $1, %r10
0x400080771b:  48 89 4f 08              movq     %rcx, 8(%rdi)
0x400080771f:  48 89 77 18              movq     %rsi, 0x18(%rdi)
0x4000807723:  48 89 57 20              movq     %rdx, 0x20(%rdi)
0x4000807727:  76 1e                    jbe      0x4000807747

----------------
IN: 
0x4000807747:  8b 4b 04                 movl     4(%rbx), %ecx
0x400080774a:  4b 8d 34 76              leaq     (%r14, %r14, 2), %rsi
0x400080774e:  ba 40 62 51 73           movl     $0x73516240, %edx
0x4000807753:  4d 89 d6                 movq     %r10, %r14
0x4000807756:  48 c1 e6 04              shlq     $4, %rsi
0x400080775a:  83 e1 07                 andl     $7, %ecx
0x400080775d:  c1 e1 02                 shll     $2, %ecx
0x4000807760:  d3 fa                    sarl     %cl, %edx
0x4000807762:  83 e2 0f                 andl     $0xf, %edx
0x4000807765:  41 89 54 37 28           movl     %edx, 0x28(%r15, %rsi)
0x400080776a:  e9 a9 fe ff ff           jmp      0x4000807618

----------------
IN: 
0x4000807729:  48 8b 37                 movq     (%rdi), %rsi
0x400080772c:  4b 39 74 07 d8           cmpq     %rsi, -0x28(%r15, %r8)
0x4000807731:  ba 01 00 00 00           movl     $1, %edx
0x4000807736:  0f b6 b5 18 ff ff ff     movzbl   -0xe8(%rbp), %esi
0x400080773d:  0f 45 f2                 cmovnel  %edx, %esi
0x4000807740:  40 88 b5 18 ff ff ff     movb     %sil, -0xe8(%rbp)
0x4000807747:  8b 4b 04                 movl     4(%rbx), %ecx
0x400080774a:  4b 8d 34 76              leaq     (%r14, %r14, 2), %rsi
0x400080774e:  ba 40 62 51 73           movl     $0x73516240, %edx
0x4000807753:  4d 89 d6                 movq     %r10, %r14
0x4000807756:  48 c1 e6 04              shlq     $4, %rsi
0x400080775a:  83 e1 07                 andl     $7, %ecx
0x400080775d:  c1 e1 02                 shll     $2, %ecx
0x4000807760:  d3 fa                    sarl     %cl, %edx
0x4000807762:  83 e2 0f                 andl     $0xf, %edx
0x4000807765:  41 89 54 37 28           movl     %edx, 0x28(%r15, %rsi)
0x400080776a:  e9 a9 fe ff ff           jmp      0x4000807618

----------------
IN: 
0x4000807651:  48 8b 53 10              movq     0x10(%rbx), %rdx
0x4000807655:  49 89 54 24 10           movq     %rdx, 0x10(%r12)
0x400080765a:  48 8b 53 28              movq     0x28(%rbx), %rdx
0x400080765e:  48 c1 ea 04              shrq     $4, %rdx
0x4000807662:  66 41 89 94 24 b2 02 00  movw     %dx, 0x2b2(%r12)
0x400080766a:  00
0x400080766b:  eb ab                    jmp      0x4000807618

----------------
IN: 
0x40008075f0:  81 fa 51 e5 74 64        cmpl     $0x6474e551, %edx
0x40008075f6:  0f 84 34 02 00 00        je       0x4000807830

----------------
IN: 
0x40008075fc:  81 fa 52 e5 74 64        cmpl     $0x6474e552, %edx
0x4000807602:  0f 84 00 02 00 00        je       0x4000807808

----------------
IN: 
0x4000807608:  83 fa 07                 cmpl     $7, %edx
0x400080760b:  0f 84 77 01 00 00        je       0x4000807788

----------------
IN: 
0x4000807788:  48 8b 53 28              movq     0x28(%rbx), %rdx
0x400080778c:  48 85 d2                 testq    %rdx, %rdx
0x400080778f:  0f 84 83 fe ff ff        je       0x4000807618

----------------
IN: 
0x4000807795:  49 89 94 24 28 04 00 00  movq     %rdx, 0x428(%r12)
0x400080779d:  48 8b 53 30              movq     0x30(%rbx), %rdx
0x40008077a1:  48 85 d2                 testq    %rdx, %rdx
0x40008077a4:  49 89 94 24 30 04 00 00  movq     %rdx, 0x430(%r12)
0x40008077ac:  48 8b 4b 10              movq     0x10(%rbx), %rcx
0x40008077b0:  74 07                    je       0x40008077b9

----------------
IN: 
0x40008077b2:  48 83 ea 01              subq     $1, %rdx
0x40008077b6:  48 21 ca                 andq     %rcx, %rdx
0x40008077b9:  49 89 94 24 38 04 00 00  movq     %rdx, 0x438(%r12)
0x40008077c1:  48 8b 53 20              movq     0x20(%rbx), %rdx
0x40008077c5:  49 89 8c 24 18 04 00 00  movq     %rcx, 0x418(%r12)
0x40008077cd:  49 89 94 24 20 04 00 00  movq     %rdx, 0x420(%r12)
0x40008077d5:  41 0f b6 94 24 14 03 00  movzbl   0x314(%r12), %edx
0x40008077dd:  00
0x40008077de:  83 e2 03                 andl     $3, %edx
0x40008077e1:  80 fa 01                 cmpb     $1, %dl
0x40008077e4:  0f 85 f6 07 00 00        jne      0x4000807fe0

----------------
IN: 
0x40008077ea:  e8 81 c9 00 00           callq    0x4000814170

----------------
IN: 
0x4000814170:  48 83 ec 08              subq     $8, %rsp
0x4000814174:  80 3d e9 3d 21 00 00     cmpb     $0, 0x213de9(%rip)
0x400081417b:  75 1b                    jne      0x4000814198

----------------
IN: 
0x400081417d:  48 8b 05 e4 3d 21 00     movq     0x213de4(%rip), %rax
0x4000814184:  48 83 c0 01              addq     $1, %rax
0x4000814188:  48 89 05 d9 3d 21 00     movq     %rax, 0x213dd9(%rip)
0x400081418f:  48 83 c4 08              addq     $8, %rsp
0x4000814193:  c3                       retq     

----------------
IN: 
0x40008077ef:  49 89 84 24 48 04 00 00  movq     %rax, 0x448(%r12)
0x40008077f7:  41 0f b7 84 24 b0 02 00  movzwl   0x2b0(%r12), %eax
0x40008077ff:  00
0x4000807800:  e9 13 fe ff ff           jmp      0x4000807618

----------------
IN: 
0x4000807611:  0f 1f 80 00 00 00 00     nopl     (%rax)
0x4000807618:  48 8d 0c c5 00 00 00 00  leaq     (, %rax, 8), %rcx
0x4000807620:  48 89 c2                 movq     %rax, %rdx
0x4000807623:  48 83 c3 38              addq     $0x38, %rbx
0x4000807627:  48 c1 e2 06              shlq     $6, %rdx
0x400080762b:  48 29 ca                 subq     %rcx, %rdx
0x400080762e:  4c 01 ea                 addq     %r13, %rdx
0x4000807631:  48 39 d3                 cmpq     %rdx, %rbx
0x4000807634:  0f 83 06 02 00 00        jae      0x4000807840

----------------
IN: 
0x4000807830:  8b 73 04                 movl     4(%rbx), %esi
0x4000807833:  48 89 b5 10 ff ff ff     movq     %rsi, -0xf0(%rbp)
0x400080783a:  e9 d9 fd ff ff           jmp      0x4000807618

----------------
IN: 
0x4000807808:  48 8b 43 10              movq     0x10(%rbx), %rax
0x400080780c:  49 89 84 24 58 04 00 00  movq     %rax, 0x458(%r12)
0x4000807814:  48 8b 43 28              movq     0x28(%rbx), %rax
0x4000807818:  49 89 84 24 60 04 00 00  movq     %rax, 0x460(%r12)
0x4000807820:  41 0f b7 84 24 b0 02 00  movzwl   0x2b0(%r12), %eax
0x4000807828:  00
0x4000807829:  e9 ea fd ff ff           jmp      0x4000807618

----------------
IN: 
0x4000807840:  4d 85 f6                 testq    %r14, %r14
0x4000807843:  4c 8b bd d8 fe ff ff     movq     -0x128(%rbp), %r15
0x400080784a:  0f 84 d2 09 00 00        je       0x4000808222

----------------
IN: 
0x4000807850:  0f b7 85 d0 fe ff ff     movzwl   -0x130(%rbp), %eax
0x4000807857:  83 f8 03                 cmpl     $3, %eax
0x400080785a:  89 85 cc fe ff ff        movl     %eax, -0x134(%rbp)
0x4000807860:  0f 85 ee 0a 00 00        jne      0x4000808354

----------------
IN: 
0x4000807866:  48 8b bd e0 fe ff ff     movq     -0x120(%rbp), %rdi
0x400080786d:  48 8b b5 f0 fe ff ff     movq     -0x110(%rbp), %rsi
0x4000807874:  4b 8d 44 76 fd           leaq     -3(%r14, %r14, 2), %rax
0x4000807879:  44 8b 85 24 ff ff ff     movl     -0xdc(%rbp), %r8d
0x4000807880:  b9 02 08 00 00           movl     $0x802, %ecx
0x4000807885:  48 c1 e0 04              shlq     $4, %rax
0x4000807889:  4c 8b 14 fd 00 00 00 00  movq     (, %rdi, 8), %r10
0x4000807891:  48 8b 44 06 18           movq     0x18(%rsi, %rax), %rax
0x4000807896:  8b 1c fd 28 00 00 00     movl     0x28(, %rdi, 8), %ebx
0x400080789d:  4c 29 d0                 subq     %r10, %rax
0x40008078a0:  4c 89 95 d0 fe ff ff     movq     %r10, -0x130(%rbp)
0x40008078a7:  48 89 c6                 movq     %rax, %rsi
0x40008078aa:  48 89 85 d8 fe ff ff     movq     %rax, -0x128(%rbp)
0x40008078b1:  48 89 f8                 movq     %rdi, %rax
0x40008078b4:  4c 89 d7                 movq     %r10, %rdi
0x40008078b7:  48 23 3d b2 f4 21 00     andq     0x21f4b2(%rip), %rdi
0x40008078be:  4c 8b 0c c5 20 00 00 00  movq     0x20(, %rax, 8), %r9
0x40008078c6:  89 da                    movl     %ebx, %edx
0x40008078c8:  e8 f3 4a 01 00           callq    0x400081c3c0

----------------
IN: 
0x400081c415:  f6 05 3e a9 20 00 01     testb    $1, 0x20a93e(%rip)
0x400081c41c:  49 63 e8                 movslq   %r8d, %rbp
0x400081c41f:  48 63 da                 movslq   %edx, %rbx
0x400081c422:  74 bd                    je       0x400081c3e1

----------------
IN: 
0x400081c3e1:  4d 89 f9                 movq     %r15, %r9
0x400081c3e4:  49 89 e8                 movq     %rbp, %r8
0x400081c3e7:  4d 63 d6                 movslq   %r14d, %r10
0x400081c3ea:  48 89 da                 movq     %rbx, %rdx
0x400081c3ed:  4c 89 ee                 movq     %r13, %rsi
0x400081c3f0:  4c 89 e7                 movq     %r12, %rdi
0x400081c3f3:  b8 09 00 00 00           movl     $9, %eax
0x400081c3f8:  0f 05                    syscall  

----------------
IN: 
0x40008078cd:  48 83 f8 ff              cmpq     $0xff, %rax
0x40008078d1:  49 89 84 24 40 03 00 00  movq     %rax, 0x340(%r12)
0x40008078d9:  4c 8b 95 d0 fe ff ff     movq     -0x130(%rbp), %r10
0x40008078e0:  0f 84 0c 01 00 00        je       0x40008079f2

----------------
IN: 
0x40008078e6:  48 8b bd d8 fe ff ff     movq     -0x128(%rbp), %rdi
0x40008078ed:  48 8d 14 07              leaq     (%rdi, %rax), %rdx
0x40008078f1:  4c 29 d0                 subq     %r10, %rax
0x40008078f4:  80 bd 18 ff ff ff 00     cmpb     $0, -0xe8(%rbp)
0x40008078fb:  49 89 04 24              movq     %rax, (%r12)
0x40008078ff:  49 89 94 24 48 03 00 00  movq     %rdx, 0x348(%r12)
0x4000807907:  0f 85 23 09 00 00        jne      0x4000808230

----------------
IN: 
0x4000808230:  48 8b b5 e0 fe ff ff     movq     -0x120(%rbp), %rsi
0x4000808237:  4b 8d 0c 76              leaq     (%r14, %r14, 2), %rcx
0x400080823b:  48 c1 e1 04              shlq     $4, %rcx
0x400080823f:  48 8b 14 f5 08 00 00 00  movq     8(, %rsi, 8), %rdx
0x4000808247:  48 8b b5 f0 fe ff ff     movq     -0x110(%rbp), %rsi
0x400080824e:  48 8b 74 0e d0           movq     -0x30(%rsi, %rcx), %rsi
0x4000808253:  48 8d 3c 10              leaq     (%rax, %rdx), %rdi
0x4000808257:  48 29 d6                 subq     %rdx, %rsi
0x400080825a:  31 d2                    xorl     %edx, %edx
0x400080825c:  e8 2f 42 01 00           callq    0x400081c490

----------------
IN: 
0x400081c490:  b8 0a 00 00 00           movl     $0xa, %eax
0x400081c495:  0f 05                    syscall  

----------------
IN: 
0x400081c497:  48 3d 01 f0 ff ff        cmpq     $-0xfff, %rax
0x400081c49d:  73 01                    jae      0x400081c4a0

----------------
IN: 
0x400081c49f:  c3                       retq     

----------------
IN: 
0x4000808261:  e9 a7 f6 ff ff           jmp      0x400080790d

----------------
IN: 
0x400080790d:  41 80 8c 24 15 03 00 00  orb      $0x40, 0x315(%r12)
0x4000807915:  40
0x4000807916:  4c 8b 95 f0 fe ff ff     movq     -0x110(%rbp), %r10
0x400080791d:  f6 c3 04                 testb    $4, %bl
0x4000807920:  74 10                    je       0x4000807932

----------------
IN: 
0x4000807922:  49 8b 42 08              movq     8(%r10), %rax
0x4000807926:  49 03 04 24              addq     (%r12), %rax
0x400080792a:  49 89 84 24 50 03 00 00  movq     %rax, 0x350(%r12)
0x4000807932:  49 83 bc 24 a0 02 00 00  cmpq     $0, 0x2a0(%r12)
0x400080793a:  00
0x400080793b:  0f 84 43 09 00 00        je       0x4000808284

----------------
IN: 
0x4000807941:  49 8b 42 18              movq     0x18(%r10), %rax
0x4000807945:  49 8b 4a 10              movq     0x10(%r10), %rcx
0x4000807949:  48 39 c8                 cmpq     %rcx, %rax
0x400080794c:  76 38                    jbe      0x4000807986

----------------
IN: 
0x4000807986:  49 83 c2 30              addq     $0x30, %r10
0x400080798a:  4b 8d 04 76              leaq     (%r14, %r14, 2), %rax
0x400080798e:  48 c1 e0 04              shlq     $4, %rax
0x4000807992:  48 03 85 f0 fe ff ff     addq     -0x110(%rbp), %rax
0x4000807999:  49 39 c2                 cmpq     %rax, %r10
0x400080799c:  0f 83 bc 01 00 00        jae      0x4000807b5e

----------------
IN: 
0x40008079a2:  49 8b 52 08              movq     8(%r10), %rdx
0x40008079a6:  49 8b 02                 movq     (%r10), %rax
0x40008079a9:  41 8b 5a 28              movl     0x28(%r10), %ebx
0x40008079ad:  48 39 c2                 cmpq     %rax, %rdx
0x40008079b0:  0f 86 67 ff ff ff        jbe      0x400080791d

----------------
IN: 
0x40008079b6:  48 89 d6                 movq     %rdx, %rsi
0x40008079b9:  4d 8b 4a 20              movq     0x20(%r10), %r9
0x40008079bd:  44 8b 85 24 ff ff ff     movl     -0xdc(%rbp), %r8d
0x40008079c4:  48 29 c6                 subq     %rax, %rsi
0x40008079c7:  49 03 04 24              addq     (%r12), %rax
0x40008079cb:  b9 12 08 00 00           movl     $0x812, %ecx
0x40008079d0:  89 da                    movl     %ebx, %edx
0x40008079d2:  4c 89 95 18 ff ff ff     movq     %r10, -0xe8(%rbp)
0x40008079d9:  48 89 c7                 movq     %rax, %rdi
0x40008079dc:  e8 df 49 01 00           callq    0x400081c3c0

----------------
IN: 
0x40008079e1:  48 83 f8 ff              cmpq     $0xff, %rax
0x40008079e5:  4c 8b 95 18 ff ff ff     movq     -0xe8(%rbp), %r10
0x40008079ec:  0f 85 2b ff ff ff        jne      0x400080791d

----------------
IN: 
0x400080791d:  f6 c3 04                 testb    $4, %bl
0x4000807920:  74 10                    je       0x4000807932

----------------
IN: 
0x4000807932:  49 83 bc 24 a0 02 00 00  cmpq     $0, 0x2a0(%r12)
0x400080793a:  00
0x400080793b:  0f 84 43 09 00 00        je       0x4000808284

----------------
IN: 
0x400080794e:  4d 8b 04 24              movq     (%r12), %r8
0x4000807952:  48 8b 35 5f f3 21 00     movq     0x21f35f(%rip), %rsi
0x4000807959:  4c 01 c1                 addq     %r8, %rcx
0x400080795c:  49 01 c0                 addq     %rax, %r8
0x400080795f:  48 89 f0                 movq     %rsi, %rax
0x4000807962:  4c 8d 5c 31 ff           leaq     -1(%rcx, %rsi), %r11
0x4000807967:  48 f7 d8                 negq     %rax
0x400080796a:  49 21 c3                 andq     %rax, %r11
0x400080796d:  4d 39 d8                 cmpq     %r11, %r8
0x4000807970:  4d 0f 46 d8              cmovbeq  %r8, %r11
0x4000807974:  49 39 cb                 cmpq     %rcx, %r11
0x4000807977:  0f 87 bd 07 00 00        ja       0x400080813a

----------------
IN: 
0x400080813a:  f6 c3 02                 testb    $2, %bl
0x400080813d:  0f 84 1d 05 00 00        je       0x4000808660

----------------
IN: 
0x4000808143:  4c 89 da                 movq     %r11, %rdx
0x4000808146:  31 f6                    xorl     %esi, %esi
0x4000808148:  48 89 cf                 movq     %rcx, %rdi
0x400080814b:  48 29 ca                 subq     %rcx, %rdx
0x400080814e:  4c 89 85 d0 fe ff ff     movq     %r8, -0x130(%rbp)
0x4000808155:  4c 89 95 e0 fe ff ff     movq     %r10, -0x120(%rbp)
0x400080815c:  4c 89 9d 18 ff ff ff     movq     %r11, -0xe8(%rbp)
0x4000808163:  e8 18 6a 01 00           callq    0x400081eb80

----------------
IN: 
0x400081ebd0:  48 8d 4f 40              leaq     0x40(%rdi), %rcx
0x400081ebd4:  f3 0f 7f 07              movdqu   %xmm0, (%rdi)
0x400081ebd8:  48 83 e1 c0              andq     $0xffffffc0, %rcx
0x400081ebdc:  f3 0f 7f 44 17 f0        movdqu   %xmm0, -0x10(%rdi, %rdx)
0x400081ebe2:  f3 0f 7f 47 10           movdqu   %xmm0, 0x10(%rdi)
0x400081ebe7:  f3 0f 7f 44 17 e0        movdqu   %xmm0, -0x20(%rdi, %rdx)
0x400081ebed:  f3 0f 7f 47 20           movdqu   %xmm0, 0x20(%rdi)
0x400081ebf2:  f3 0f 7f 44 17 d0        movdqu   %xmm0, -0x30(%rdi, %rdx)
0x400081ebf8:  f3 0f 7f 47 30           movdqu   %xmm0, 0x30(%rdi)
0x400081ebfd:  f3 0f 7f 44 17 c0        movdqu   %xmm0, -0x40(%rdi, %rdx)
0x400081ec03:  48 01 fa                 addq     %rdi, %rdx
0x400081ec06:  48 83 e2 c0              andq     $0xffffffc0, %rdx
0x400081ec0a:  48 39 d1                 cmpq     %rdx, %rcx
0x400081ec0d:  74 a5                    je       0x400081ebb4

----------------
IN: 
0x400081ec0f:  90                       nop      
0x400081ec10:  66 0f 7f 01              movdqa   %xmm0, (%rcx)
0x400081ec14:  66 0f 7f 41 10           movdqa   %xmm0, 0x10(%rcx)
0x400081ec19:  66 0f 7f 41 20           movdqa   %xmm0, 0x20(%rcx)
0x400081ec1e:  66 0f 7f 41 30           movdqa   %xmm0, 0x30(%rcx)
0x400081ec23:  48 83 c1 40              addq     $0x40, %rcx
0x400081ec27:  48 39 ca                 cmpq     %rcx, %rdx
0x400081ec2a:  75 e4                    jne      0x400081ec10

----------------
IN: 
0x400081ec10:  66 0f 7f 01              movdqa   %xmm0, (%rcx)
0x400081ec14:  66 0f 7f 41 10           movdqa   %xmm0, 0x10(%rcx)
0x400081ec19:  66 0f 7f 41 20           movdqa   %xmm0, 0x20(%rcx)
0x400081ec1e:  66 0f 7f 41 30           movdqa   %xmm0, 0x30(%rcx)
0x400081ec23:  48 83 c1 40              addq     $0x40, %rcx
0x400081ec27:  48 39 ca                 cmpq     %rcx, %rdx
0x400081ec2a:  75 e4                    jne      0x400081ec10

----------------
IN: 
0x400081ec2c:  f3 c3                    retq     

----------------
IN: 
0x4000808168:  4c 8b 9d 18 ff ff ff     movq     -0xe8(%rbp), %r11
0x400080816f:  4c 8b 95 e0 fe ff ff     movq     -0x120(%rbp), %r10
0x4000808176:  4c 8b 85 d0 fe ff ff     movq     -0x130(%rbp), %r8
0x400080817d:  e9 fb f7 ff ff           jmp      0x400080797d

----------------
IN: 
0x400080797d:  4d 39 c3                 cmpq     %r8, %r11
0x4000807980:  0f 82 8a 09 00 00        jb       0x4000808310

----------------
IN: 
0x4000808310:  4c 89 c6                 movq     %r8, %rsi
0x4000808313:  45 31 c9                 xorl     %r9d, %r9d
0x4000808316:  41 b8 ff ff ff ff        movl     $0xffffffff, %r8d
0x400080831c:  4c 29 de                 subq     %r11, %rsi
0x400080831f:  b9 32 00 00 00           movl     $0x32, %ecx
0x4000808324:  89 da                    movl     %ebx, %edx
0x4000808326:  4c 89 df                 movq     %r11, %rdi
0x4000808329:  4c 89 95 18 ff ff ff     movq     %r10, -0xe8(%rbp)
0x4000808330:  e8 8b 40 01 00           callq    0x400081c3c0

----------------
IN: 
0x4000808335:  48 83 f8 ff              cmpq     $0xff, %rax
0x4000808339:  4c 8b 95 18 ff ff ff     movq     -0xe8(%rbp), %r10
0x4000808340:  0f 85 40 f6 ff ff        jne      0x4000807986

----------------
IN: 
0x4000807b5e:  49 8b 54 24 10           movq     0x10(%r12), %rdx
0x4000807b63:  48 8b a5 e8 fe ff ff     movq     -0x118(%rbp), %rsp
0x4000807b6a:  48 85 d2                 testq    %rdx, %rdx
0x4000807b6d:  0f 84 6e 08 00 00        je       0x40008083e1

----------------
IN: 
0x4000807b73:  4d 8b 04 24              movq     (%r12), %r8
0x4000807b77:  4c 01 c2                 addq     %r8, %rdx
0x4000807b7a:  48 85 d2                 testq    %rdx, %rdx
0x4000807b7d:  49 89 54 24 10           movq     %rdx, 0x10(%r12)
0x4000807b82:  0f 84 4c 08 00 00        je       0x40008083d4

----------------
IN: 
0x4000807b88:  48 8b 02                 movq     (%rdx), %rax
0x4000807b8b:  49 8d 74 24 40           leaq     0x40(%r12), %rsi
0x4000807b90:  48 85 c0                 testq    %rax, %rax
0x4000807b93:  0f 84 8c 00 00 00        je       0x4000807c25

----------------
IN: 
0x4000807b99:  bf ff ff ff 6f           movl     $0x6fffffff, %edi
0x4000807b9e:  41 bb ff fd ff 6f        movl     $0x6ffffdff, %r11d
0x4000807ba4:  41 be ff fe ff 6f        movl     $0x6ffffeff, %r14d
0x4000807baa:  48 bb a0 f1 ff 7f 03 00  movabsq  $0x37ffff1a0, %rbx
0x4000807bb2:  00 00
0x4000807bb4:  41 ba 31 00 00 00        movl     $0x31, %r10d
0x4000807bba:  41 b9 21 00 00 70        movl     $0x70000021, %r9d
0x4000807bc0:  eb 1f                    jmp      0x4000807be1

----------------
IN: 
0x4000807be1:  48 83 f8 21              cmpq     $0x21, %rax
0x4000807be5:  76 ea                    jbe      0x4000807bd1

----------------
IN: 
0x4000807bd1:  48 89 14 c6              movq     %rdx, (%rsi, %rax, 8)
0x4000807bd5:  48 83 c2 10              addq     $0x10, %rdx
0x4000807bd9:  48 8b 02                 movq     (%rdx), %rax
0x4000807bdc:  48 85 c0                 testq    %rax, %rax
0x4000807bdf:  74 44                    je       0x4000807c25

----------------
IN: 
0x4000807be7:  48 89 f9                 movq     %rdi, %rcx
0x4000807bea:  48 29 c1                 subq     %rax, %rcx
0x4000807bed:  48 83 f9 0f              cmpq     $0xf, %rcx
0x4000807bf1:  76 d5                    jbe      0x4000807bc8

----------------
IN: 
0x4000807bf3:  8d 0c 00                 leal     (%rax, %rax), %ecx
0x4000807bf6:  d1 f9                    sarl     $1, %ecx
0x4000807bf8:  83 f9 fc                 cmpl     $0xfc, %ecx
0x4000807bfb:  76 0b                    jbe      0x4000807c08

----------------
IN: 
0x4000807c08:  4c 89 d9                 movq     %r11, %rcx
0x4000807c0b:  48 29 c1                 subq     %rax, %rcx
0x4000807c0e:  48 83 f9 0b              cmpq     $0xb, %rcx
0x4000807c12:  0f 87 ec 04 00 00        ja       0x4000808104

----------------
IN: 
0x4000808104:  4c 89 f1                 movq     %r14, %rcx
0x4000808107:  48 29 c1                 subq     %rax, %rcx
0x400080810a:  48 83 f9 0a              cmpq     $0xa, %rcx
0x400080810e:  0f 87 c1 fa ff ff        ja       0x4000807bd5

----------------
IN: 
0x4000808114:  48 f7 d8                 negq     %rax
0x4000808117:  48 b9 00 fa ff 7f 03 00  movabsq  $0x37ffffa00, %rcx
0x400080811f:  00 00
0x4000808121:  48 8d 04 c6              leaq     (%rsi, %rax, 8), %rax
0x4000808125:  48 89 14 08              movq     %rdx, (%rax, %rcx)
0x4000808129:  e9 a7 fa ff ff           jmp      0x4000807bd5

----------------
IN: 
0x4000807bd5:  48 83 c2 10              addq     $0x10, %rdx
0x4000807bd9:  48 8b 02                 movq     (%rdx), %rax
0x4000807bdc:  48 85 c0                 testq    %rax, %rax
0x4000807bdf:  74 44                    je       0x4000807c25

----------------
IN: 
0x4000807bc8:  4c 89 c9                 movq     %r9, %rcx
0x4000807bcb:  48 29 c1                 subq     %rax, %rcx
0x4000807bce:  48 89 c8                 movq     %rcx, %rax
0x4000807bd1:  48 89 14 c6              movq     %rdx, (%rsi, %rax, 8)
0x4000807bd5:  48 83 c2 10              addq     $0x10, %rdx
0x4000807bd9:  48 8b 02                 movq     (%rdx), %rax
0x4000807bdc:  48 85 c0                 testq    %rax, %rax
0x4000807bdf:  74 44                    je       0x4000807c25

----------------
IN: 
0x4000807c25:  4d 85 c0                 testq    %r8, %r8
0x4000807c28:  74 79                    je       0x4000807ca3

----------------
IN: 
0x4000807c2a:  49 8b 44 24 60           movq     0x60(%r12), %rax
0x4000807c2f:  48 85 c0                 testq    %rax, %rax
0x4000807c32:  74 04                    je       0x4000807c38

----------------
IN: 
0x4000807c34:  4c 01 40 08              addq     %r8, 8(%rax)
0x4000807c38:  49 8b 44 24 58           movq     0x58(%r12), %rax
0x4000807c3d:  48 85 c0                 testq    %rax, %rax
0x4000807c40:  74 04                    je       0x4000807c46

----------------
IN: 
0x4000807c42:  4c 01 40 08              addq     %r8, 8(%rax)
0x4000807c46:  49 8b 44 24 68           movq     0x68(%r12), %rax
0x4000807c4b:  48 85 c0                 testq    %rax, %rax
0x4000807c4e:  74 04                    je       0x4000807c54

----------------
IN: 
0x4000807c50:  4c 01 40 08              addq     %r8, 8(%rax)
0x4000807c54:  49 8b 44 24 70           movq     0x70(%r12), %rax
0x4000807c59:  48 85 c0                 testq    %rax, %rax
0x4000807c5c:  74 04                    je       0x4000807c62

----------------
IN: 
0x4000807c5e:  4c 01 40 08              addq     %r8, 8(%rax)
0x4000807c62:  49 8b 44 24 78           movq     0x78(%r12), %rax
0x4000807c67:  48 85 c0                 testq    %rax, %rax
0x4000807c6a:  74 04                    je       0x4000807c70

----------------
IN: 
0x4000807c6c:  4c 01 40 08              addq     %r8, 8(%rax)
0x4000807c70:  49 8b 84 24 f8 00 00 00  movq     0xf8(%r12), %rax
0x4000807c78:  48 85 c0                 testq    %rax, %rax
0x4000807c7b:  74 04                    je       0x4000807c81

----------------
IN: 
0x4000807c7d:  4c 01 40 08              addq     %r8, 8(%rax)
0x4000807c81:  49 8b 84 24 c8 01 00 00  movq     0x1c8(%r12), %rax
0x4000807c89:  48 85 c0                 testq    %rax, %rax
0x4000807c8c:  74 04                    je       0x4000807c92

----------------
IN: 
0x4000807c8e:  4c 01 40 08              addq     %r8, 8(%rax)
0x4000807c92:  49 8b 84 24 98 02 00 00  movq     0x298(%r12), %rax
0x4000807c9a:  48 85 c0                 testq    %rax, %rax
0x4000807c9d:  74 04                    je       0x4000807ca3

----------------
IN: 
0x4000807c9f:  4c 01 40 08              addq     %r8, 8(%rax)
0x4000807ca3:  49 8b 84 24 e0 00 00 00  movq     0xe0(%r12), %rax
0x4000807cab:  48 85 c0                 testq    %rax, %rax
0x4000807cae:  74 0b                    je       0x4000807cbb

----------------
IN: 
0x4000807cb0:  48 83 78 08 07           cmpq     $7, 8(%rax)
0x4000807cb5:  0f 85 f6 0b 00 00        jne      0x40008088b1

----------------
IN: 
0x4000807cbb:  49 83 7c 24 78 00        cmpq     $0, 0x78(%r12)
0x4000807cc1:  74 13                    je       0x4000807cd6

----------------
IN: 
0x4000807cc3:  49 8b 84 24 88 00 00 00  movq     0x88(%r12), %rax
0x4000807ccb:  48 83 78 08 18           cmpq     $0x18, 8(%rax)
0x4000807cd0:  0f 85 3e 0b 00 00        jne      0x4000808814

----------------
IN: 
0x4000807cd6:  49 8b 94 24 30 01 00 00  movq     0x130(%r12), %rdx
0x4000807cde:  48 85 d2                 testq    %rdx, %rdx
0x4000807ce1:  74 2c                    je       0x4000807d0f

----------------
IN: 
0x4000807ce3:  48 8b 42 08              movq     8(%rdx), %rax
0x4000807ce7:  a8 02                    testb    $2, %al
0x4000807ce9:  41 89 84 24 d8 03 00 00  movl     %eax, 0x3d8(%r12)
0x4000807cf1:  74 08                    je       0x4000807cfb

----------------
IN: 
0x4000807cfb:  a8 04                    testb    $4, %al
0x4000807cfd:  74 08                    je       0x4000807d07

----------------
IN: 
0x4000807d07:  a8 08                    testb    $8, %al
0x4000807d09:  0f 85 73 04 00 00        jne      0x4000808182

----------------
IN: 
0x4000807d0f:  49 8b 84 24 70 01 00 00  movq     0x170(%r12), %rax
0x4000807d17:  48 85 c0                 testq    %rax, %rax
0x4000807d1a:  0f 84 d8 06 00 00        je       0x40008083f8

----------------
IN: 
0x40008083f8:  41 8b 94 24 d4 03 00 00  movl     0x3d4(%r12), %edx
0x4000808400:  e9 41 f9 ff ff           jmp      0x4000807d46

----------------
IN: 
0x4000807d46:  49 83 bc 24 28 01 00 00  cmpq     $0, 0x128(%r12)
0x4000807d4e:  00
0x4000807d4f:  74 0c                    je       0x4000807d5d

----------------
IN: 
0x4000807d5d:  83 e2 40                 andl     $0x40, %edx
0x4000807d60:  74 6e                    je       0x4000807dd0

----------------
IN: 
0x4000807dd0:  49 8b 84 24 a0 02 00 00  movq     0x2a0(%r12), %rax
0x4000807dd8:  48 85 c0                 testq    %rax, %rax
0x4000807ddb:  0f 84 02 08 00 00        je       0x40008085e3

----------------
IN: 
0x4000807de1:  49 03 04 24              addq     (%r12), %rax
0x4000807de5:  49 89 84 24 a0 02 00 00  movq     %rax, 0x2a0(%r12)
0x4000807ded:  8b 05 6d 01 22 00        movl     0x22016d(%rip), %eax
0x4000807df3:  f7 d0                    notl     %eax
0x4000807df5:  48 23 85 10 ff ff ff     andq     -0xf0(%rbp), %rax
0x4000807dfc:  a8 01                    testb    $1, %al
0x4000807dfe:  0f 85 0d 06 00 00        jne      0x4000808411

----------------
IN: 
0x4000807e04:  49 8b 84 24 18 04 00 00  movq     0x418(%r12), %rax
0x4000807e0c:  48 85 c0                 testq    %rax, %rax
0x4000807e0f:  74 0c                    je       0x4000807e1d

----------------
IN: 
0x4000807e11:  49 03 04 24              addq     (%r12), %rax
0x4000807e15:  49 89 84 24 18 04 00 00  movq     %rax, 0x418(%r12)
0x4000807e1d:  8b bd 24 ff ff ff        movl     -0xdc(%rbp), %edi
0x4000807e23:  e8 78 45 01 00           callq    0x400081c3a0

----------------
IN: 
0x4000807e28:  85 c0                    testl    %eax, %eax
0x4000807e2a:  0f 85 d5 05 00 00        jne      0x4000808405

----------------
IN: 
0x4000807e30:  83 bd cc fe ff ff 02     cmpl     $2, -0x134(%rbp)
0x4000807e37:  0f 84 9f 04 00 00        je       0x40008082dc

----------------
IN: 
0x4000807e3d:  4d 8b 04 24              movq     (%r12), %r8
0x4000807e41:  4c 89 c0                 movq     %r8, %rax
0x4000807e44:  49 03 84 24 a8 02 00 00  addq     0x2a8(%r12), %rax
0x4000807e4c:  f6 05 4d ee 21 00 40     testb    $0x40, 0x21ee4d(%rip)
0x4000807e53:  49 89 84 24 a8 02 00 00  movq     %rax, 0x2a8(%r12)
0x4000807e5b:  0f 85 07 06 00 00        jne      0x4000808468

----------------
IN: 
0x4000807e61:  4c 89 e7                 movq     %r12, %rdi
0x4000807e64:  e8 e7 4b 00 00           callq    0x400080ca50

----------------
IN: 
0x4000807e69:  f6 45 18 08              testb    $8, 0x18(%rbp)
0x4000807e6d:  75 6b                    jne      0x4000807eda

----------------
IN: 
0x4000807e6f:  49 83 bc 24 c0 00 00 00  cmpq     $0, 0xc0(%r12)
0x4000807e77:  00
0x4000807e78:  74 60                    je       0x4000807eda

----------------
IN: 
0x4000807eda:  41 f6 84 24 d4 03 00 00  testb    $0x20, 0x3d4(%r12)
0x4000807ee2:  20
0x4000807ee3:  0f 85 45 02 00 00        jne      0x400080812e

----------------
IN: 
0x4000807ee9:  48 83 bd f8 fe ff ff 00  cmpq     $0, -0x108(%rbp)
0x4000807ef1:  48 8b 85 08 ff ff ff     movq     -0xf8(%rbp), %rax
0x4000807ef8:  4d 89 bc 24 98 03 00 00  movq     %r15, 0x398(%r12)
0x4000807f00:  49 89 84 24 a0 03 00 00  movq     %rax, 0x3a0(%r12)
0x4000807f08:  0f 85 a9 05 00 00        jne      0x40008084b7

----------------
IN: 
0x4000807f0e:  48 83 3d 62 ee 21 00 00  cmpq     $0, 0x21ee62(%rip)
0x4000807f16:  0f 85 28 06 00 00        jne      0x4000808544

----------------
IN: 
0x4000807f1c:  48 8b 75 28              movq     0x28(%rbp), %rsi
0x4000807f20:  4c 89 e7                 movq     %r12, %rdi
0x4000807f23:  e8 d8 4b 00 00           callq    0x400080cb00

----------------
IN: 
0x400080cb3b:  48 8b 42 18              movq     0x18(%rdx), %rax
0x400080cb3f:  48 85 c0                 testq    %rax, %rax
0x400080cb42:  75 f4                    jne      0x400080cb38

----------------
IN: 
0x400080cb38:  48 89 c2                 movq     %rax, %rdx
0x400080cb3b:  48 8b 42 18              movq     0x18(%rdx), %rax
0x400080cb3f:  48 85 c0                 testq    %rax, %rax
0x400080cb42:  75 f4                    jne      0x400080cb38

----------------
IN: 
0x400080cb44:  49 89 54 24 20           movq     %rdx, 0x20(%r12)
0x400080cb49:  4c 89 62 18              movq     %r12, 0x18(%rdx)
0x400080cb4d:  48 8d 04 db              leaq     (%rbx, %rbx, 8), %rax
0x400080cb51:  48 8d 3d 18 ae 21 00     leaq     0x21ae18(%rip), %rdi
0x400080cb58:  48 c1 e0 04              shlq     $4, %rax
0x400080cb5c:  83 44 05 08 01           addl     $1, 8(%rbp, %rax)
0x400080cb61:  48 8b 05 30 ae 21 00     movq     0x21ae30(%rip), %rax
0x400080cb68:  5b                       popq     %rbx
0x400080cb69:  5d                       popq     %rbp
0x400080cb6a:  49 89 84 24 68 04 00 00  movq     %rax, 0x468(%r12)
0x400080cb72:  48 83 c0 01              addq     $1, %rax
0x400080cb76:  41 5c                    popq     %r12
0x400080cb78:  48 89 05 19 ae 21 00     movq     %rax, 0x21ae19(%rip)
0x400080cb7f:  ff 25 cb b3 21 00        jmpq     *0x21b3cb(%rip)

----------------
IN: 
0x4000807f28:  8b 15 e2 ee 21 00        movl     0x21eee2(%rip), %edx
0x4000807f2e:  4c 89 e0                 movq     %r12, %rax
0x4000807f31:  85 d2                    testl    %edx, %edx
0x4000807f33:  0f 84 59 f5 ff ff        je       0x4000807492

----------------
IN: 
0x4000807492:  48 8d 65 d8              leaq     -0x28(%rbp), %rsp
0x4000807496:  5b                       popq     %rbx
0x4000807497:  41 5c                    popq     %r12
0x4000807499:  41 5d                    popq     %r13
0x400080749b:  41 5e                    popq     %r14
0x400080749d:  41 5f                    popq     %r15
0x400080749f:  5d                       popq     %rbp
0x40008074a0:  c3                       retq     

----------------
IN: 
0x4000809c27:  48 83 c4 20              addq     $0x20, %rsp
0x4000809c2b:  e9 b3 fe ff ff           jmp      0x4000809ae3

----------------
IN: 
0x4000809ae3:  48 81 c4 c8 03 00 00     addq     $0x3c8, %rsp
0x4000809aea:  5b                       popq     %rbx
0x4000809aeb:  5d                       popq     %rbp
0x4000809aec:  41 5c                    popq     %r12
0x4000809aee:  41 5d                    popq     %r13
0x4000809af0:  41 5e                    popq     %r14
0x4000809af2:  41 5f                    popq     %r15
0x4000809af4:  c3                       retq     

----------------
IN: 
0x400080ebb2:  48 89 43 20              movq     %rax, 0x20(%rbx)
0x400080ebb6:  5b                       popq     %rbx
0x400080ebb7:  c3                       retq     

----------------
IN: 
0x4000811574:  48 8b 44 24 08           movq     8(%rsp), %rax
0x4000811579:  48 8b 4c 24 10           movq     0x10(%rsp), %rcx
0x400081157e:  48 8b 74 24 20           movq     0x20(%rsp), %rsi
0x4000811583:  48 8b 54 24 28           movq     0x28(%rsp), %rdx
0x4000811588:  48 89 08                 movq     %rcx, (%rax)
0x400081158b:  48 8b 44 24 18           movq     0x18(%rsp), %rax
0x4000811590:  48 c7 00 00 00 00 00     movq     $0, (%rax)
0x4000811597:  48 c7 06 00 00 00 00     movq     $0, (%rsi)
0x400081159e:  89 d8                    movl     %ebx, %eax
0x40008115a0:  c6 02 00                 movb     $0, (%rdx)
0x40008115a3:  48 81 c4 40 01 00 00     addq     $0x140, %rsp
0x40008115aa:  5b                       popq     %rbx
0x40008115ab:  c3                       retq     

----------------
IN: 
0x400080f1f2:  48 8b 4d 90              movq     -0x70(%rbp), %rcx
0x400080f1f6:  48 85 c9                 testq    %rcx, %rcx
0x400080f1f9:  0f 85 39 04 00 00        jne      0x400080f638

----------------
IN: 
0x400080f1ff:  48 8b 45 c0              movq     -0x40(%rbp), %rax
0x400080f203:  f6 80 14 03 00 00 60     testb    $0x60, 0x314(%rax)
0x400080f20a:  0f 85 62 ff ff ff        jne      0x400080f172

----------------
IN: 
0x400080f210:  48 83 ec 30              subq     $0x30, %rsp
0x400080f214:  48 8b b5 68 ff ff ff     movq     -0x98(%rbp), %rsi
0x400080f21b:  83 85 20 ff ff ff 01     addl     $1, -0xe0(%rbp)
0x400080f222:  48 8d 54 24 0f           leaq     0xf(%rsp), %rdx
0x400080f227:  48 83 e2 f0              andq     $0xfffffff0, %rdx
0x400080f22b:  48 89 42 08              movq     %rax, 8(%rdx)
0x400080f22f:  c7 02 00 00 00 00        movl     $0, (%rdx)
0x400080f235:  48 c7 42 10 00 00 00 00  movq     $0, 0x10(%rdx)
0x400080f23d:  48 89 56 10              movq     %rdx, 0x10(%rsi)
0x400080f241:  0f b6 88 14 03 00 00     movzbl   0x314(%rax), %ecx
0x400080f248:  48 89 95 68 ff ff ff     movq     %rdx, -0x98(%rbp)
0x400080f24f:  83 e1 9f                 andl     $0xffffffffffffff9f, %ecx
0x400080f252:  83 c9 20                 orl      $0x20, %ecx
0x400080f255:  88 88 14 03 00 00        movb     %cl, 0x314(%rax)
0x400080f25b:  e9 12 ff ff ff           jmp      0x400080f172

----------------
IN: 
0x400080f172:  48 8b 8d 78 ff ff ff     movq     -0x88(%rbp), %rcx
0x400080f179:  48 85 c9                 testq    %rcx, %rcx
0x400080f17c:  74 0b                    je       0x400080f189

----------------
IN: 
0x400080f189:  49 83 c4 10              addq     $0x10, %r12
0x400080f18d:  49 8b 04 24              movq     (%r12), %rax
0x400080f191:  48 85 c0                 testq    %rax, %rax
0x400080f194:  0f 84 19 02 00 00        je       0x400080f3b3

----------------
IN: 
0x400080f260:  48 83 e0 fd              andq     $0xfffffffd, %rax
0x400080f264:  48 3d fd ff ff 7f        cmpq     $0x7ffffffd, %rax
0x400080f26a:  0f 85 19 ff ff ff        jne      0x400080f189

----------------
IN: 
0x400080f3b3:  48 8b b5 78 ff ff ff     movq     -0x88(%rbp), %rsi
0x400080f3ba:  48 85 f6                 testq    %rsi, %rsi
0x400080f3bd:  74 64                    je       0x400080f423

----------------
IN: 
0x400080f423:  48 8b 85 28 ff ff ff     movq     -0xd8(%rbp), %rax
0x400080f42a:  8b 10                    movl     (%rax), %edx
0x400080f42c:  85 d2                    testl    %edx, %edx
0x400080f42e:  0f 85 c6 07 00 00        jne      0x400080fbfa

----------------
IN: 
0x400080fbfa:  48 8b 40 10              movq     0x10(%rax), %rax
0x400080fbfe:  48 85 c0                 testq    %rax, %rax
0x400080fc01:  75 ed                    jne      0x400080fbf0

----------------
IN: 
0x400080fbf0:  8b 18                    movl     (%rax), %ebx
0x400080fbf2:  85 db                    testl    %ebx, %ebx
0x400080fbf4:  0f 84 5b 01 00 00        je       0x400080fd55

----------------
IN: 
0x400080fd55:  48 89 85 28 ff ff ff     movq     %rax, -0xd8(%rbp)
0x400080fd5c:  e9 d3 f6 ff ff           jmp      0x400080f434

----------------
IN: 
0x400080f434:  4c 8b 68 08              movq     8(%rax), %r13
0x400080f438:  e9 c2 fc ff ff           jmp      0x400080f0ff

----------------
IN: 
0x400080f0ff:  49 83 bd b8 02 00 00 00  cmpq     $0, 0x2b8(%r13)
0x400080f107:  c7 00 01 00 00 00        movl     $1, (%rax)
0x400080f10d:  48 c7 85 78 ff ff ff 00  movq     $0, -0x88(%rbp)
0x400080f115:  00 00 00
0x400080f118:  0f 84 5a 0b 00 00        je       0x400080fc78

----------------
IN: 
0x400080fc93:  41 0f b7 85 b2 02 00 00  movzwl   0x2b2(%r13), %eax
0x400080fc9b:  66 85 c0                 testw    %ax, %ax
0x400080fc9e:  0f 84 7a f4 ff ff        je       0x400080f11e

----------------
IN: 
0x400080fca4:  48 c1 e0 03              shlq     $3, %rax
0x400080fca8:  48 39 85 10 ff ff ff     cmpq     %rax, -0xf0(%rbp)
0x400080fcaf:  48 8b b5 18 ff ff ff     movq     -0xe8(%rbp), %rsi
0x400080fcb6:  48 89 b5 78 ff ff ff     movq     %rsi, -0x88(%rbp)
0x400080fcbd:  0f 83 5b f4 ff ff        jae      0x400080f11e

----------------
IN: 
0x400080fcc3:  48 83 c0 0f              addq     $0xf, %rax
0x400080fcc7:  48 83 e0 f0              andq     $0xfffffff0, %rax
0x400080fccb:  48 8d 50 1e              leaq     0x1e(%rax), %rdx
0x400080fccf:  81 e2 f0 ff 1f 00        andl     $0x1ffff0, %edx
0x400080fcd5:  48 29 d4                 subq     %rdx, %rsp
0x400080fcd8:  48 8d 54 24 0f           leaq     0xf(%rsp), %rdx
0x400080fcdd:  48 83 e2 f0              andq     $0xfffffff0, %rdx
0x400080fce1:  48 89 95 78 ff ff ff     movq     %rdx, -0x88(%rbp)
0x400080fce8:  48 01 c2                 addq     %rax, %rdx
0x400080fceb:  48 39 d6                 cmpq     %rdx, %rsi
0x400080fcee:  0f 84 b7 04 00 00        je       0x40008101ab

----------------
IN: 
0x400080fcf4:  48 89 85 10 ff ff ff     movq     %rax, -0xf0(%rbp)
0x400080fcfb:  48 8b 85 78 ff ff ff     movq     -0x88(%rbp), %rax
0x400080fd02:  48 89 85 18 ff ff ff     movq     %rax, -0xe8(%rbp)
0x400080fd09:  e9 10 f4 ff ff           jmp      0x400080f11e

----------------
IN: 
0x400081c8b8:  f3 0f 6f 47 10           movdqu   0x10(%rdi), %xmm0
0x400081c8bd:  66 0f 6f e0              movdqa   %xmm0, %xmm4
0x400081c8c1:  66 0f 74 c1              pcmpeqb  %xmm1, %xmm0
0x400081c8c5:  66 0f 74 e3              pcmpeqb  %xmm3, %xmm4
0x400081c8c9:  66 0f eb c4              por      %xmm4, %xmm0
0x400081c8cd:  66 0f d7 c8              pmovmskb %xmm0, %ecx
0x400081c8d1:  f3 0f 6f 47 20           movdqu   0x20(%rdi), %xmm0
0x400081c8d6:  66 0f 6f e0              movdqa   %xmm0, %xmm4
0x400081c8da:  66 0f 74 c1              pcmpeqb  %xmm1, %xmm0
0x400081c8de:  48 c1 e1 10              shlq     $0x10, %rcx
0x400081c8e2:  66 0f 74 e3              pcmpeqb  %xmm3, %xmm4
0x400081c8e6:  66 0f eb c4              por      %xmm4, %xmm0
0x400081c8ea:  66 0f d7 c0              pmovmskb %xmm0, %eax
0x400081c8ee:  f3 0f 6f 47 30           movdqu   0x30(%rdi), %xmm0
0x400081c8f3:  66 0f 74 d8              pcmpeqb  %xmm0, %xmm3
0x400081c8f7:  48 c1 e0 20              shlq     $0x20, %rax
0x400081c8fb:  66 0f 74 c1              pcmpeqb  %xmm1, %xmm0
0x400081c8ff:  48 09 c8                 orq      %rcx, %rax
0x400081c902:  66 0f eb c3              por      %xmm3, %xmm0
0x400081c906:  66 0f d7 c8              pmovmskb %xmm0, %ecx
0x400081c90a:  48 c1 e1 30              shlq     $0x30, %rcx
0x400081c90e:  48 09 c8                 orq      %rcx, %rax
0x400081c911:  48 85 c0                 testq    %rax, %rax
0x400081c914:  0f 85 a6 00 00 00        jne      0x400081c9c0

----------------
IN: 
0x400081c9c0:  48 0f bc c0              bsfq     %rax, %rax
0x400081c9c4:  ba 00 00 00 00           movl     $0, %edx
0x400081c9c9:  48 8d 04 07              leaq     (%rdi, %rax), %rax
0x400081c9cd:  40 38 30                 cmpb     %sil, (%rax)
0x400081c9d0:  48 0f 45 c2              cmovneq  %rdx, %rax
0x400081c9d4:  c3                       retq     

----------------
IN: 
0x400081d5b0:  66 0f ef c0              pxor     %xmm0, %xmm0
0x400081d5b4:  66 0f 6f 17              movdqa   (%rdi), %xmm2
0x400081d5b8:  66 0f 6f 0e              movdqa   (%rsi), %xmm1
0x400081d5bc:  66 0f 74 c1              pcmpeqb  %xmm1, %xmm0
0x400081d5c0:  66 0f 73 fa 07           pslldq   $7, %xmm2
0x400081d5c5:  66 0f 74 d1              pcmpeqb  %xmm1, %xmm2
0x400081d5c9:  66 0f f8 d0              psubb    %xmm0, %xmm2
0x400081d5cd:  66 44 0f d7 ca           pmovmskb %xmm2, %r9d
0x400081d5d2:  d3 ea                    shrl     %cl, %edx
0x400081d5d4:  41 d3 e9                 shrl     %cl, %r9d
0x400081d5d7:  44 29 ca                 subl     %r9d, %edx
0x400081d5da:  0f 85 95 08 00 00        jne      0x400081de75

----------------
IN: 
0x400081cac8:  48 83 c6 10              addq     $0x10, %rsi
0x400081cacc:  48 83 c7 10              addq     $0x10, %rdi
0x400081cad0:  48 83 e6 f0              andq     $0xfffffff0, %rsi
0x400081cad4:  48 83 e7 f0              andq     $0xfffffff0, %rdi
0x400081cad8:  ba ff ff 00 00           movl     $0xffff, %edx
0x400081cadd:  45 31 c0                 xorl     %r8d, %r8d
0x400081cae0:  83 e1 0f                 andl     $0xf, %ecx
0x400081cae3:  83 e0 0f                 andl     $0xf, %eax
0x400081cae6:  39 c1                    cmpl     %eax, %ecx
0x400081cae8:  74 26                    je       0x400081cb10

----------------
IN: 
0x400081dab0:  66 0f ef c0              pxor     %xmm0, %xmm0
0x400081dab4:  66 0f 6f 17              movdqa   (%rdi), %xmm2
0x400081dab8:  66 0f 6f 0e              movdqa   (%rsi), %xmm1
0x400081dabc:  66 0f 74 c1              pcmpeqb  %xmm1, %xmm0
0x400081dac0:  66 0f 73 fa 03           pslldq   $3, %xmm2
0x400081dac5:  66 0f 74 d1              pcmpeqb  %xmm1, %xmm2
0x400081dac9:  66 0f f8 d0              psubb    %xmm0, %xmm2
0x400081dacd:  66 44 0f d7 ca           pmovmskb %xmm2, %r9d
0x400081dad2:  d3 ea                    shrl     %cl, %edx
0x400081dad4:  41 d3 e9                 shrl     %cl, %r9d
0x400081dad7:  44 29 ca                 subl     %r9d, %edx
0x400081dada:  0f 85 95 03 00 00        jne      0x400081de75

----------------
IN: 
0x400081dae0:  66 0f 6f 1f              movdqa   (%rdi), %xmm3
0x400081dae4:  66 0f ef c0              pxor     %xmm0, %xmm0
0x400081dae8:  48 c7 c1 10 00 00 00     movq     $0x10, %rcx
0x400081daef:  41 b9 0d 00 00 00        movl     $0xd, %r9d
0x400081daf5:  4c 8d 57 0d              leaq     0xd(%rdi), %r10
0x400081daf9:  49 81 e2 ff 0f 00 00     andq     $0xfff, %r10
0x400081db00:  49 81 ea 00 10 00 00     subq     $0x1000, %r10
0x400081db07:  66 0f 1f 84 00 00 00 00  nopw     (%rax, %rax)
0x400081db0f:  00
0x400081db10:  49 83 c2 10              addq     $0x10, %r10
0x400081db14:  0f 8f 96 00 00 00        jg       0x400081dbb0

----------------
IN: 
0x400081db1a:  66 0f 6f 0c 0e           movdqa   (%rsi, %rcx), %xmm1
0x400081db1f:  66 0f 6f 14 0f           movdqa   (%rdi, %rcx), %xmm2
0x400081db24:  66 0f 6f e2              movdqa   %xmm2, %xmm4
0x400081db28:  66 0f 73 db 0d           psrldq   $0xd, %xmm3
0x400081db2d:  66 0f 73 fa 03           pslldq   $3, %xmm2
0x400081db32:  66 0f eb d3              por      %xmm3, %xmm2
0x400081db36:  66 0f 74 c1              pcmpeqb  %xmm1, %xmm0
0x400081db3a:  66 0f 74 ca              pcmpeqb  %xmm2, %xmm1
0x400081db3e:  66 0f f8 c8              psubb    %xmm0, %xmm1
0x400081db42:  66 0f d7 d1              pmovmskb %xmm1, %edx
0x400081db46:  81 ea ff ff 00 00        subl     $0xffff, %edx
0x400081db4c:  0f 85 1e 03 00 00        jne      0x400081de70

----------------
IN: 
0x400081de70:  49 8d 44 09 f0           leaq     -0x10(%r9, %rcx), %rax
0x400081de75:  48 8d 3c 07              leaq     (%rdi, %rax), %rdi
0x400081de79:  48 8d 34 0e              leaq     (%rsi, %rcx), %rsi
0x400081de7d:  45 85 c0                 testl    %r8d, %r8d
0x400081de80:  74 0e                    je       0x400081de90

----------------
IN: 
0x40008129d8:  ba 01 00 00 00           movl     $1, %edx
0x40008129dd:  48 83 c4 08              addq     $8, %rsp
0x40008129e1:  89 d0                    movl     %edx, %eax
0x40008129e3:  5b                       popq     %rbx
0x40008129e4:  5d                       popq     %rbp
0x40008129e5:  c3                       retq     

----------------
IN: 
0x4000809c30:  4c 89 f8                 movq     %r15, %rax
0x4000809c33:  e9 ab fe ff ff           jmp      0x4000809ae3

----------------
IN: 
0x400080f17e:  44 89 fa                 movl     %r15d, %edx
0x400080f181:  41 83 c7 01              addl     $1, %r15d
0x400080f185:  48 89 04 d1              movq     %rax, (%rcx, %rdx, 8)
0x400080f189:  49 83 c4 10              addq     $0x10, %r12
0x400080f18d:  49 8b 04 24              movq     (%r12), %rax
0x400080f191:  48 85 c0                 testq    %rax, %rax
0x400080f194:  0f 84 19 02 00 00        je       0x400080f3b3

----------------
IN: 
0x400080f3bf:  41 8d 5f 01              leal     1(%r15), %ebx
0x400080f3c3:  44 89 f8                 movl     %r15d, %eax
0x400080f3c6:  48 c7 04 c6 00 00 00 00  movq     $0, (%rsi, %rax, 8)
0x400080f3ce:  8d 7c 1b 01              leal     1(%rbx, %rbx), %edi
0x400080f3d2:  48 c1 e7 03              shlq     $3, %rdi
0x400080f3d6:  e8 a5 26 ff ff           callq    0x4000801a80

----------------
IN: 
0x400080f3db:  48 85 c0                 testq    %rax, %rax
0x400080f3de:  49 89 c4                 movq     %rax, %r12
0x400080f3e1:  0f 84 27 0c 00 00        je       0x400081000e

----------------
IN: 
0x400080f3e7:  48 8b b5 78 ff ff ff     movq     -0x88(%rbp), %rsi
0x400080f3ee:  48 c1 e3 03              shlq     $3, %rbx
0x400080f3f2:  48 8d 78 08              leaq     8(%rax), %rdi
0x400080f3f6:  48 89 da                 movq     %rbx, %rdx
0x400080f3f9:  4c 89 28                 movq     %r13, (%rax)
0x400080f3fc:  e8 9f fa 00 00           callq    0x400081eea0

----------------
IN: 
0x400080f401:  41 8d 47 02              leal     2(%r15), %eax
0x400080f405:  48 89 da                 movq     %rbx, %rdx
0x400080f408:  4c 89 e6                 movq     %r12, %rsi
0x400080f40b:  49 8d 3c c4              leaq     (%r12, %rax, 8), %rdi
0x400080f40f:  e8 8c fa 00 00           callq    0x400081eea0

----------------
IN: 
0x400080f414:  41 80 8d 16 03 00 00 01  orb      $1, 0x316(%r13)
0x400080f41c:  4d 89 a5 b8 03 00 00     movq     %r12, 0x3b8(%r13)
0x400080f423:  48 8b 85 28 ff ff ff     movq     -0xd8(%rbp), %rax
0x400080f42a:  8b 10                    movl     (%rax), %edx
0x400080f42c:  85 d2                    testl    %edx, %edx
0x400080f42e:  0f 85 c6 07 00 00        jne      0x400080fbfa

----------------
IN: 
0x400080fc50:  49 83 bd e0 01 00 00 00  cmpq     $0, 0x1e0(%r13)
0x400080fc58:  0f 85 cb f4 ff ff        jne      0x400080f129

----------------
IN: 
0x400080fc5e:  49 83 bd d0 01 00 00 00  cmpq     $0, 0x1d0(%r13)
0x400080fc66:  0f 85 bd f4 ff ff        jne      0x400080f129

----------------
IN: 
0x400080fc6c:  45 31 ff                 xorl     %r15d, %r15d
0x400080fc6f:  e9 3f f7 ff ff           jmp      0x400080f3b3

----------------
IN: 
0x400080fc03:  4c 8b bd 08 ff ff ff     movq     -0xf8(%rbp), %r15
0x400080fc0a:  c7 85 30 ff ff ff 00 00  movl     $0, -0xd0(%rbp)
0x400080fc12:  00 00
0x400080fc14:  e9 c2 fa ff ff           jmp      0x400080f6db

----------------
IN: 
0x400080f6db:  44 8b 1d 3e 8a 21 00     movl     0x218a3e(%rip), %r11d
0x400080f6e2:  45 85 db                 testl    %r11d, %r11d
0x400080f6e5:  75 10                    jne      0x400080f6f7

----------------
IN: 
0x400080f6e7:  8b 85 00 ff ff ff        movl     -0x100(%rbp), %eax
0x400080f6ed:  85 c0                    testl    %eax, %eax
0x400080f6ef:  74 06                    je       0x400080f6f7

----------------
IN: 
0x400080f6f1:  89 05 29 8a 21 00        movl     %eax, 0x218a29(%rip)
0x400080f6f7:  48 8b 85 38 ff ff ff     movq     -0xc8(%rbp), %rax
0x400080f6fe:  48 8b 88 b8 03 00 00     movq     0x3b8(%rax), %rcx
0x400080f705:  48 85 c9                 testq    %rcx, %rcx
0x400080f708:  48 89 8d 18 ff ff ff     movq     %rcx, -0xe8(%rbp)
0x400080f70f:  74 23                    je       0x400080f734

----------------
IN: 
0x400080f734:  8b 85 20 ff ff ff        movl     -0xe0(%rbp), %eax
0x400080f73a:  8d 7c 00 01              leal     1(%rax, %rax), %edi
0x400080f73e:  48 c1 e7 03              shlq     $3, %rdi
0x400080f742:  e8 39 23 ff ff           callq    0x4000801a80

----------------
IN: 
0x400080f747:  48 85 c0                 testq    %rax, %rax
0x400080f74a:  49 89 c6                 movq     %rax, %r14
0x400080f74d:  0f 84 d9 08 00 00        je       0x400081002c

----------------
IN: 
0x400080f753:  8b 8d 20 ff ff ff        movl     -0xe0(%rbp), %ecx
0x400080f759:  44 8b 95 04 ff ff ff     movl     -0xfc(%rbp), %r10d
0x400080f760:  48 8b b5 38 ff ff ff     movq     -0xc8(%rbp), %rsi
0x400080f767:  89 c8                    movl     %ecx, %eax
0x400080f769:  83 c0 01                 addl     $1, %eax
0x400080f76c:  45 85 d2                 testl    %r10d, %r10d
0x400080f76f:  89 8e c0 02 00 00        movl     %ecx, 0x2c0(%rsi)
0x400080f775:  4d 8d 2c c6              leaq     (%r14, %rax, 8), %r13
0x400080f779:  4c 89 ae b8 02 00 00     movq     %r13, 0x2b8(%rsi)
0x400080f780:  0f 85 92 07 00 00        jne      0x400080ff18

----------------
IN: 
0x400080f786:  31 c0                    xorl     %eax, %eax
0x400080f788:  49 8b 4f 08              movq     8(%r15), %rcx
0x400080f78c:  8d 50 01                 leal     1(%rax), %edx
0x400080f78f:  49 89 4c c5 00           movq     %rcx, (%r13, %rax, 8)
0x400080f794:  49 8b 47 08              movq     8(%r15), %rax
0x400080f798:  4c 8b ae b8 02 00 00     movq     0x2b8(%rsi), %r13
0x400080f79f:  80 a0 14 03 00 00 9f     andb     $0x9f, 0x314(%rax)
0x400080f7a6:  89 d0                    movl     %edx, %eax
0x400080f7a8:  4d 8b 7f 10              movq     0x10(%r15), %r15
0x400080f7ac:  4d 85 ff                 testq    %r15, %r15
0x400080f7af:  75 d7                    jne      0x400080f788

----------------
IN: 
0x400080f788:  49 8b 4f 08              movq     8(%r15), %rcx
0x400080f78c:  8d 50 01                 leal     1(%rax), %edx
0x400080f78f:  49 89 4c c5 00           movq     %rcx, (%r13, %rax, 8)
0x400080f794:  49 8b 47 08              movq     8(%r15), %rax
0x400080f798:  4c 8b ae b8 02 00 00     movq     0x2b8(%rsi), %r13
0x400080f79f:  80 a0 14 03 00 00 9f     andb     $0x9f, 0x314(%rax)
0x400080f7a6:  89 d0                    movl     %edx, %eax
0x400080f7a8:  4d 8b 7f 10              movq     0x10(%r15), %r15
0x400080f7ac:  4d 85 ff                 testq    %r15, %r15
0x400080f7af:  75 d7                    jne      0x400080f788

----------------
IN: 
0x400080f7b1:  f6 05 e9 74 21 00 08     testb    $8, 0x2174e9(%rip)
0x400080f7b8:  89 95 50 ff ff ff        movl     %edx, -0xb0(%rbp)
0x400080f7be:  0f 85 ec 05 00 00        jne      0x400080fdb0

----------------
IN: 
0x400080f7c4:  48 8b 85 38 ff ff ff     movq     -0xc8(%rbp), %rax
0x400080f7cb:  49 3b 45 00              cmpq     (%r13), %rax
0x400080f7cf:  0f 85 1f 07 00 00        jne      0x400080fef4

----------------
IN: 
0x400080f7d5:  4c 8b b8 c0 03 00 00     movq     0x3c0(%rax), %r15
0x400080f7dc:  4d 85 ff                 testq    %r15, %r15
0x400080f7df:  0f 84 e8 07 00 00        je       0x400080ffcd

----------------
IN: 
0x400080ffcd:  44 8b bd 50 ff ff ff     movl     -0xb0(%rbp), %r15d
0x400080ffd4:  4c 89 ee                 movq     %r13, %rsi
0x400080ffd7:  4c 89 f7                 movq     %r14, %rdi
0x400080ffda:  44 89 fb                 movl     %r15d, %ebx
0x400080ffdd:  48 8d 04 dd 00 00 00 00  leaq     (, %rbx, 8), %rax
0x400080ffe5:  48 89 c2                 movq     %rax, %rdx
0x400080ffe8:  48 89 85 20 ff ff ff     movq     %rax, -0xe0(%rbp)
0x400080ffef:  e8 ac ee 00 00           callq    0x400081eea0

----------------
IN: 
0x400080fff4:  41 83 ff 01              cmpl     $1, %r15d
0x400080fff8:  48 c7 85 28 ff ff ff 00  movq     $0, -0xd8(%rbp)
0x4000810000:  00 00 00
0x4000810003:  0f 87 55 f9 ff ff        ja       0x400080f95e

----------------
IN: 
0x400080f95e:  48 8d 14 1b              leaq     (%rbx, %rbx), %rdx
0x400080f962:  48 89 a5 10 ff ff ff     movq     %rsp, -0xf0(%rbp)
0x400080f969:  31 f6                    xorl     %esi, %esi
0x400080f96b:  41 bd 02 00 00 00        movl     $2, %r13d
0x400080f971:  48 8d 42 10              leaq     0x10(%rdx), %rax
0x400080f975:  48 c1 e8 04              shrq     $4, %rax
0x400080f979:  48 c1 e0 04              shlq     $4, %rax
0x400080f97d:  48 29 c4                 subq     %rax, %rsp
0x400080f980:  48 89 e7                 movq     %rsp, %rdi
0x400080f983:  e8 f8 f1 00 00           callq    0x400081eb80

----------------
IN: 
0x400081ec38:  f6 c2 04                 testb    $4, %dl
0x400081ec3b:  75 16                    jne      0x400081ec53

----------------
IN: 
0x400081ec53:  89 0f                    movl     %ecx, (%rdi)
0x400081ec55:  89 4c 17 fc              movl     %ecx, -4(%rdi, %rdx)
0x400081ec59:  c3                       retq     

----------------
IN: 
0x400080f988:  8b 85 50 ff ff ff        movl     -0xb0(%rbp), %eax
0x400080f98e:  41 b8 01 00 00 00        movl     $1, %r8d
0x400080f994:  4d 89 f1                 movq     %r14, %r9
0x400080f997:  b9 01 00 00 00           movl     $1, %ecx
0x400080f99c:  45 89 c6                 movl     %r8d, %r14d
0x400080f99f:  49 89 e3                 movq     %rsp, %r11
0x400080f9a2:  83 e8 01                 subl     $1, %eax
0x400080f9a5:  89 85 40 ff ff ff        movl     %eax, -0xc0(%rbp)
0x400080f9ab:  0f 1f 44 00 00           nopl     (%rax, %rax)
0x400080f9b0:  49 8d 04 4b              leaq     (%r11, %rcx, 2), %rax
0x400080f9b4:  49 8d 3c c9              leaq     (%r9, %rcx, 8), %rdi
0x400080f9b8:  0f b7 30                 movzwl   (%rax), %esi
0x400080f9bb:  48 8b 1f                 movq     (%rdi), %rbx
0x400080f9be:  83 c6 01                 addl     $1, %esi
0x400080f9c1:  66 89 30                 movw     %si, (%rax)
0x400080f9c4:  8b 85 40 ff ff ff        movl     -0xc0(%rbp), %eax
0x400080f9ca:  66 89 b5 48 ff ff ff     movw     %si, -0xb8(%rbp)
0x400080f9d1:  41 39 c6                 cmpl     %eax, %r14d
0x400080f9d4:  0f 83 fb 00 00 00        jae      0x400080fad5

----------------
IN: 
0x400080f9da:  41 89 c4                 movl     %eax, %r12d
0x400080f9dd:  45 89 e2                 movl     %r12d, %r10d
0x400080f9e0:  4f 8d 3c d1              leaq     (%r9, %r10, 8), %r15
0x400080f9e4:  49 8b 07                 movq     (%r15), %rax
0x400080f9e7:  48 8b 80 b8 03 00 00     movq     0x3b8(%rax), %rax
0x400080f9ee:  48 85 c0                 testq    %rax, %rax
0x400080f9f1:  0f 84 d1 00 00 00        je       0x400080fac8

----------------
IN: 
0x400080fac8:  41 83 ec 01              subl     $1, %r12d
0x400080facc:  45 39 e6                 cmpl     %r12d, %r14d
0x400080facf:  0f 82 08 ff ff ff        jb       0x400080f9dd

----------------
IN: 
0x400080fad5:  44 3b ad 50 ff ff ff     cmpl     -0xb0(%rbp), %r13d
0x400080fadc:  74 5d                    je       0x400080fb3b

----------------
IN: 
0x400080fade:  45 89 e8                 movl     %r13d, %r8d
0x400080fae1:  eb 9d                    jmp      0x400080fa80

----------------
IN: 
0x400080fa80:  8b 95 50 ff ff ff        movl     -0xb0(%rbp), %edx
0x400080fa86:  4b 8d 3c 43              leaq     (%r11, %r8, 2), %rdi
0x400080fa8a:  31 f6                    xorl     %esi, %esi
0x400080fa8c:  4c 89 8d 70 ff ff ff     movq     %r9, -0x90(%rbp)
0x400080fa93:  4c 89 9d 78 ff ff ff     movq     %r11, -0x88(%rbp)
0x400080fa9a:  45 89 ee                 movl     %r13d, %r14d
0x400080fa9d:  44 29 ea                 subl     %r13d, %edx
0x400080faa0:  48 01 d2                 addq     %rdx, %rdx
0x400080faa3:  e8 d8 f0 00 00           callq    0x400081eb80

----------------
IN: 
0x400081ec3d:  f6 c2 01                 testb    $1, %dl
0x400081ec40:  74 02                    je       0x400081ec44

----------------
IN: 
0x400081ec44:  f6 c2 02                 testb    $2, %dl
0x400081ec47:  0f 84 67 ff ff ff        je       0x400081ebb4

----------------
IN: 
0x400081ec4d:  66 89 4c 10 fe           movw     %cx, -2(%rax, %rdx)
0x400081ec52:  c3                       retq     

----------------
IN: 
0x400080faa8:  44 89 e9                 movl     %r13d, %ecx
0x400080faab:  4c 8b 9d 78 ff ff ff     movq     -0x88(%rbp), %r11
0x400080fab2:  41 83 c5 01              addl     $1, %r13d
0x400080fab6:  4c 8b 8d 70 ff ff ff     movq     -0x90(%rbp), %r9
0x400080fabd:  e9 ee fe ff ff           jmp      0x400080f9b0

----------------
IN: 
0x400080f9b0:  49 8d 04 4b              leaq     (%r11, %rcx, 2), %rax
0x400080f9b4:  49 8d 3c c9              leaq     (%r9, %rcx, 8), %rdi
0x400080f9b8:  0f b7 30                 movzwl   (%rax), %esi
0x400080f9bb:  48 8b 1f                 movq     (%rdi), %rbx
0x400080f9be:  83 c6 01                 addl     $1, %esi
0x400080f9c1:  66 89 30                 movw     %si, (%rax)
0x400080f9c4:  8b 85 40 ff ff ff        movl     -0xc0(%rbp), %eax
0x400080f9ca:  66 89 b5 48 ff ff ff     movw     %si, -0xb8(%rbp)
0x400080f9d1:  41 39 c6                 cmpl     %eax, %r14d
0x400080f9d4:  0f 83 fb 00 00 00        jae      0x400080fad5

----------------
IN: 
0x400080fb3b:  48 8b a5 10 ff ff ff     movq     -0xf0(%rbp), %rsp
0x400080fb42:  4d 89 ce                 movq     %r9, %r14
0x400080fb45:  48 8b 85 20 ff ff ff     movq     -0xe0(%rbp), %rax
0x400080fb4c:  49 c7 04 06 00 00 00 00  movq     $0, (%r14, %rax)
0x400080fb54:  48 8b 85 38 ff ff ff     movq     -0xc8(%rbp), %rax
0x400080fb5b:  80 88 16 03 00 00 01     orb      $1, 0x316(%rax)
0x400080fb62:  4c 89 b0 b8 03 00 00     movq     %r14, 0x3b8(%rax)
0x400080fb69:  48 8b b5 28 ff ff ff     movq     -0xd8(%rbp), %rsi
0x400080fb70:  48 85 f6                 testq    %rsi, %rsi
0x400080fb73:  74 13                    je       0x400080fb88

----------------
IN: 
0x400080fb88:  48 8b 85 18 ff ff ff     movq     -0xe8(%rbp), %rax
0x400080fb8f:  48 85 c0                 testq    %rax, %rax
0x400080fb92:  74 08                    je       0x400080fb9c

----------------
IN: 
0x400080fb9c:  8b bd 30 ff ff ff        movl     -0xd0(%rbp), %edi
0x400080fba2:  85 ff                    testl    %edi, %edi
0x400080fba4:  0f 85 a0 04 00 00        jne      0x400081004a

----------------
IN: 
0x400080fbaa:  48 8d 65 d8              leaq     -0x28(%rbp), %rsp
0x400080fbae:  5b                       popq     %rbx
0x400080fbaf:  41 5c                    popq     %r12
0x400080fbb1:  41 5d                    popq     %r13
0x400080fbb3:  41 5e                    popq     %r14
0x400080fbb5:  41 5f                    popq     %r15
0x400080fbb7:  5d                       popq     %rbp
0x400080fbb8:  c3                       retq     

----------------
IN: 
0x4000804a29:  0f 31                    rdtsc    
0x4000804a2b:  48 c1 e2 20              shlq     $0x20, %rdx
0x4000804a2f:  89 c0                    movl     %eax, %eax
0x4000804a31:  8b 8b c0 02 00 00        movl     0x2c0(%rbx), %ecx
0x4000804a37:  48 09 d0                 orq      %rdx, %rax
0x4000804a3a:  48 03 05 27 22 22 00     addq     0x222227(%rip), %rax
0x4000804a41:  4c 29 e8                 subq     %r13, %rax
0x4000804a44:  85 c9                    testl    %ecx, %ecx
0x4000804a46:  48 89 05 1b 22 22 00     movq     %rax, 0x22221b(%rip)
0x4000804a4d:  0f 84 b8 00 00 00        je       0x4000804b0b

----------------
IN: 
0x4000804a53:  48 8b b3 b8 02 00 00     movq     0x2b8(%rbx), %rsi
0x4000804a5a:  89 c8                    movl     %ecx, %eax
0x4000804a5c:  8d 50 ff                 leal     -1(%rax), %edx
0x4000804a5f:  48 89 d0                 movq     %rdx, %rax
0x4000804a62:  48 8b 14 d6              movq     (%rsi, %rdx, 8), %rdx
0x4000804a66:  80 8a 14 03 00 00 10     orb      $0x10, 0x314(%rdx)
0x4000804a6d:  85 c0                    testl    %eax, %eax
0x4000804a6f:  75 eb                    jne      0x4000804a5c

----------------
IN: 
0x4000804a5c:  8d 50 ff                 leal     -1(%rax), %edx
0x4000804a5f:  48 89 d0                 movq     %rdx, %rax
0x4000804a62:  48 8b 14 d6              movq     (%rsi, %rdx, 8), %rdx
0x4000804a66:  80 8a 14 03 00 00 10     orb      $0x10, 0x314(%rdx)
0x4000804a6d:  85 c0                    testl    %eax, %eax
0x4000804a6f:  75 eb                    jne      0x4000804a5c

----------------
IN: 
0x4000804a71:  48 8b 05 78 2f 22 00     movq     0x222f78(%rip), %rax
0x4000804a78:  48 8b 15 79 2f 22 00     movq     0x222f79(%rip), %rdx
0x4000804a7f:  48 89 42 18              movq     %rax, 0x18(%rdx)
0x4000804a83:  48 8b 05 66 2f 22 00     movq     0x222f66(%rip), %rax
0x4000804a8a:  48 85 c0                 testq    %rax, %rax
0x4000804a8d:  74 04                    je       0x4000804a93

----------------
IN: 
0x4000804a8f:  48 89 50 20              movq     %rdx, 0x20(%rax)
0x4000804a93:  83 f9 01                 cmpl     $1, %ecx
0x4000804a96:  76 3b                    jbe      0x4000804ad3

----------------
IN: 
0x4000804a98:  48 8b b3 b8 02 00 00     movq     0x2b8(%rbx), %rsi
0x4000804a9f:  4c 8d 05 32 2f 22 00     leaq     0x222f32(%rip), %r8
0x4000804aa6:  ba 01 00 00 00           movl     $1, %edx
0x4000804aab:  4c 39 46 08              cmpq     %r8, 8(%rsi)
0x4000804aaf:  48 8d 7e 10              leaq     0x10(%rsi), %rdi
0x4000804ab3:  0f 84 05 0e 00 00        je       0x40008058be

----------------
IN: 
0x4000804ab9:  8d 42 01                 leal     1(%rdx), %eax
0x4000804abc:  39 c1                    cmpl     %eax, %ecx
0x4000804abe:  74 13                    je       0x4000804ad3

----------------
IN: 
0x4000804ac0:  48 83 c7 08              addq     $8, %rdi
0x4000804ac4:  4c 39 47 f8              cmpq     %r8, -8(%rdi)
0x4000804ac8:  74 65                    je       0x4000804b2f

----------------
IN: 
0x4000804b2f:  48 c1 e2 03              shlq     $3, %rdx
0x4000804b33:  48 8b 3c 16              movq     (%rsi, %rdx), %rdi
0x4000804b37:  8b 95 68 ff ff ff        movl     -0x98(%rbp), %edx
0x4000804b3d:  85 d2                    testl    %edx, %edx
0x4000804b3f:  48 89 3d b2 2e 22 00     movq     %rdi, 0x222eb2(%rip)
0x4000804b46:  0f 85 7e 0d 00 00        jne      0x40008058ca

----------------
IN: 
0x4000804b4c:  83 c0 01                 addl     $1, %eax
0x4000804b4f:  31 d2                    xorl     %edx, %edx
0x4000804b51:  39 c1                    cmpl     %eax, %ecx
0x4000804b53:  76 04                    jbe      0x4000804b59

----------------
IN: 
0x4000804b59:  48 8b 05 48 22 22 00     movq     0x222248(%rip), %rax
0x4000804b60:  48 89 15 89 2e 22 00     movq     %rdx, 0x222e89(%rip)
0x4000804b67:  48 8b 4f 18              movq     0x18(%rdi), %rcx
0x4000804b6b:  48 85 c0                 testq    %rax, %rax
0x4000804b6e:  74 18                    je       0x4000804b88

----------------
IN: 
0x4000804b88:  48 39 d1                 cmpq     %rdx, %rcx
0x4000804b8b:  0f 85 0e 0d 00 00        jne      0x400080589f

----------------
IN: 
0x4000804b91:  48 8d 05 40 2e 22 00     leaq     0x222e40(%rip), %rax
0x4000804b98:  48 89 47 18              movq     %rax, 0x18(%rdi)
0x4000804b9c:  48 8b 05 4d 2e 22 00     movq     0x222e4d(%rip), %rax
0x4000804ba3:  48 85 c0                 testq    %rax, %rax
0x4000804ba6:  0f 84 e0 07 00 00        je       0x400080538c

----------------
IN: 
0x400080538c:  c6 85 60 ff ff ff 01     movb     $1, -0xa0(%rbp)
0x4000805393:  e9 30 f8 ff ff           jmp      0x4000804bc8

----------------
IN: 
0x4000804bc8:  44 8b 8d 68 ff ff ff     movl     -0x98(%rbp), %r9d
0x4000804bcf:  4c 8d 6d b0              leaq     -0x50(%rbp), %r13
0x4000804bd3:  31 c0                    xorl     %eax, %eax
0x4000804bd5:  48 8d 35 94 dd ff ff     leaq     -0x226c(%rip), %rsi
0x4000804bdc:  48 8d 3d cd d1 ff ff     leaq     -0x2e33(%rip), %rdi
0x4000804be3:  44 89 75 b4              movl     %r14d, -0x4c(%rbp)
0x4000804be7:  4c 89 ea                 movq     %r13, %rdx
0x4000804bea:  45 85 c9                 testl    %r9d, %r9d
0x4000804bed:  0f 94 c0                 sete     %al
0x4000804bf0:  89 45 b0                 movl     %eax, -0x50(%rbp)
0x4000804bf3:  e8 d8 c9 00 00           callq    0x40008115d0

----------------
IN: 
0x40008115d0:  41 57                    pushq    %r15
0x40008115d2:  41 56                    pushq    %r14
0x40008115d4:  49 89 ff                 movq     %rdi, %r15
0x40008115d7:  41 55                    pushq    %r13
0x40008115d9:  41 54                    pushq    %r12
0x40008115db:  49 89 d6                 movq     %rdx, %r14
0x40008115de:  55                       pushq    %rbp
0x40008115df:  53                       pushq    %rbx
0x40008115e0:  49 89 f5                 movq     %rsi, %r13
0x40008115e3:  48 83 ec 08              subq     $8, %rsp
0x40008115e7:  ff 15 e3 63 21 00        callq    *0x2163e3(%rip)

----------------
IN: 
0x40008115ed:  48 8b 2d 54 6a 21 00     movq     0x216a54(%rip), %rbp
0x40008115f4:  4c 8b 20                 movq     (%rax), %r12
0x40008115f7:  48 89 c3                 movq     %rax, %rbx
0x40008115fa:  4c 89 3d 47 6a 21 00     movq     %r15, 0x216a47(%rip)
0x4000811601:  4c 89 f7                 movq     %r14, %rdi
0x4000811604:  48 c7 00 00 00 00 00     movq     $0, (%rax)
0x400081160b:  41 ff d5                 callq    *%r13

----------------
IN: 
0x4000802970:  53                       pushq    %rbx
0x4000802971:  48 89 fb                 movq     %rdi, %rbx
0x4000802974:  8b 57 04                 movl     4(%rdi), %edx
0x4000802977:  48 8b 3d c2 46 22 00     movq     0x2246c2(%rip), %rdi
0x400080297e:  be 01 00 00 00           movl     $1, %esi
0x4000802983:  e8 58 09 01 00           callq    0x40008132e0

----------------
IN: 
0x40008132e0:  41 55                    pushq    %r13
0x40008132e2:  41 54                    pushq    %r12
0x40008132e4:  55                       pushq    %rbp
0x40008132e5:  53                       pushq    %rbx
0x40008132e6:  48 83 ec 08              subq     $8, %rsp
0x40008132ea:  48 85 ff                 testq    %rdi, %rdi
0x40008132ed:  74 55                    je       0x4000813344

----------------
IN: 
0x40008132ef:  48 89 fb                 movq     %rdi, %rbx
0x40008132f2:  41 89 f4                 movl     %esi, %r12d
0x40008132f5:  41 89 d5                 movl     %edx, %r13d
0x40008132f8:  31 ed                    xorl     %ebp, %ebp
0x40008132fa:  eb 0f                    jmp      0x400081330b

----------------
IN: 
0x400081330b:  31 c0                    xorl     %eax, %eax
0x400081330d:  f6 83 15 03 00 00 02     testb    $2, 0x315(%rbx)
0x4000813314:  75 ea                    jne      0x4000813300

----------------
IN: 
0x4000813316:  48 89 df                 movq     %rbx, %rdi
0x4000813319:  44 89 ea                 movl     %r13d, %edx
0x400081331c:  44 89 e6                 movl     %r12d, %esi
0x400081331f:  e8 0c fb ff ff           callq    0x4000812e30

----------------
IN: 
0x4000812e30:  48 8b 47 68              movq     0x68(%rdi), %rax
0x4000812e34:  48 85 c0                 testq    %rax, %rax
0x4000812e37:  0f 84 c3 03 00 00        je       0x4000813200

----------------
IN: 
0x4000812e3d:  55                       pushq    %rbp
0x4000812e3e:  48 89 e5                 movq     %rsp, %rbp
0x4000812e41:  41 57                    pushq    %r15
0x4000812e43:  41 56                    pushq    %r14
0x4000812e45:  41 55                    pushq    %r13
0x4000812e47:  41 54                    pushq    %r12
0x4000812e49:  49 89 fc                 movq     %rdi, %r12
0x4000812e4c:  53                       pushq    %rbx
0x4000812e4d:  48 83 ec 78              subq     $0x78, %rsp
0x4000812e51:  48 8b 40 08              movq     8(%rax), %rax
0x4000812e55:  48 8b 9f 68 01 00 00     movq     0x168(%rdi), %rbx
0x4000812e5c:  89 55 80                 movl     %edx, -0x80(%rbp)
0x4000812e5f:  89 75 84                 movl     %esi, -0x7c(%rbp)
0x4000812e62:  48 89 45 88              movq     %rax, -0x78(%rbp)
0x4000812e66:  48 8b 87 58 01 00 00     movq     0x158(%rdi), %rax
0x4000812e6d:  48 89 9d 68 ff ff ff     movq     %rbx, -0x98(%rbp)
0x4000812e74:  48 85 c0                 testq    %rax, %rax
0x4000812e77:  48 89 85 60 ff ff ff     movq     %rax, -0xa0(%rbp)
0x4000812e7e:  0f 84 62 03 00 00        je       0x40008131e6

----------------
IN: 
0x4000812e84:  48 8b 40 08              movq     8(%rax), %rax
0x4000812e88:  48 03 07                 addq     (%rdi), %rax
0x4000812e8b:  66 83 38 01              cmpw     $1, (%rax)
0x4000812e8f:  48 89 85 78 ff ff ff     movq     %rax, -0x88(%rbp)
0x4000812e96:  0f 85 67 03 00 00        jne      0x4000813203

----------------
IN: 
0x4000812e9c:  31 db                    xorl     %ebx, %ebx
0x4000812e9e:  45 31 ed                 xorl     %r13d, %r13d
0x4000812ea1:  0f 1f 80 00 00 00 00     nopl     (%rax)
0x4000812ea8:  44 8b 70 04              movl     4(%rax), %r14d
0x4000812eac:  49 8b 44 24 30           movq     0x30(%r12), %rax
0x4000812eb1:  48 8d 0d 88 41 21 00     leaq     0x214188(%rip), %rcx
0x4000812eb8:  4c 03 75 88              addq     -0x78(%rbp), %r14
0x4000812ebc:  48 8d 04 c0              leaq     (%rax, %rax, 8), %rax
0x4000812ec0:  48 c1 e0 04              shlq     $4, %rax
0x4000812ec4:  4c 8b 3c 01              movq     (%rcx, %rax), %r15
0x4000812ec8:  4d 85 ff                 testq    %r15, %r15
0x4000812ecb:  75 18                    jne      0x4000812ee5

----------------
IN: 
0x4000812ee5:  4c 89 fe                 movq     %r15, %rsi
0x4000812ee8:  4c 89 f7                 movq     %r14, %rdi
0x4000812eeb:  e8 a0 fa ff ff           callq    0x4000812990

----------------
IN: 
0x4000812ef0:  85 c0                    testl    %eax, %eax
0x4000812ef2:  74 e4                    je       0x4000812ed8

----------------
IN: 
0x4000812ed8:  4d 8b 7f 18              movq     0x18(%r15), %r15
0x4000812edc:  4d 85 ff                 testq    %r15, %r15
0x4000812edf:  0f 84 db 00 00 00        je       0x4000812fc0

----------------
IN: 
0x4000812ef4:  4d 89 fe                 movq     %r15, %r14
0x4000812ef7:  8b 75 80                 movl     -0x80(%rbp), %esi
0x4000812efa:  85 f6                    testl    %esi, %esi
0x4000812efc:  0f 85 4d 01 00 00        jne      0x400081304f

----------------
IN: 
0x4000812f02:  48 8b 85 78 ff ff ff     movq     -0x88(%rbp), %rax
0x4000812f09:  44 8b 78 08              movl     8(%rax), %r15d
0x4000812f0d:  49 01 c7                 addq     %rax, %r15
0x4000812f10:  4c 89 e0                 movq     %r12, %rax
0x4000812f13:  41 89 dc                 movl     %ebx, %r12d
0x4000812f16:  4c 89 f3                 movq     %r14, %rbx
0x4000812f19:  49 89 c6                 movq     %rax, %r14
0x4000812f1c:  eb 05                    jmp      0x4000812f23

----------------
IN: 
0x4000812f23:  41 0f b7 47 04           movzwl   4(%r15), %eax
0x4000812f28:  49 8b 7e 08              movq     8(%r14), %rdi
0x4000812f2c:  41 8b 4f 08              movl     8(%r15), %ecx
0x4000812f30:  4c 8b 43 28              movq     0x28(%rbx), %r8
0x4000812f34:  48 03 4d 88              addq     -0x78(%rbp), %rcx
0x4000812f38:  41 8b 17                 movl     (%r15), %edx
0x4000812f3b:  49 8b 76 30              movq     0x30(%r14), %rsi
0x4000812f3f:  83 e0 02                 andl     $2, %eax
0x4000812f42:  80 3f 00                 cmpb     $0, (%rdi)
0x4000812f45:  0f b7 c0                 movzwl   %ax, %eax
0x4000812f48:  75 18                    jne      0x4000812f62

----------------
IN: 
0x4000812f4a:  48 8b 3d 2f 3d 21 00     movq     0x213d2f(%rip), %rdi
0x4000812f51:  4c 8d 15 9c d6 00 00     leaq     0xd69c(%rip), %r10
0x4000812f58:  48 8b 3f                 movq     (%rdi), %rdi
0x4000812f5b:  48 85 ff                 testq    %rdi, %rdi
0x4000812f5e:  49 0f 44 fa              cmoveq   %r10, %rdi
0x4000812f62:  48 83 ec 08              subq     $8, %rsp
0x4000812f66:  44 8b 4d 84              movl     -0x7c(%rbp), %r9d
0x4000812f6a:  50                       pushq    %rax
0x4000812f6b:  e8 10 fb ff ff           callq    0x4000812a80

----------------
IN: 
0x4000812a80:  55                       pushq    %rbp
0x4000812a81:  48 89 e5                 movq     %rsp, %rbp
0x4000812a84:  41 57                    pushq    %r15
0x4000812a86:  41 56                    pushq    %r14
0x4000812a88:  41 55                    pushq    %r13
0x4000812a8a:  41 54                    pushq    %r12
0x4000812a8c:  41 89 d6                 movl     %edx, %r14d
0x4000812a8f:  53                       pushq    %rbx
0x4000812a90:  49 89 cf                 movq     %rcx, %r15
0x4000812a93:  4d 89 c4                 movq     %r8, %r12
0x4000812a96:  48 83 ec 68              subq     $0x68, %rsp
0x4000812a9a:  f6 05 ff 41 21 00 10     testb    $0x10, 0x2141ff(%rip)
0x4000812aa1:  49 8b 40 68              movq     0x68(%r8), %rax
0x4000812aa5:  48 89 bd 78 ff ff ff     movq     %rdi, -0x88(%rbp)
0x4000812aac:  44 89 8d 74 ff ff ff     movl     %r9d, -0x8c(%rbp)
0x4000812ab3:  4c 8b 68 08              movq     8(%rax), %r13
0x4000812ab7:  0f 85 63 01 00 00        jne      0x4000812c20

----------------
IN: 
0x4000812abd:  49 8b 84 24 68 01 00 00  movq     0x168(%r12), %rax
0x4000812ac5:  48 85 c0                 testq    %rax, %rax
0x4000812ac8:  0f 84 aa 01 00 00        je       0x4000812c78

----------------
IN: 
0x4000812ace:  48 8b 58 08              movq     8(%rax), %rbx
0x4000812ad2:  48 85 db                 testq    %rbx, %rbx
0x4000812ad5:  0f 84 2c 03 00 00        je       0x4000812e07

----------------
IN: 
0x4000812adb:  49 03 1c 24              addq     (%r12), %rbx
0x4000812adf:  66 83 3b 01              cmpw     $1, (%rbx)
0x4000812ae3:  75 1e                    jne      0x4000812b03

----------------
IN: 
0x4000812ae5:  44 39 73 08              cmpl     %r14d, 8(%rbx)
0x4000812ae9:  0f 84 e1 00 00 00        je       0x4000812bd0

----------------
IN: 
0x4000812aef:  8b 43 10                 movl     0x10(%rbx), %eax
0x4000812af2:  85 c0                    testl    %eax, %eax
0x4000812af4:  0f 84 f6 01 00 00        je       0x4000812cf0

----------------
IN: 
0x4000812afa:  48 01 c3                 addq     %rax, %rbx
0x4000812afd:  66 83 3b 01              cmpw     $1, (%rbx)
0x4000812b01:  74 e2                    je       0x4000812ae5

----------------
IN: 
0x4000812bd0:  8b 43 0c                 movl     0xc(%rbx), %eax
0x4000812bd3:  4c 89 ff                 movq     %r15, %rdi
0x4000812bd6:  8b 34 03                 movl     (%rbx, %rax), %esi
0x4000812bd9:  4c 01 ee                 addq     %r13, %rsi
0x4000812bdc:  e8 9f 9e 00 00           callq    0x400081ca80

----------------
IN: 
0x4000812be1:  85 c0                    testl    %eax, %eax
0x4000812be3:  0f 85 06 ff ff ff        jne      0x4000812aef

----------------
IN: 
0x4000812be9:  48 8d 65 d8              leaq     -0x28(%rbp), %rsp
0x4000812bed:  5b                       popq     %rbx
0x4000812bee:  41 5c                    popq     %r12
0x4000812bf0:  41 5d                    popq     %r13
0x4000812bf2:  41 5e                    popq     %r14
0x4000812bf4:  41 5f                    popq     %r15
0x4000812bf6:  5d                       popq     %rbp
0x4000812bf7:  c3                       retq     

----------------
IN: 
0x4000812f70:  41 09 c5                 orl      %eax, %r13d
0x4000812f73:  41 0f b7 47 06           movzwl   6(%r15), %eax
0x4000812f78:  5a                       popq     %rdx
0x4000812f79:  59                       popq     %rcx
0x4000812f7a:  25 ff 7f 00 00           andl     $0x7fff, %eax
0x4000812f7f:  41 39 c4                 cmpl     %eax, %r12d
0x4000812f82:  44 0f 42 e0              cmovbl   %eax, %r12d
0x4000812f86:  41 8b 47 0c              movl     0xc(%r15), %eax
0x4000812f8a:  85 c0                    testl    %eax, %eax
0x4000812f8c:  75 92                    jne      0x4000812f20

----------------
IN: 
0x4000812f20:  49 01 c7                 addq     %rax, %r15
0x4000812f23:  41 0f b7 47 04           movzwl   4(%r15), %eax
0x4000812f28:  49 8b 7e 08              movq     8(%r14), %rdi
0x4000812f2c:  41 8b 4f 08              movl     8(%r15), %ecx
0x4000812f30:  4c 8b 43 28              movq     0x28(%rbx), %r8
0x4000812f34:  48 03 4d 88              addq     -0x78(%rbp), %rcx
0x4000812f38:  41 8b 17                 movl     (%r15), %edx
0x4000812f3b:  49 8b 76 30              movq     0x30(%r14), %rsi
0x4000812f3f:  83 e0 02                 andl     $2, %eax
0x4000812f42:  80 3f 00                 cmpb     $0, (%rdi)
0x4000812f45:  0f b7 c0                 movzwl   %ax, %eax
0x4000812f48:  75 18                    jne      0x4000812f62

----------------
IN: 
0x4000812f8e:  48 8b 8d 78 ff ff ff     movq     -0x88(%rbp), %rcx
0x4000812f95:  44 89 e3                 movl     %r12d, %ebx
0x4000812f98:  4d 89 f4                 movq     %r14, %r12
0x4000812f9b:  8b 41 0c                 movl     0xc(%rcx), %eax
0x4000812f9e:  85 c0                    testl    %eax, %eax
0x4000812fa0:  0f 84 c9 00 00 00        je       0x400081306f

----------------
IN: 
0x400081306f:  48 83 bd 68 ff ff ff 00  cmpq     $0, -0x98(%rbp)
0x4000813077:  74 2f                    je       0x40008130a8

----------------
IN: 
0x40008130a8:  85 db                    testl    %ebx, %ebx
0x40008130aa:  44 89 e8                 movl     %r13d, %eax
0x40008130ad:  75 0f                    jne      0x40008130be

----------------
IN: 
0x40008130be:  8d 7b 01                 leal     1(%rbx), %edi
0x40008130c1:  be 18 00 00 00           movl     $0x18, %esi
0x40008130c6:  48 89 fb                 movq     %rdi, %rbx
0x40008130c9:  e8 c2 e9 fe ff           callq    0x4000801a90

----------------
IN: 
0x40008130ce:  48 85 c0                 testq    %rax, %rax
0x40008130d1:  49 89 84 24 e0 02 00 00  movq     %rax, 0x2e0(%r12)
0x40008130d9:  0f 84 ef 01 00 00        je       0x40008132ce

----------------
IN: 
0x40008130df:  49 8b 94 24 c8 01 00 00  movq     0x1c8(%r12), %rdx
0x40008130e7:  48 8b 8d 60 ff ff ff     movq     -0xa0(%rbp), %rcx
0x40008130ee:  41 89 9c 24 e8 02 00 00  movl     %ebx, 0x2e8(%r12)
0x40008130f6:  48 8b 52 08              movq     8(%rdx), %rdx
0x40008130fa:  48 85 c9                 testq    %rcx, %rcx
0x40008130fd:  49 89 94 24 30 03 00 00  movq     %rdx, 0x330(%r12)
0x4000813105:  74 73                    je       0x400081317a

----------------
IN: 
0x4000813107:  48 8b 79 08              movq     8(%rcx), %rdi
0x400081310b:  49 03 3c 24              addq     (%r12), %rdi
0x400081310f:  4c 8b 45 88              movq     -0x78(%rbp), %r8
0x4000813113:  0f 1f 44 00 00           nopl     (%rax, %rax)
0x4000813118:  8b 4f 08                 movl     8(%rdi), %ecx
0x400081311b:  48 01 f9                 addq     %rdi, %rcx
0x400081311e:  eb 03                    jmp      0x4000813123

----------------
IN: 
0x4000813123:  0f b7 51 06              movzwl   6(%rcx), %edx
0x4000813127:  89 d6                    movl     %edx, %esi
0x4000813129:  66 81 e6 ff 7f           andw     $0x7fff, %si
0x400081312e:  44 0f b7 ce              movzwl   %si, %r9d
0x4000813132:  44 39 cb                 cmpl     %r9d, %ebx
0x4000813135:  76 30                    jbe      0x4000813167

----------------
IN: 
0x4000813137:  0f b7 f6                 movzwl   %si, %esi
0x400081313a:  66 81 e2 00 80           andw     $0x8000, %dx
0x400081313f:  44 8b 09                 movl     (%rcx), %r9d
0x4000813142:  48 8d 34 76              leaq     (%rsi, %rsi, 2), %rsi
0x4000813146:  0f b7 d2                 movzwl   %dx, %edx
0x4000813149:  48 8d 34 f0              leaq     (%rax, %rsi, 8), %rsi
0x400081314d:  89 56 0c                 movl     %edx, 0xc(%rsi)
0x4000813150:  8b 51 08                 movl     8(%rcx), %edx
0x4000813153:  44 89 4e 08              movl     %r9d, 8(%rsi)
0x4000813157:  4c 01 c2                 addq     %r8, %rdx
0x400081315a:  48 89 16                 movq     %rdx, (%rsi)
0x400081315d:  8b 57 04                 movl     4(%rdi), %edx
0x4000813160:  4c 01 c2                 addq     %r8, %rdx
0x4000813163:  48 89 56 10              movq     %rdx, 0x10(%rsi)
0x4000813167:  8b 51 0c                 movl     0xc(%rcx), %edx
0x400081316a:  85 d2                    testl    %edx, %edx
0x400081316c:  75 b2                    jne      0x4000813120

----------------
IN: 
0x4000813120:  48 01 d1                 addq     %rdx, %rcx
0x4000813123:  0f b7 51 06              movzwl   6(%rcx), %edx
0x4000813127:  89 d6                    movl     %edx, %esi
0x4000813129:  66 81 e6 ff 7f           andw     $0x7fff, %si
0x400081312e:  44 0f b7 ce              movzwl   %si, %r9d
0x4000813132:  44 39 cb                 cmpl     %r9d, %ebx
0x4000813135:  76 30                    jbe      0x4000813167

----------------
IN: 
0x400081316e:  8b 57 0c                 movl     0xc(%rdi), %edx
0x4000813171:  85 d2                    testl    %edx, %edx
0x4000813173:  74 05                    je       0x400081317a

----------------
IN: 
0x400081317a:  48 8b 9d 68 ff ff ff     movq     -0x98(%rbp), %rbx
0x4000813181:  48 85 db                 testq    %rbx, %rbx
0x4000813184:  74 4e                    je       0x40008131d4

----------------
IN: 
0x40008131d4:  48 8d 65 d8              leaq     -0x28(%rbp), %rsp
0x40008131d8:  44 89 e8                 movl     %r13d, %eax
0x40008131db:  5b                       popq     %rbx
0x40008131dc:  41 5c                    popq     %r12
0x40008131de:  41 5d                    popq     %r13
0x40008131e0:  41 5e                    popq     %r14
0x40008131e2:  41 5f                    popq     %r15
0x40008131e4:  5d                       popq     %rbp
0x40008131e5:  c3                       retq     

----------------
IN: 
0x4000813324:  48 8b 5b 18              movq     0x18(%rbx), %rbx
0x4000813328:  85 c0                    testl    %eax, %eax
0x400081332a:  0f 95 c0                 setne    %al
0x400081332d:  0f b6 c0                 movzbl   %al, %eax
0x4000813330:  09 c5                    orl      %eax, %ebp
0x4000813332:  48 85 db                 testq    %rbx, %rbx
0x4000813335:  75 d4                    jne      0x400081330b

----------------
IN: 
0x4000812f62:  48 83 ec 08              subq     $8, %rsp
0x4000812f66:  44 8b 4d 84              movl     -0x7c(%rbp), %r9d
0x4000812f6a:  50                       pushq    %rax
0x4000812f6b:  e8 10 fb ff ff           callq    0x4000812a80

----------------
IN: 
0x4000813079:  48 8b 85 68 ff ff ff     movq     -0x98(%rbp), %rax
0x4000813080:  48 8b 50 08              movq     8(%rax), %rdx
0x4000813084:  49 03 14 24              addq     (%r12), %rdx
0x4000813088:  eb 09                    jmp      0x4000813093

----------------
IN: 
0x4000813093:  0f b7 42 04              movzwl   4(%rdx), %eax
0x4000813097:  25 ff 7f 00 00           andl     $0x7fff, %eax
0x400081309c:  39 c3                    cmpl     %eax, %ebx
0x400081309e:  0f 42 d8                 cmovbl   %eax, %ebx
0x40008130a1:  8b 42 10                 movl     0x10(%rdx), %eax
0x40008130a4:  85 c0                    testl    %eax, %eax
0x40008130a6:  75 e8                    jne      0x4000813090

----------------
IN: 
0x4000813090:  48 01 c2                 addq     %rax, %rdx
0x4000813093:  0f b7 42 04              movzwl   4(%rdx), %eax
0x4000813097:  25 ff 7f 00 00           andl     $0x7fff, %eax
0x400081309c:  39 c3                    cmpl     %eax, %ebx
0x400081309e:  0f 42 d8                 cmovbl   %eax, %ebx
0x40008130a1:  8b 42 10                 movl     0x10(%rdx), %eax
0x40008130a4:  85 c0                    testl    %eax, %eax
0x40008130a6:  75 e8                    jne      0x4000813090

----------------
IN: 
0x400081ad83:  48 8b 15 2e bf 20 00     movq     0x20bf2e(%rip), %rdx
0x400081ad8a:  48 8d 5c 32 ff           leaq     -1(%rdx, %rsi), %rbx
0x400081ad8f:  48 89 d0                 movq     %rdx, %rax
0x400081ad92:  48 f7 d8                 negq     %rax
0x400081ad95:  48 21 c3                 andq     %rax, %rbx
0x400081ad98:  0f 84 8a 00 00 00        je       0x400081ae28

----------------
IN: 
0x400081ad9e:  45 31 c9                 xorl     %r9d, %r9d
0x400081ada1:  31 ff                    xorl     %edi, %edi
0x400081ada3:  48 89 f5                 movq     %rsi, %rbp
0x400081ada6:  41 b8 ff ff ff ff        movl     $0xffffffff, %r8d
0x400081adac:  b9 22 00 00 00           movl     $0x22, %ecx
0x400081adb1:  ba 03 00 00 00           movl     $3, %edx
0x400081adb6:  48 89 de                 movq     %rbx, %rsi
0x400081adb9:  e8 02 16 00 00           callq    0x400081c3c0

----------------
IN: 
0x400081adbe:  48 83 f8 ff              cmpq     $0xff, %rax
0x400081adc2:  74 70                    je       0x400081ae34

----------------
IN: 
0x400081adc4:  48 3b 05 fd d2 20 00     cmpq     0x20d2fd(%rip), %rax
0x400081adcb:  48 89 c7                 movq     %rax, %rdi
0x400081adce:  48 0f 44 3d fa d2 20 00  cmoveq   0x20d2fa(%rip), %rdi
0x400081add6:  48 01 c3                 addq     %rax, %rbx
0x400081add9:  48 89 1d e8 d2 20 00     movq     %rbx, 0x20d2e8(%rip)
0x400081ade0:  48 01 fd                 addq     %rdi, %rbp
0x400081ade3:  48 89 3d d6 d2 20 00     movq     %rdi, 0x20d2d6(%rip)
0x400081adea:  48 89 2d df d2 20 00     movq     %rbp, 0x20d2df(%rip)
0x400081adf1:  48 83 c4 08              addq     $8, %rsp
0x400081adf5:  48 89 f8                 movq     %rdi, %rax
0x400081adf8:  5b                       popq     %rbx
0x400081adf9:  5d                       popq     %rbp
0x400081adfa:  c3                       retq     

----------------
IN: 
0x4000813186:  48 8b 53 08              movq     8(%rbx), %rdx
0x400081318a:  4c 8b 45 88              movq     -0x78(%rbp), %r8
0x400081318e:  49 03 14 24              addq     (%r12), %rdx
0x4000813192:  eb 07                    jmp      0x400081319b

----------------
IN: 
0x400081319b:  f6 42 02 01              testb    $1, 2(%rdx)
0x400081319f:  75 2c                    jne      0x40008131cd

----------------
IN: 
0x40008131cd:  8b 4a 10                 movl     0x10(%rdx), %ecx
0x40008131d0:  85 c9                    testl    %ecx, %ecx
0x40008131d2:  75 c4                    jne      0x4000813198

----------------
IN: 
0x4000813198:  48 01 ca                 addq     %rcx, %rdx
0x400081319b:  f6 42 02 01              testb    $1, 2(%rdx)
0x400081319f:  75 2c                    jne      0x40008131cd

----------------
IN: 
0x40008131a1:  8b 72 0c                 movl     0xc(%rdx), %esi
0x40008131a4:  0f b7 4a 04              movzwl   4(%rdx), %ecx
0x40008131a8:  8b 7a 08                 movl     8(%rdx), %edi
0x40008131ab:  8b 34 32                 movl     (%rdx, %rsi), %esi
0x40008131ae:  81 e1 ff 7f 00 00        andl     $0x7fff, %ecx
0x40008131b4:  48 8d 0c 49              leaq     (%rcx, %rcx, 2), %rcx
0x40008131b8:  48 8d 0c c8              leaq     (%rax, %rcx, 8), %rcx
0x40008131bc:  4c 01 c6                 addq     %r8, %rsi
0x40008131bf:  89 79 08                 movl     %edi, 8(%rcx)
0x40008131c2:  48 89 31                 movq     %rsi, (%rcx)
0x40008131c5:  48 c7 41 10 00 00 00 00  movq     $0, 0x10(%rcx)
0x40008131cd:  8b 4a 10                 movl     0x10(%rdx), %ecx
0x40008131d0:  85 c9                    testl    %ecx, %ecx
0x40008131d2:  75 c4                    jne      0x4000813198

----------------
IN: 
0x40008131e6:  31 db                    xorl     %ebx, %ebx
0x40008131e8:  45 31 ed                 xorl     %r13d, %r13d
0x40008131eb:  48 83 bd 68 ff ff ff 00  cmpq     $0, -0x98(%rbp)
0x40008131f3:  0f 85 80 fe ff ff        jne      0x4000813079

----------------
IN: 
0x4000813337:  48 83 c4 08              addq     $8, %rsp
0x400081333b:  89 e8                    movl     %ebp, %eax
0x400081333d:  5b                       popq     %rbx
0x400081333e:  5d                       popq     %rbp
0x400081333f:  41 5c                    popq     %r12
0x4000813341:  41 5d                    popq     %r13
0x4000813343:  c3                       retq     

----------------
IN: 
0x4000802988:  85 c0                    testl    %eax, %eax
0x400080298a:  74 06                    je       0x4000802992

----------------
IN: 
0x4000802992:  5b                       popq     %rbx
0x4000802993:  c3                       retq     

----------------
IN: 
0x400081160e:  4c 89 23                 movq     %r12, (%rbx)
0x4000811611:  48 89 2d 30 6a 21 00     movq     %rbp, 0x216a30(%rip)
0x4000811618:  48 83 c4 08              addq     $8, %rsp
0x400081161c:  5b                       popq     %rbx
0x400081161d:  5d                       popq     %rbp
0x400081161e:  41 5c                    popq     %r12
0x4000811620:  41 5d                    popq     %r13
0x4000811622:  41 5e                    popq     %r14
0x4000811624:  41 5f                    popq     %r15
0x4000811626:  c3                       retq     

----------------
IN: 
0x4000804bf8:  0f b6 05 e9 33 22 00     movzbl   0x2233e9(%rip), %eax
0x4000804bff:  48 83 bd 58 ff ff ff 00  cmpq     $0, -0xa8(%rbp)
0x4000804c07:  88 85 38 ff ff ff        movb     %al, -0xc8(%rbp)
0x4000804c0d:  75 0c                    jne      0x4000804c1b

----------------
IN: 
0x4000804c0f:  e8 ac ce ff ff           callq    0x4000801ac0

----------------
IN: 
0x4000801ac0:  31 c0                    xorl     %eax, %eax
0x4000801ac2:  48 83 3d ce 64 22 00 00  cmpq     $0, 0x2264ce(%rip)
0x4000801aca:  53                       pushq    %rbx
0x4000801acb:  48 8b 1d 96 64 22 00     movq     0x226496(%rip), %rbx
0x4000801ad2:  48 89 1d 9f 64 22 00     movq     %rbx, 0x22649f(%rip)
0x4000801ad9:  0f 85 2a 01 00 00        jne      0x4000801c09

----------------
IN: 
0x4000801adf:  48 8d 7b 40              leaq     0x40(%rbx), %rdi
0x4000801ae3:  be 01 00 00 00           movl     $1, %esi
0x4000801ae8:  48 c1 e7 04              shlq     $4, %rdi
0x4000801aec:  e8 9f ff ff ff           callq    0x4000801a90

----------------
IN: 
0x4000801af1:  48 83 3d d7 55 22 00 00  cmpq     $0, 0x2255d7(%rip)
0x4000801af9:  48 8d 53 3f              leaq     0x3f(%rbx), %rdx
0x4000801afd:  48 89 05 6c 64 22 00     movq     %rax, 0x22646c(%rip)
0x4000801b04:  48 8d 70 10              leaq     0x10(%rax), %rsi
0x4000801b08:  48 c7 40 08 00 00 00 00  movq     $0, 8(%rax)
0x4000801b10:  48 89 10                 movq     %rdx, (%rax)
0x4000801b13:  74 1f                    je       0x4000801b34

----------------
IN: 
0x4000801b34:  48 8b 15 05 55 22 00     movq     0x225505(%rip), %rdx
0x4000801b3b:  31 c0                    xorl     %eax, %eax
0x4000801b3d:  48 85 d2                 testq    %rdx, %rdx
0x4000801b40:  74 1e                    je       0x4000801b60

----------------
IN: 
0x4000801b42:  48 83 ba 28 04 00 00 00  cmpq     $0, 0x428(%rdx)
0x4000801b4a:  74 0e                    je       0x4000801b5a

----------------
IN: 
0x4000801b5a:  48 8b 52 18              movq     0x18(%rdx), %rdx
0x4000801b5e:  eb dd                    jmp      0x4000801b3d

----------------
IN: 
0x4000801b3d:  48 85 d2                 testq    %rdx, %rdx
0x4000801b40:  74 1e                    je       0x4000801b60

----------------
IN: 
0x4000801b4c:  48 63 c8                 movslq   %eax, %rcx
0x4000801b4f:  ff c0                    incl     %eax
0x4000801b51:  48 c1 e1 04              shlq     $4, %rcx
0x4000801b55:  48 89 54 0e 08           movq     %rdx, 8(%rsi, %rcx)
0x4000801b5a:  48 8b 52 18              movq     0x18(%rdx), %rdx
0x4000801b5e:  eb dd                    jmp      0x4000801b3d

----------------
IN: 
0x4000801b60:  48 98                    cltq     
0x4000801b62:  48 39 c3                 cmpq     %rax, %rbx
0x4000801b65:  74 1f                    je       0x4000801b86

----------------
IN: 
0x4000801b86:  e8 45 27 01 00           callq    0x40008142d0

----------------
IN: 
0x40008142d0:  41 57                    pushq    %r15
0x40008142d2:  41 56                    pushq    %r14
0x40008142d4:  41 55                    pushq    %r13
0x40008142d6:  41 54                    pushq    %r12
0x40008142d8:  55                       pushq    %rbp
0x40008142d9:  53                       pushq    %rbx
0x40008142da:  48 83 ec 08              subq     $8, %rsp
0x40008142de:  4c 8b 15 8b 3c 21 00     movq     0x213c8b(%rip), %r10
0x40008142e5:  4d 85 d2                 testq    %r10, %r10
0x40008142e8:  0f 84 8b 01 00 00        je       0x4000814479

----------------
IN: 
0x40008142ee:  49 83 7a 08 00           cmpq     $0, 8(%r10)
0x40008142f3:  0f 85 61 01 00 00        jne      0x400081445a

----------------
IN: 
0x40008142f9:  49 8b 72 18              movq     0x18(%r10), %rsi
0x40008142fd:  48 85 f6                 testq    %rsi, %rsi
0x4000814300:  0f 84 1d 01 00 00        je       0x4000814423

----------------
IN: 
0x4000814306:  4d 8b 2a                 movq     (%r10), %r13
0x4000814309:  4d 85 ed                 testq    %r13, %r13
0x400081430c:  0f 84 29 01 00 00        je       0x400081443b

----------------
IN: 
0x4000814312:  49 83 c2 28              addq     $0x28, %r10
0x4000814316:  45 31 db                 xorl     %r11d, %r11d
0x4000814319:  31 db                    xorl     %ebx, %ebx
0x400081431b:  45 31 e4                 xorl     %r12d, %r12d
0x400081431e:  31 ed                    xorl     %ebp, %ebp
0x4000814320:  41 b9 40 00 00 00        movl     $0x40, %r9d
0x4000814326:  eb 44                    jmp      0x400081436c

----------------
IN: 
0x400081436c:  48 8b 8e 30 04 00 00     movq     0x430(%rsi), %rcx
0x4000814373:  48 8b 86 38 04 00 00     movq     0x438(%rsi), %rax
0x400081437a:  4c 89 e7                 movq     %r12, %rdi
0x400081437d:  4c 8b 86 28 04 00 00     movq     0x428(%rsi), %r8
0x4000814384:  4c 8d 71 ff              leaq     -1(%rcx), %r14
0x4000814388:  48 f7 d8                 negq     %rax
0x400081438b:  49 21 c6                 andq     %rax, %r14
0x400081438e:  49 39 c9                 cmpq     %rcx, %r9
0x4000814391:  4a 8d 44 01 ff           leaq     -1(%rcx, %r8), %rax
0x4000814396:  4c 0f 42 c9              cmovbq   %rcx, %r9
0x400081439a:  48 29 ef                 subq     %rbp, %rdi
0x400081439d:  4c 29 f0                 subq     %r14, %rax
0x40008143a0:  4c 39 c7                 cmpq     %r8, %rdi
0x40008143a3:  49 89 c7                 movq     %rax, %r15
0x40008143a6:  73 88                    jae      0x4000814330

----------------
IN: 
0x40008143a8:  4a 8d 04 3b              leaq     (%rbx, %r15), %rax
0x40008143ac:  31 d2                    xorl     %edx, %edx
0x40008143ae:  48 f7 f1                 divq     %rcx
0x40008143b1:  49 8d 14 18              leaq     (%r8, %rbx), %rdx
0x40008143b5:  48 01 d7                 addq     %rdx, %rdi
0x40008143b8:  48 0f af c8              imulq    %rax, %rcx
0x40008143bc:  49 8d 04 0e              leaq     (%r14, %rcx), %rax
0x40008143c0:  48 39 f8                 cmpq     %rdi, %rax
0x40008143c3:  76 09                    jbe      0x40008143ce

----------------
IN: 
0x40008143ce:  48 89 86 40 04 00 00     movq     %rax, 0x440(%rsi)
0x40008143d5:  49 8b 32                 movq     (%r10), %rsi
0x40008143d8:  49 83 c3 01              addq     $1, %r11
0x40008143dc:  48 89 c3                 movq     %rax, %rbx
0x40008143df:  48 85 f6                 testq    %rsi, %rsi
0x40008143e2:  0f 85 77 ff ff ff        jne      0x400081435f

----------------
IN: 
0x40008143e8:  4a 8d 84 0b 7f 06 00 00  leaq     0x67f(%rbx, %r9), %rax
0x40008143f0:  31 d2                    xorl     %edx, %edx
0x40008143f2:  48 89 1d 8f 3b 21 00     movq     %rbx, 0x213b8f(%rip)
0x40008143f9:  49 f7 f1                 divq     %r9
0x40008143fc:  49 0f af c1              imulq    %r9, %rax
0x4000814400:  48 05 00 09 00 00        addq     $0x900, %rax
0x4000814406:  48 89 05 73 3b 21 00     movq     %rax, 0x213b73(%rip)
0x400081440d:  4c 89 0d 7c 3b 21 00     movq     %r9, 0x213b7c(%rip)
0x4000814414:  48 83 c4 08              addq     $8, %rsp
0x4000814418:  5b                       popq     %rbx
0x4000814419:  5d                       popq     %rbp
0x400081441a:  41 5c                    popq     %r12
0x400081441c:  41 5d                    popq     %r13
0x400081441e:  41 5e                    popq     %r14
0x4000814420:  41 5f                    popq     %r15
0x4000814422:  c3                       retq     

----------------
IN: 
0x4000801b8b:  e8 e0 29 01 00           callq    0x4000814570

----------------
IN: 
0x4000814570:  41 54                    pushq    %r12
0x4000814572:  55                       pushq    %rbp
0x4000814573:  53                       pushq    %rbx
0x4000814574:  48 8b 1d 05 3a 21 00     movq     0x213a05(%rip), %rbx
0x400081457b:  48 8b 3d 0e 3a 21 00     movq     0x213a0e(%rip), %rdi
0x4000814582:  48 89 de                 movq     %rbx, %rsi
0x4000814585:  e8 e6 d4 fe ff           callq    0x4000801a70

----------------
IN: 
0x400081458a:  48 85 c0                 testq    %rax, %rax
0x400081458d:  74 79                    je       0x4000814608

----------------
IN: 
0x400081458f:  48 8d 9c 18 00 f7 ff ff  leaq     -0x900(%rax, %rbx), %rbx
0x4000814597:  48 89 c5                 movq     %rax, %rbp
0x400081459a:  31 c0                    xorl     %eax, %eax
0x400081459c:  be 10 00 00 00           movl     $0x10, %esi
0x40008145a1:  48 8d 7b 08              leaq     8(%rbx), %rdi
0x40008145a5:  48 89 d9                 movq     %rbx, %rcx
0x40008145a8:  48 c7 03 00 00 00 00     movq     $0, (%rbx)
0x40008145af:  48 c7 83 f8 08 00 00 00  movq     $0, 0x8f8(%rbx)
0x40008145b7:  00 00 00
0x40008145ba:  48 83 e7 f8              andq     $0xfffffff8, %rdi
0x40008145be:  48 29 f9                 subq     %rdi, %rcx
0x40008145c1:  81 c1 00 09 00 00        addl     $0x900, %ecx
0x40008145c7:  c1 e9 03                 shrl     $3, %ecx
0x40008145ca:  f3 48 ab                 rep stosq %rax, (%rdi)

----------------
IN: 
0x40008145ca:  f3 48 ab                 rep stosq %rax, (%rdi)

----------------
IN: 
0x40008145cd:  48 8b 3d 94 39 21 00     movq     0x213994(%rip), %rdi
0x40008145d4:  4c 8d 67 0e              leaq     0xe(%rdi), %r12
0x40008145d8:  48 83 c7 10              addq     $0x10, %rdi
0x40008145dc:  e8 af d4 fe ff           callq    0x4000801a90

----------------
IN: 
0x40008145e1:  48 85 c0                 testq    %rax, %rax
0x40008145e4:  74 1a                    je       0x4000814600

----------------
IN: 
0x40008145e6:  4c 89 20                 movq     %r12, (%rax)
0x40008145e9:  48 83 c0 10              addq     $0x10, %rax
0x40008145ed:  48 89 43 08              movq     %rax, 8(%rbx)
0x40008145f1:  48 89 d8                 movq     %rbx, %rax
0x40008145f4:  5b                       popq     %rbx
0x40008145f5:  5d                       popq     %rbp
0x40008145f6:  41 5c                    popq     %r12
0x40008145f8:  c3                       retq     

----------------
IN: 
0x4000801b90:  48 85 c0                 testq    %rax, %rax
0x4000801b93:  48 89 c6                 movq     %rax, %rsi
0x4000801b96:  75 1f                    jne      0x4000801bb7

----------------
IN: 
0x4000801bb7:  48 8b 40 08              movq     8(%rax), %rax
0x4000801bbb:  bf 02 10 00 00           movl     $0x1002, %edi
0x4000801bc0:  48 89 05 d1 63 22 00     movq     %rax, 0x2263d1(%rip)
0x4000801bc7:  48 89 36                 movq     %rsi, (%rsi)
0x4000801bca:  b8 9e 00 00 00           movl     $0x9e, %eax
0x4000801bcf:  48 89 76 10              movq     %rsi, 0x10(%rsi)
0x4000801bd3:  0f 05                    syscall  

----------------
IN: 
0x4000801bd5:  85 c0                    testl    %eax, %eax
0x4000801bd7:  74 26                    je       0x4000801bff

----------------
IN: 
0x4000801bff:  c6 05 e2 63 22 00 01     movb     $1, 0x2263e2(%rip)
0x4000801c06:  48 89 f0                 movq     %rsi, %rax
0x4000801c09:  5b                       popq     %rbx
0x4000801c0a:  c3                       retq     

----------------
IN: 
0x4000804c14:  48 89 85 58 ff ff ff     movq     %rax, -0xa8(%rbp)
0x4000804c1b:  48 83 3d 15 34 22 00 00  cmpq     $0, 0x223415(%rip)
0x4000804c23:  75 34                    jne      0x4000804c59

----------------
IN: 
0x4000804c25:  48 8b 15 3c 22 22 00     movq     0x22223c(%rip), %rdx
0x4000804c2c:  48 8b 02                 movq     (%rdx), %rax
0x4000804c2f:  30 c0                    xorb     %al, %al
0x4000804c31:  64 48 89 04 25 28 00 00  movq     %rax, %fs:0x28
0x4000804c39:  00
0x4000804c3a:  48 8b 42 08              movq     8(%rdx), %rax
0x4000804c3e:  64 48 89 04 25 30 00 00  movq     %rax, %fs:0x30
0x4000804c46:  00
0x4000804c47:  48 c7 05 16 22 22 00 00  movq     $0, 0x222216(%rip)
0x4000804c4f:  00 00 00
0x4000804c52:  48 89 05 17 20 22 00     movq     %rax, 0x222017(%rip)
0x4000804c59:  44 8b 85 68 ff ff ff     movl     -0x98(%rbp), %r8d
0x4000804c60:  45 85 c0                 testl    %r8d, %r8d
0x4000804c63:  0f 85 08 06 00 00        jne      0x4000805271

----------------
IN: 
0x4000804c69:  48 8b 93 78 02 00 00     movq     0x278(%rbx), %rdx
0x4000804c70:  48 85 d2                 testq    %rdx, %rdx
0x4000804c73:  0f 84 e8 04 00 00        je       0x4000805161

----------------
IN: 
0x4000805161:  48 8d 83 b8 02 00 00     leaq     0x2b8(%rbx), %rax
0x4000805168:  f6 05 32 1b 22 00 02     testb    $2, 0x221b32(%rip)
0x400080516f:  48 8b 93 c0 02 00 00     movq     0x2c0(%rbx), %rdx
0x4000805176:  48 89 05 d3 1e 22 00     movq     %rax, 0x221ed3(%rip)
0x400080517d:  48 8b 83 b8 02 00 00     movq     0x2b8(%rbx), %rax
0x4000805184:  48 89 15 45 1b 22 00     movq     %rdx, 0x221b45(%rip)
0x400080518b:  48 89 05 36 1b 22 00     movq     %rax, 0x221b36(%rip)
0x4000805192:  48 8b 05 2f 28 22 00     movq     0x22282f(%rip), %rax
0x4000805199:  48 89 05 f8 1b 22 00     movq     %rax, 0x221bf8(%rip)
0x40008051a0:  0f 84 af fe ff ff        je       0x4000805055

----------------
IN: 
0x4000805055:  45 31 e4                 xorl     %r12d, %r12d
0x4000805058:  48 83 3d 18 1d 22 00 00  cmpq     $0, 0x221d18(%rip)
0x4000805060:  41 0f 95 c4              setne    %r12b
0x4000805064:  44 09 25 79 1c 22 00     orl      %r12d, 0x221c79(%rip)
0x400080506b:  0f 31                    rdtsc    
0x400080506d:  89 c0                    movl     %eax, %eax
0x400080506f:  48 c1 e2 20              shlq     $0x20, %rdx
0x4000805073:  4c 8d 2d 5e 29 22 00     leaq     0x22295e(%rip), %r13
0x400080507a:  48 09 c2                 orq      %rax, %rdx
0x400080507d:  8b 83 c0 02 00 00        movl     0x2c0(%rbx), %eax
0x4000805083:  48 89 95 68 ff ff ff     movq     %rdx, -0x98(%rbp)
0x400080508a:  44 8d 78 ff              leal     -1(%rax), %r15d
0x400080508e:  eb 62                    jmp      0x40008050f2

----------------
IN: 
0x40008050f2:  41 83 ff ff              cmpl     $0xff, %r15d
0x40008050f6:  75 98                    jne      0x4000805090

----------------
IN: 
0x4000805090:  48 8b 93 b8 03 00 00     movq     0x3b8(%rbx), %rdx
0x4000805097:  44 89 f8                 movl     %r15d, %eax
0x400080509a:  4c 8b 34 c2              movq     (%rdx, %rax, 8), %r14
0x400080509e:  49 8b 46 38              movq     0x38(%r14), %rax
0x40008050a2:  48 8b 40 08              movq     8(%rax), %rax
0x40008050a6:  48 85 c0                 testq    %rax, %rax
0x40008050a9:  0f 85 87 00 00 00        jne      0x4000805136

----------------
IN: 
0x4000805136:  c7 40 10 01 00 00 00     movl     $1, 0x10(%rax)
0x400080513d:  48 8b 40 08              movq     8(%rax), %rax
0x4000805141:  48 85 c0                 testq    %rax, %rax
0x4000805144:  0f 84 65 ff ff ff        je       0x40008050af

----------------
IN: 
0x40008050af:  41 80 a6 16 03 00 00 fe  andb     $0xfe, 0x316(%r14)
0x40008050b7:  4d 39 ee                 cmpq     %r13, %r14
0x40008050ba:  74 1f                    je       0x40008050db

----------------
IN: 
0x40008050db:  49 83 be 28 04 00 00 00  cmpq     $0, 0x428(%r14)
0x40008050e3:  74 09                    je       0x40008050ee

----------------
IN: 
0x40008050ee:  41 83 ef 01              subl     $1, %r15d
0x40008050f2:  41 83 ff ff              cmpl     $0xff, %r15d
0x40008050f6:  75 98                    jne      0x4000805090

----------------
IN: 
0x40008050bc:  8b 0d 22 1c 22 00        movl     0x221c22(%rip), %ecx
0x40008050c2:  49 8b b6 80 03 00 00     movq     0x380(%r14), %rsi
0x40008050c9:  31 d2                    xorl     %edx, %edx
0x40008050cb:  4c 89 f7                 movq     %r14, %rdi
0x40008050ce:  85 c9                    testl    %ecx, %ecx
0x40008050d0:  44 89 e1                 movl     %r12d, %ecx
0x40008050d3:  0f 95 c2                 setne    %dl
0x40008050d6:  e8 95 81 00 00           callq    0x400080d270

----------------
IN: 
0x400080d270:  55                       pushq    %rbp
0x400080d271:  49 89 fb                 movq     %rdi, %r11
0x400080d274:  48 89 e5                 movq     %rsp, %rbp
0x400080d277:  41 57                    pushq    %r15
0x400080d279:  41 56                    pushq    %r14
0x400080d27b:  41 55                    pushq    %r13
0x400080d27d:  41 54                    pushq    %r12
0x400080d27f:  41 89 d4                 movl     %edx, %r12d
0x400080d282:  53                       pushq    %rbx
0x400080d283:  48 81 ec f8 00 00 00     subq     $0xf8, %rsp
0x400080d28a:  81 e2 00 00 00 08        andl     $0x8000000, %edx
0x400080d290:  48 89 b5 40 ff ff ff     movq     %rsi, -0xc0(%rbp)
0x400080d297:  89 8d 4c ff ff ff        movl     %ecx, -0xb4(%rbp)
0x400080d29d:  75 17                    jne      0x400080d2b6

----------------
IN: 
0x400080d29f:  31 c0                    xorl     %eax, %eax
0x400080d2a1:  48 83 3d 5f 9b 21 00 00  cmpq     $0, 0x219b5f(%rip)
0x400080d2a9:  89 cf                    movl     %ecx, %edi
0x400080d2ab:  0f 95 c0                 setne    %al
0x400080d2ae:  09 c7                    orl      %eax, %edi
0x400080d2b0:  89 bd 4c ff ff ff        movl     %edi, -0xb4(%rbp)
0x400080d2b6:  41 f6 83 14 03 00 00 04  testb    $4, 0x314(%r11)
0x400080d2be:  0f 85 f1 02 00 00        jne      0x400080d5b5

----------------
IN: 
0x400080d2c4:  8b b5 4c ff ff ff        movl     -0xb4(%rbp), %esi
0x400080d2ca:  85 f6                    testl    %esi, %esi
0x400080d2cc:  0f 84 2e 05 00 00        je       0x400080d800

----------------
IN: 
0x400080d800:  49 83 bb 00 01 00 00 00  cmpq     $0, 0x100(%r11)
0x400080d808:  0f 84 c4 fa ff ff        je       0x400080d2d2

----------------
IN: 
0x400080d2d2:  45 89 e5                 movl     %r12d, %r13d
0x400080d2d5:  41 83 e5 01              andl     $1, %r13d
0x400080d2d9:  f6 05 c0 99 21 00 20     testb    $0x20, 0x2199c0(%rip)
0x400080d2e0:  0f 85 ec 0c 00 00        jne      0x400080dfd2

----------------
IN: 
0x400080d2e6:  49 83 bb f0 00 00 00 00  cmpq     $0, 0xf0(%r11)
0x400080d2ee:  48 c7 85 08 ff ff ff 00  movq     $0, -0xf8(%rbp)
0x400080d2f6:  00 00 00
0x400080d2f9:  0f 85 ac 0b 00 00        jne      0x400080deab

----------------
IN: 
0x400080d2ff:  49 8b 43 68              movq     0x68(%r11), %rax
0x400080d303:  44 89 eb                 movl     %r13d, %ebx
0x400080d306:  83 e3 01                 andl     $1, %ebx
0x400080d309:  49 83 bb f8 00 00 00 00  cmpq     $0, 0xf8(%r11)
0x400080d311:  48 8b 40 08              movq     8(%rax), %rax
0x400080d315:  48 89 85 38 ff ff ff     movq     %rax, -0xc8(%rbp)
0x400080d31c:  74 56                    je       0x400080d374

----------------
IN: 
0x400080d31e:  84 db                    testb    %bl, %bl
0x400080d320:  74 52                    je       0x400080d374

----------------
IN: 
0x400080d322:  49 8b 43 58              movq     0x58(%r11), %rax
0x400080d326:  48 8b 50 08              movq     8(%rax), %rdx
0x400080d32a:  48 8b 42 08              movq     8(%rdx), %rax
0x400080d32e:  48 85 c0                 testq    %rax, %rax
0x400080d331:  0f 85 c9 09 00 00        jne      0x400080dd00

----------------
IN: 
0x400080d337:  8b 8d 4c ff ff ff        movl     -0xb4(%rbp), %ecx
0x400080d33d:  4c 89 5a 08              movq     %r11, 8(%rdx)
0x400080d341:  85 c9                    testl    %ecx, %ecx
0x400080d343:  0f 85 cd 12 00 00        jne      0x400080e616

----------------
IN: 
0x400080d349:  48 83 3d ff 99 21 00 00  cmpq     $0, 0x2199ff(%rip)
0x400080d351:  0f 84 c9 09 00 00        je       0x400080dd20

----------------
IN: 
0x400080dd20:  48 8d 05 69 b0 00 00     leaq     0xb069(%rip), %rax
0x400080dd27:  48 89 42 10              movq     %rax, 0x10(%rdx)
0x400080dd2b:  49 8b 83 88 02 00 00     movq     0x288(%r11), %rax
0x400080dd32:  48 85 c0                 testq    %rax, %rax
0x400080dd35:  0f 85 45 f6 ff ff        jne      0x400080d380

----------------
IN: 
0x400080dd3b:  e9 56 f6 ff ff           jmp      0x400080d396

----------------
IN: 
0x400080d396:  48 8d 55 90              leaq     -0x70(%rbp), %rdx
0x400080d39a:  31 c0                    xorl     %eax, %eax
0x400080d39c:  b9 08 00 00 00           movl     $8, %ecx
0x400080d3a1:  48 89 d7                 movq     %rdx, %rdi
0x400080d3a4:  f3 48 ab                 rep stosq %rax, (%rdi)

----------------
IN: 
0x400080d3a4:  f3 48 ab                 rep stosq %rax, (%rdi)

----------------
IN: 
0x400080d3a7:  49 8b 43 78              movq     0x78(%r11), %rax
0x400080d3ab:  48 85 c0                 testq    %rax, %rax
0x400080d3ae:  0f 84 3c 0a 00 00        je       0x400080ddf0

----------------
IN: 
0x400080d3b4:  48 8b 48 08              movq     8(%rax), %rcx
0x400080d3b8:  49 8b 83 80 00 00 00     movq     0x80(%r11), %rax
0x400080d3bf:  49 8b b3 80 01 00 00     movq     0x180(%r11), %rsi
0x400080d3c6:  48 8b 40 08              movq     8(%rax), %rax
0x400080d3ca:  48 89 4d 90              movq     %rcx, -0x70(%rbp)
0x400080d3ce:  48 85 f6                 testq    %rsi, %rsi
0x400080d3d1:  48 89 45 98              movq     %rax, -0x68(%rbp)
0x400080d3d5:  74 08                    je       0x400080d3df

----------------
IN: 
0x400080d3d7:  48 8b 76 08              movq     8(%rsi), %rsi
0x400080d3db:  48 89 75 a0              movq     %rsi, -0x60(%rbp)
0x400080d3df:  4c 8d 04 01              leaq     (%rcx, %rax), %r8
0x400080d3e3:  49 83 bb e0 00 00 00 00  cmpq     $0, 0xe0(%r11)
0x400080d3eb:  74 3a                    je       0x400080d427

----------------
IN: 
0x400080d3ed:  49 8b b3 f8 00 00 00     movq     0xf8(%r11), %rsi
0x400080d3f4:  49 8b 7b 50              movq     0x50(%r11), %rdi
0x400080d3f8:  48 8b 76 08              movq     8(%rsi), %rsi
0x400080d3fc:  48 8b 7f 08              movq     8(%rdi), %rdi
0x400080d400:  4c 8d 0c 3e              leaq     (%rsi, %rdi), %r9
0x400080d404:  4d 39 c1                 cmpq     %r8, %r9
0x400080d407:  0f 84 f3 06 00 00        je       0x400080db00

----------------
IN: 
0x400080d40d:  45 85 ed                 testl    %r13d, %r13d
0x400080d410:  75 09                    jne      0x400080d41b

----------------
IN: 
0x400080d41b:  48 89 75 b0              movq     %rsi, -0x50(%rbp)
0x400080d41f:  48 89 7d b8              movq     %rdi, -0x48(%rbp)
0x400080d423:  44 89 6d c8              movl     %r13d, -0x38(%rbp)
0x400080d427:  48 8d 45 d0              leaq     -0x30(%rbp), %rax
0x400080d42b:  41 81 e4 00 00 00 02     andl     $0x2000000, %r12d
0x400080d432:  48 89 95 50 ff ff ff     movq     %rdx, -0xb0(%rbp)
0x400080d439:  44 89 a5 48 ff ff ff     movl     %r12d, -0xb8(%rbp)
0x400080d440:  48 89 d7                 movq     %rdx, %rdi
0x400080d443:  4d 89 dc                 movq     %r11, %r12
0x400080d446:  48 89 85 00 ff ff ff     movq     %rax, -0x100(%rbp)
0x400080d44d:  48 8d 45 80              leaq     -0x80(%rbp), %rax
0x400080d451:  48 89 85 18 ff ff ff     movq     %rax, -0xe8(%rbp)
0x400080d458:  48 8d 45 88              leaq     -0x78(%rbp), %rax
0x400080d45c:  48 89 85 f8 fe ff ff     movq     %rax, -0x108(%rbp)
0x400080d463:  48 8d 85 78 ff ff ff     leaq     -0x88(%rbp), %rax
0x400080d46a:  48 89 85 f0 fe ff ff     movq     %rax, -0x110(%rbp)
0x400080d471:  48 8d 85 70 ff ff ff     leaq     -0x90(%rbp), %rax
0x400080d478:  48 89 85 e8 fe ff ff     movq     %rax, -0x118(%rbp)
0x400080d47f:  48 8b 07                 movq     (%rdi), %rax
0x400080d482:  8b 57 18                 movl     0x18(%rdi), %edx
0x400080d485:  4d 8b 2c 24              movq     (%r12), %r13
0x400080d489:  48 89 c6                 movq     %rax, %rsi
0x400080d48c:  48 03 77 08              addq     8(%rdi), %rsi
0x400080d490:  85 d2                    testl    %edx, %edx
0x400080d492:  48 89 b5 68 ff ff ff     movq     %rsi, -0x98(%rbp)
0x400080d499:  0f 84 29 01 00 00        je       0x400080d5c8

----------------
IN: 
0x400080d5c8:  49 8b 54 24 70           movq     0x70(%r12), %rdx
0x400080d5cd:  48 8b 72 08              movq     8(%rdx), %rsi
0x400080d5d1:  48 8b 57 10              movq     0x10(%rdi), %rdx
0x400080d5d5:  48 8d 14 52              leaq     (%rdx, %rdx, 2), %rdx
0x400080d5d9:  48 89 b5 60 ff ff ff     movq     %rsi, -0xa0(%rbp)
0x400080d5e0:  48 8d 1c d0              leaq     (%rax, %rdx, 8), %rbx
0x400080d5e4:  48 8d 15 ed a3 21 00     leaq     0x21a3ed(%rip), %rdx
0x400080d5eb:  49 39 d4                 cmpq     %rdx, %r12
0x400080d5ee:  74 3c                    je       0x400080d62c

----------------
IN: 
0x400080d5f0:  4d 85 ed                 testq    %r13, %r13
0x400080d5f3:  0f 84 ef 04 00 00        je       0x400080dae8

----------------
IN: 
0x400080d5f9:  48 39 d8                 cmpq     %rbx, %rax
0x400080d5fc:  73 2e                    jae      0x400080d62c

----------------
IN: 
0x400080d5fe:  66 90                    nop      
0x400080d600:  8b 50 08                 movl     8(%rax), %edx
0x400080d603:  4c 89 e9                 movq     %r13, %rcx
0x400080d606:  48 03 08                 addq     (%rax), %rcx
0x400080d609:  48 83 fa 26              cmpq     $0x26, %rdx
0x400080d60d:  74 0a                    je       0x400080d619

----------------
IN: 
0x400080d60f:  48 83 fa 08              cmpq     $8, %rdx
0x400080d613:  0f 85 ab 14 00 00        jne      0x400080eac4

----------------
IN: 
0x400080d619:  4c 89 ea                 movq     %r13, %rdx
0x400080d61c:  48 03 50 10              addq     0x10(%rax), %rdx
0x400080d620:  48 83 c0 18              addq     $0x18, %rax
0x400080d624:  48 39 c3                 cmpq     %rax, %rbx
0x400080d627:  48 89 11                 movq     %rdx, (%rcx)
0x400080d62a:  77 d4                    ja       0x400080d600

----------------
IN: 
0x400080d600:  8b 50 08                 movl     8(%rax), %edx
0x400080d603:  4c 89 e9                 movq     %r13, %rcx
0x400080d606:  48 03 08                 addq     (%rax), %rcx
0x400080d609:  48 83 fa 26              cmpq     $0x26, %rdx
0x400080d60d:  74 0a                    je       0x400080d619

----------------
IN: 
0x400080d62c:  49 8b 84 24 c8 01 00 00  movq     0x1c8(%r12), %rax
0x400080d634:  48 85 c0                 testq    %rax, %rax
0x400080d637:  0f 84 b7 09 00 00        je       0x400080dff4

----------------
IN: 
0x400080d63d:  48 39 9d 68 ff ff ff     cmpq     %rbx, -0x98(%rbp)
0x400080d644:  48 8b 40 08              movq     8(%rax), %rax
0x400080d648:  48 89 85 58 ff ff ff     movq     %rax, -0xa8(%rbp)
0x400080d64f:  0f 86 0b ff ff ff        jbe      0x400080d560

----------------
IN: 
0x400080d655:  45 31 db                 xorl     %r11d, %r11d
0x400080d658:  48 c7 85 10 ff ff ff 00  movq     $0, -0xf0(%rbp)
0x400080d660:  00 00 00
0x400080d663:  4c 89 9d 20 ff ff ff     movq     %r11, -0xe0(%rbp)
0x400080d66a:  4d 89 eb                 movq     %r13, %r11
0x400080d66d:  0f 1f 00                 nopl     (%rax)
0x400080d670:  4c 8b 6b 08              movq     8(%rbx), %r13
0x400080d674:  45 89 ee                 movl     %r13d, %r14d
0x400080d677:  49 83 fe 25              cmpq     $0x25, %r14
0x400080d67b:  0f 84 df 03 00 00        je       0x400080da60

----------------
IN: 
0x400080d681:  48 8b bd 58 ff ff ff     movq     -0xa8(%rbp), %rdi
0x400080d688:  4c 89 e8                 movq     %r13, %rax
0x400080d68b:  4d 89 da                 movq     %r11, %r10
0x400080d68e:  48 c1 e8 20              shrq     $0x20, %rax
0x400080d692:  4c 03 13                 addq     (%rbx), %r10
0x400080d695:  49 83 fe 08              cmpq     $8, %r14
0x400080d699:  49 8b b4 24 e0 02 00 00  movq     0x2e0(%r12), %rsi
0x400080d6a1:  0f b7 14 47              movzwl   (%rdi, %rax, 2), %edx
0x400080d6a5:  48 8b bd 60 ff ff ff     movq     -0xa0(%rbp), %rdi
0x400080d6ac:  48 8d 04 40              leaq     (%rax, %rax, 2), %rax
0x400080d6b0:  4c 8d 3c c7              leaq     (%rdi, %rax, 8), %r15
0x400080d6b4:  4c 89 7d 80              movq     %r15, -0x80(%rbp)
0x400080d6b8:  0f 84 d2 03 00 00        je       0x400080da90

----------------
IN: 
0x400080d6be:  49 83 fe 26              cmpq     $0x26, %r14
0x400080d6c2:  0f 84 c8 03 00 00        je       0x400080da90

----------------
IN: 
0x400080d6c8:  4d 85 f6                 testq    %r14, %r14
0x400080d6cb:  0f 84 df 01 00 00        je       0x400080d8b0

----------------
IN: 
0x400080d6d1:  41 0f b6 47 04           movzbl   4(%r15), %eax
0x400080d6d6:  c0 e8 04                 shrb     $4, %al
0x400080d6d9:  84 c0                    testb    %al, %al
0x400080d6db:  0f 84 9f 03 00 00        je       0x400080da80

----------------
IN: 
0x400080d6e1:  4d 3b bc 24 f8 03 00 00  cmpq     0x3f8(%r12), %r15
0x400080d6e9:  0f 84 11 07 00 00        je       0x400080de00

----------------
IN: 
0x400080d6ef:  49 83 fe 07              cmpq     $7, %r14
0x400080d6f3:  0f 84 a7 03 00 00        je       0x400080daa0

----------------
IN: 
0x400080d6f9:  49 83 fe 10              cmpq     $0x10, %r14
0x400080d6fd:  0f 84 9d 03 00 00        je       0x400080daa0

----------------
IN: 
0x400080d703:  49 8d 46 ef              leaq     -0x11(%r14), %rax
0x400080d707:  48 83 f8 01              cmpq     $1, %rax
0x400080d70b:  41 0f 96 c1              setbe    %r9b
0x400080d70f:  49 83 fe 24              cmpq     $0x24, %r14
0x400080d713:  0f 94 c0                 sete     %al
0x400080d716:  41 09 c1                 orl      %eax, %r9d
0x400080d719:  49 83 fe 05              cmpq     $5, %r14
0x400080d71d:  41 0f b6 c1              movzbl   %r9b, %eax
0x400080d721:  0f 84 88 03 00 00        je       0x400080daaf

----------------
IN: 
0x400080d727:  45 31 c9                 xorl     %r9d, %r9d
0x400080d72a:  49 83 fe 06              cmpq     $6, %r14
0x400080d72e:  41 0f 94 c1              sete     %r9b
0x400080d732:  41 c1 e1 02              shll     $2, %r9d
0x400080d736:  81 e2 ff 7f 00 00        andl     $0x7fff, %edx
0x400080d73c:  41 09 c1                 orl      %eax, %r9d
0x400080d73f:  4d 89 bc 24 f8 03 00 00  movq     %r15, 0x3f8(%r12)
0x400080d747:  48 8d 14 52              leaq     (%rdx, %rdx, 2), %rdx
0x400080d74b:  45 89 8c 24 00 04 00 00  movl     %r9d, 0x400(%r12)
0x400080d753:  4c 8d 04 d6              leaq     (%rsi, %rdx, 8), %r8
0x400080d757:  4d 85 c0                 testq    %r8, %r8
0x400080d75a:  74 0f                    je       0x400080d76b

----------------
IN: 
0x400080d75c:  41 8b 40 08              movl     8(%r8), %eax
0x400080d760:  85 c0                    testl    %eax, %eax
0x400080d762:  b8 00 00 00 00           movl     $0, %eax
0x400080d767:  4c 0f 44 c0              cmoveq   %rax, %r8
0x400080d76b:  41 8b 3f                 movl     (%r15), %edi
0x400080d76e:  48 8b 8d 40 ff ff ff     movq     -0xc0(%rbp), %rcx
0x400080d775:  4c 89 e6                 movq     %r12, %rsi
0x400080d778:  48 03 bd 38 ff ff ff     addq     -0xc8(%rbp), %rdi
0x400080d77f:  48 8b 95 18 ff ff ff     movq     -0xe8(%rbp), %rdx
0x400080d786:  6a 00                    pushq    $0
0x400080d788:  6a 01                    pushq    $1
0x400080d78a:  4c 89 9d 28 ff ff ff     movq     %r11, -0xd8(%rbp)
0x400080d791:  4c 89 95 30 ff ff ff     movq     %r10, -0xd0(%rbp)
0x400080d798:  e8 33 e2 ff ff           callq    0x400080b9d0

----------------
IN: 
0x400080b9d0:  55                       pushq    %rbp
0x400080b9d1:  48 89 e5                 movq     %rsp, %rbp
0x400080b9d4:  41 57                    pushq    %r15
0x400080b9d6:  41 56                    pushq    %r14
0x400080b9d8:  41 55                    pushq    %r13
0x400080b9da:  41 54                    pushq    %r12
0x400080b9dc:  49 89 d7                 movq     %rdx, %r15
0x400080b9df:  53                       pushq    %rbx
0x400080b9e0:  49 89 f6                 movq     %rsi, %r14
0x400080b9e3:  4d 89 c4                 movq     %r8, %r12
0x400080b9e6:  48 81 ec c8 00 00 00     subq     $0xc8, %rsp
0x400080b9ed:  0f b6 17                 movzbl   (%rdi), %edx
0x400080b9f0:  48 89 bd 58 ff ff ff     movq     %rdi, -0xa8(%rbp)
0x400080b9f7:  48 89 8d 30 ff ff ff     movq     %rcx, -0xd0(%rbp)
0x400080b9fe:  44 89 8d 44 ff ff ff     movl     %r9d, -0xbc(%rbp)
0x400080ba05:  4c 8b 6d 18              movq     0x18(%rbp), %r13
0x400080ba09:  84 d2                    testb    %dl, %dl
0x400080ba0b:  0f 84 ef 02 00 00        je       0x400080bd00

----------------
IN: 
0x400080ba11:  48 89 f9                 movq     %rdi, %rcx
0x400080ba14:  b8 05 15 00 00           movl     $0x1505, %eax
0x400080ba19:  0f 1f 80 00 00 00 00     nopl     (%rax)
0x400080ba20:  48 89 c6                 movq     %rax, %rsi
0x400080ba23:  48 83 c1 01              addq     $1, %rcx
0x400080ba27:  48 c1 e6 05              shlq     $5, %rsi
0x400080ba2b:  48 01 f0                 addq     %rsi, %rax
0x400080ba2e:  48 01 d0                 addq     %rdx, %rax
0x400080ba31:  0f b6 11                 movzbl   (%rcx), %edx
0x400080ba34:  84 d2                    testb    %dl, %dl
0x400080ba36:  75 e8                    jne      0x400080ba20

----------------
IN: 
0x400080ba20:  48 89 c6                 movq     %rax, %rsi
0x400080ba23:  48 83 c1 01              addq     $1, %rcx
0x400080ba27:  48 c1 e6 05              shlq     $5, %rsi
0x400080ba2b:  48 01 f0                 addq     %rsi, %rax
0x400080ba2e:  48 01 d0                 addq     %rdx, %rax
0x400080ba31:  0f b6 11                 movzbl   (%rcx), %edx
0x400080ba34:  84 d2                    testb    %dl, %dl
0x400080ba36:  75 e8                    jne      0x400080ba20

----------------
IN: 
0x400080ba38:  89 c0                    movl     %eax, %eax
0x400080ba3a:  48 89 85 50 ff ff ff     movq     %rax, -0xb0(%rbp)
0x400080ba41:  b8 ff ff ff ff           movl     $0xffffffff, %eax
0x400080ba46:  48 83 05 6a bf 21 00 01  addq     $1, 0x21bf6a(%rip)
0x400080ba4e:  4d 85 e4                 testq    %r12, %r12
0x400080ba51:  48 89 85 60 ff ff ff     movq     %rax, -0xa0(%rbp)
0x400080ba58:  48 c7 85 70 ff ff ff 00  movq     $0, -0x90(%rbp)
0x400080ba60:  00 00 00
0x400080ba63:  48 c7 85 78 ff ff ff 00  movq     $0, -0x88(%rbp)
0x400080ba6b:  00 00 00
0x400080ba6e:  74 0d                    je       0x400080ba7d

----------------
IN: 
0x400080ba70:  f7 45 10 fa ff ff ff     testl    $0xfffffffa, 0x10(%rbp)
0x400080ba77:  0f 85 c7 0e 00 00        jne      0x400080c944

----------------
IN: 
0x400080ba7d:  48 8b 85 30 ff ff ff     movq     -0xd0(%rbp), %rax
0x400080ba84:  4d 85 ed                 testq    %r13, %r13
0x400080ba87:  4c 8b 08                 movq     (%rax), %r9
0x400080ba8a:  0f 85 1e 02 00 00        jne      0x400080bcae

----------------
IN: 
0x400080ba90:  4d 85 c9                 testq    %r9, %r9
0x400080ba93:  48 c7 85 28 ff ff ff 00  movq     $0, -0xd8(%rbp)
0x400080ba9b:  00 00 00
0x400080ba9e:  0f 84 32 02 00 00        je       0x400080bcd6

----------------
IN: 
0x400080baa4:  48 8d 8d 70 ff ff ff     leaq     -0x90(%rbp), %rcx
0x400080baab:  48 8b 85 28 ff ff ff     movq     -0xd8(%rbp), %rax
0x400080bab2:  48 8b 9d 30 ff ff ff     movq     -0xd0(%rbp), %rbx
0x400080bab9:  48 89 8d 38 ff ff ff     movq     %rcx, -0xc8(%rbp)
0x400080bac0:  48 8d 8d 60 ff ff ff     leaq     -0xa0(%rbp), %rcx
0x400080bac7:  48 89 8d 48 ff ff ff     movq     %rcx, -0xb8(%rbp)
0x400080bace:  eb 19                    jmp      0x400080bae9

----------------
IN: 
0x400080bae9:  8b bd 44 ff ff ff        movl     -0xbc(%rbp), %edi
0x400080baef:  8b 75 10                 movl     0x10(%rbp), %esi
0x400080baf2:  41 56                    pushq    %r14
0x400080baf4:  4c 8b 85 38 ff ff ff     movq     -0xc8(%rbp), %r8
0x400080bafb:  49 8b 0f                 movq     (%r15), %rcx
0x400080bafe:  48 8b 95 48 ff ff ff     movq     -0xb8(%rbp), %rdx
0x400080bb05:  57                       pushq    %rdi
0x400080bb06:  48 8b bd 58 ff ff ff     movq     -0xa8(%rbp), %rdi
0x400080bb0d:  41 55                    pushq    %r13
0x400080bb0f:  56                       pushq    %rsi
0x400080bb10:  48 8b b5 50 ff ff ff     movq     -0xb0(%rbp), %rsi
0x400080bb17:  41 54                    pushq    %r12
0x400080bb19:  50                       pushq    %rax
0x400080bb1a:  e8 51 f3 ff ff           callq    0x400080ae70

----------------
IN: 
0x400080ae70:  41 57                    pushq    %r15
0x400080ae72:  41 56                    pushq    %r14
0x400080ae74:  41 55                    pushq    %r13
0x400080ae76:  41 54                    pushq    %r12
0x400080ae78:  55                       pushq    %rbp
0x400080ae79:  53                       pushq    %rbx
0x400080ae7a:  48 81 ec 98 00 00 00     subq     $0x98, %rsp
0x400080ae81:  45 8b 61 08              movl     8(%r9), %r12d
0x400080ae85:  48 89 7c 24 08           movq     %rdi, 8(%rsp)
0x400080ae8a:  48 89 54 24 58           movq     %rdx, 0x58(%rsp)
0x400080ae8f:  48 89 4c 24 10           movq     %rcx, 0x10(%rsp)
0x400080ae94:  4c 89 44 24 38           movq     %r8, 0x38(%rsp)
0x400080ae99:  48 8b ac 24 d0 00 00 00  movq     0xd0(%rsp), %rbp
0x400080aea1:  48 89 f0                 movq     %rsi, %rax
0x400080aea4:  44 8b bc 24 f0 00 00 00  movl     0xf0(%rsp), %r15d
0x400080aeac:  4d 8b 31                 movq     (%r9), %r14
0x400080aeaf:  48 c1 e8 06              shrq     $6, %rax
0x400080aeb3:  4c 8b ac 24 e8 00 00 00  movq     0xe8(%rsp), %r13
0x400080aebb:  48 89 74 24 20           movq     %rsi, 0x20(%rsp)
0x400080aec0:  48 89 44 24 28           movq     %rax, 0x28(%rsp)
0x400080aec5:  48 8d 84 24 84 00 00 00  leaq     0x84(%rsp), %rax
0x400080aecd:  41 83 e7 02              andl     $2, %r15d
0x400080aed1:  48 89 44 24 50           movq     %rax, 0x50(%rsp)
0x400080aed6:  48 8d 84 24 88 00 00 00  leaq     0x88(%rsp), %rax
0x400080aede:  48 89 44 24 18           movq     %rax, 0x18(%rsp)
0x400080aee3:  89 f0                    movl     %esi, %eax
0x400080aee5:  83 e0 3f                 andl     $0x3f, %eax
0x400080aee8:  89 44 24 30              movl     %eax, 0x30(%rsp)
0x400080aeec:  0f 1f 40 00              nopl     (%rax)
0x400080aef0:  49 8b 04 ee              movq     (%r14, %rbp, 8), %rax
0x400080aef4:  48 8b 58 28              movq     0x28(%rax), %rbx
0x400080aef8:  4c 39 eb                 cmpq     %r13, %rbx
0x400080aefb:  0f 84 ef 00 00 00        je       0x400080aff0

----------------
IN: 
0x400080af01:  45 85 ff                 testl    %r15d, %r15d
0x400080af04:  74 0d                    je       0x400080af13

----------------
IN: 
0x400080af13:  f6 83 15 03 00 00 20     testb    $0x20, 0x315(%rbx)
0x400080af1a:  0f 85 d0 00 00 00        jne      0x400080aff0

----------------
IN: 
0x400080af20:  f6 05 79 bd 21 00 08     testb    $8, 0x21bd79(%rip)
0x400080af27:  0f 85 eb 00 00 00        jne      0x400080b018

----------------
IN: 
0x400080af2d:  8b 93 ec 02 00 00        movl     0x2ec(%rbx), %edx
0x400080af33:  85 d2                    testl    %edx, %edx
0x400080af35:  0f 84 b5 00 00 00        je       0x400080aff0

----------------
IN: 
0x400080af3b:  48 8b 43 70              movq     0x70(%rbx), %rax
0x400080af3f:  c7 84 24 84 00 00 00 00  movl     $0, 0x84(%rsp)
0x400080af47:  00 00 00
0x400080af4a:  48 c7 84 24 88 00 00 00  movq     $0, 0x88(%rsp)
0x400080af52:  00 00 00 00
0x400080af56:  48 8b 40 08              movq     8(%rax), %rax
0x400080af5a:  48 89 44 24 48           movq     %rax, 0x48(%rsp)
0x400080af5f:  48 8b 43 68              movq     0x68(%rbx), %rax
0x400080af63:  48 8b 40 08              movq     8(%rax), %rax
0x400080af67:  48 89 44 24 40           movq     %rax, 0x40(%rsp)
0x400080af6c:  48 8b 83 f8 02 00 00     movq     0x2f8(%rbx), %rax
0x400080af73:  48 85 c0                 testq    %rax, %rax
0x400080af76:  0f 84 e4 00 00 00        je       0x400080b060

----------------
IN: 
0x400080af7c:  8b 4c 24 28              movl     0x28(%rsp), %ecx
0x400080af80:  23 8b f0 02 00 00        andl     0x2f0(%rbx), %ecx
0x400080af86:  48 8b 74 24 20           movq     0x20(%rsp), %rsi
0x400080af8b:  48 8b 04 c8              movq     (%rax, %rcx, 8), %rax
0x400080af8f:  8b 8b f4 02 00 00        movl     0x2f4(%rbx), %ecx
0x400080af95:  48 d3 ee                 shrq     %cl, %rsi
0x400080af98:  48 89 f1                 movq     %rsi, %rcx
0x400080af9b:  48 89 c6                 movq     %rax, %rsi
0x400080af9e:  48 d3 ee                 shrq     %cl, %rsi
0x400080afa1:  0f b6 4c 24 30           movzbl   0x30(%rsp), %ecx
0x400080afa6:  48 d3 e8                 shrq     %cl, %rax
0x400080afa9:  48 21 f0                 andq     %rsi, %rax
0x400080afac:  a8 01                    testb    $1, %al
0x400080afae:  0f 85 c4 05 00 00        jne      0x400080b578

----------------
IN: 
0x400080afb4:  b8 01 00 00 00           movl     $1, %eax
0x400080afb9:  48 83 bc 24 d8 00 00 00  cmpq     $0, 0xd8(%rsp)
0x400080afc1:  00
0x400080afc2:  74 2c                    je       0x400080aff0

----------------
IN: 
0x400080afc4:  84 c0                    testb    %al, %al
0x400080afc6:  74 28                    je       0x400080aff0

----------------
IN: 
0x400080afc8:  48 8b 84 24 d8 00 00 00  movq     0xd8(%rsp), %rax
0x400080afd0:  48 8b 78 10              movq     0x10(%rax), %rdi
0x400080afd4:  48 85 ff                 testq    %rdi, %rdi
0x400080afd7:  74 17                    je       0x400080aff0

----------------
IN: 
0x400080aff0:  48 83 c5 01              addq     $1, %rbp
0x400080aff4:  49 39 ec                 cmpq     %rbp, %r12
0x400080aff7:  0f 87 f3 fe ff ff        ja       0x400080aef0

----------------
IN: 
0x400080aef0:  49 8b 04 ee              movq     (%r14, %rbp, 8), %rax
0x400080aef4:  48 8b 58 28              movq     0x28(%rax), %rbx
0x400080aef8:  4c 39 eb                 cmpq     %r13, %rbx
0x400080aefb:  0f 84 ef 00 00 00        je       0x400080aff0

----------------
IN: 
0x400080b578:  48 8b 44 24 20           movq     0x20(%rsp), %rax
0x400080b57d:  89 d1                    movl     %edx, %ecx
0x400080b57f:  31 d2                    xorl     %edx, %edx
0x400080b581:  48 f7 f1                 divq     %rcx
0x400080b584:  48 8b 83 00 03 00 00     movq     0x300(%rbx), %rax
0x400080b58b:  8b 04 90                 movl     (%rax, %rdx, 4), %eax
0x400080b58e:  85 c0                    testl    %eax, %eax
0x400080b590:  0f 84 1e fa ff ff        je       0x400080afb4

----------------
IN: 
0x400080b596:  48 8b 93 08 03 00 00     movq     0x308(%rbx), %rdx
0x400080b59d:  4c 89 74 24 60           movq     %r14, 0x60(%rsp)
0x400080b5a2:  44 89 7c 24 68           movl     %r15d, 0x68(%rsp)
0x400080b5a7:  48 89 ac 24 d0 00 00 00  movq     %rbp, 0xd0(%rsp)
0x400080b5af:  48 89 dd                 movq     %rbx, %rbp
0x400080b5b2:  4c 89 ac 24 e8 00 00 00  movq     %r13, 0xe8(%rsp)
0x400080b5ba:  4c 89 64 24 70           movq     %r12, 0x70(%rsp)
0x400080b5bf:  4c 8d 1c 82              leaq     (%rdx, %rax, 4), %r11
0x400080b5c3:  4c 8b 7c 24 20           movq     0x20(%rsp), %r15
0x400080b5c8:  4c 8b 6c 24 40           movq     0x40(%rsp), %r13
0x400080b5cd:  4c 8b 64 24 48           movq     0x48(%rsp), %r12
0x400080b5d2:  4d 89 de                 movq     %r11, %r14
0x400080b5d5:  eb 16                    jmp      0x400080b5ed

----------------
IN: 
0x400080b5ed:  41 8b 06                 movl     (%r14), %eax
0x400080b5f0:  48 89 c2                 movq     %rax, %rdx
0x400080b5f3:  4c 31 f8                 xorq     %r15, %rax
0x400080b5f6:  48 d1 e8                 shrq     $1, %rax
0x400080b5f9:  75 e5                    jne      0x400080b5e0

----------------
IN: 
0x400080b5e0:  49 83 c6 04              addq     $4, %r14
0x400080b5e4:  83 e2 01                 andl     $1, %edx
0x400080b5e7:  0f 85 0a 02 00 00        jne      0x400080b7f7

----------------
IN: 
0x400080b5fb:  4c 89 f0                 movq     %r14, %rax
0x400080b5fe:  48 2b 85 08 03 00 00     subq     0x308(%rbp), %rax
0x400080b605:  48 83 ec 08              subq     $8, %rsp
0x400080b609:  ff 74 24 58              pushq    0x58(%rsp)
0x400080b60d:  ff 74 24 28              pushq    0x28(%rsp)
0x400080b611:  55                       pushq    %rbp
0x400080b612:  41 55                    pushq    %r13
0x400080b614:  48 c1 f8 02              sarq     $2, %rax
0x400080b618:  89 c2                    movl     %eax, %edx
0x400080b61a:  50                       pushq    %rax
0x400080b61b:  44 8b 84 24 20 01 00 00  movl     0x120(%rsp), %r8d
0x400080b623:  48 8d 14 52              leaq     (%rdx, %rdx, 2), %rdx
0x400080b627:  8b 8c 24 10 01 00 00     movl     0x110(%rsp), %ecx
0x400080b62e:  48 8b 74 24 40           movq     0x40(%rsp), %rsi
0x400080b633:  48 8b 7c 24 38           movq     0x38(%rsp), %rdi
0x400080b638:  89 c3                    movl     %eax, %ebx
0x400080b63a:  4d 8d 0c d4              leaq     (%r12, %rdx, 8), %r9
0x400080b63e:  48 8b 94 24 08 01 00 00  movq     0x108(%rsp), %rdx
0x400080b646:  e8 85 f6 ff ff           callq    0x400080acd0

----------------
IN: 
0x400080acd0:  41 55                    pushq    %r13
0x400080acd2:  41 54                    pushq    %r12
0x400080acd4:  55                       pushq    %rbp
0x400080acd5:  53                       pushq    %rbx
0x400080acd6:  48 83 ec 08              subq     $8, %rsp
0x400080acda:  41 0f b6 41 04           movzbl   4(%r9), %eax
0x400080acdf:  4c 8b 64 24 40           movq     0x40(%rsp), %r12
0x400080ace4:  83 e0 0f                 andl     $0xf, %eax
0x400080ace7:  49 83 79 08 00           cmpq     $0, 8(%r9)
0x400080acec:  75 08                    jne      0x400080acf6

----------------
IN: 
0x400080acf6:  45 31 d2                 xorl     %r10d, %r10d
0x400080acf9:  66 41 83 79 06 00        cmpw     $0, 6(%r9)
0x400080acff:  41 0f 94 c2              sete     %r10b
0x400080ad03:  45 85 c2                 testl    %r10d, %r8d
0x400080ad06:  0f 85 eb 00 00 00        jne      0x400080adf7

----------------
IN: 
0x400080ad0c:  41 b8 67 04 00 00        movl     $0x467, %r8d
0x400080ad12:  41 0f a3 c0              btl      %eax, %r8d
0x400080ad16:  0f 83 db 00 00 00        jae      0x400080adf7

----------------
IN: 
0x400080ad1c:  48 89 f0                 movq     %rsi, %rax
0x400080ad1f:  4c 89 cb                 movq     %r9, %rbx
0x400080ad22:  41 89 cd                 movl     %ecx, %r13d
0x400080ad25:  49 39 c1                 cmpq     %rax, %r9
0x400080ad28:  48 89 d5                 movq     %rdx, %rbp
0x400080ad2b:  48 89 fe                 movq     %rdi, %rsi
0x400080ad2e:  74 18                    je       0x400080ad48

----------------
IN: 
0x400080ad48:  48 85 ed                 testq    %rbp, %rbp
0x400080ad4b:  49 8b 84 24 30 03 00 00  movq     0x330(%r12), %rax
0x400080ad53:  74 5b                    je       0x400080adb0

----------------
IN: 
0x400080ad55:  48 85 c0                 testq    %rax, %rax
0x400080ad58:  0f 84 ca 00 00 00        je       0x400080ae28

----------------
IN: 
0x400080ad5e:  8b 54 24 30              movl     0x30(%rsp), %edx
0x400080ad62:  44 0f b7 2c 50           movzwl   (%rax, %rdx, 2), %r13d
0x400080ad67:  4c 89 e8                 movq     %r13, %rax
0x400080ad6a:  25 ff 7f 00 00           andl     $0x7fff, %eax
0x400080ad6f:  48 8d 14 40              leaq     (%rax, %rax, 2), %rdx
0x400080ad73:  49 8b 84 24 e0 02 00 00  movq     0x2e0(%r12), %rax
0x400080ad7b:  48 8d 04 d0              leaq     (%rax, %rdx, 8), %rax
0x400080ad7f:  44 8b 60 08              movl     8(%rax), %r12d
0x400080ad83:  44 3b 65 08              cmpl     8(%rbp), %r12d
0x400080ad87:  74 7f                    je       0x400080ae08

----------------
IN: 
0x400080ae08:  48 8b 75 00              movq     (%rbp), %rsi
0x400080ae0c:  48 8b 38                 movq     (%rax), %rdi
0x400080ae0f:  e8 6c 1c 01 00           callq    0x400081ca80

----------------
IN: 
0x400080ae14:  85 c0                    testl    %eax, %eax
0x400080ae16:  0f 85 6d ff ff ff        jne      0x400080ad89

----------------
IN: 
0x400080ae1c:  e9 7a ff ff ff           jmp      0x400080ad9b

----------------
IN: 
0x400080ad9b:  48 83 c4 08              addq     $8, %rsp
0x400080ad9f:  48 89 d8                 movq     %rbx, %rax
0x400080ada2:  5b                       popq     %rbx
0x400080ada3:  5d                       popq     %rbp
0x400080ada4:  41 5c                    popq     %r12
0x400080ada6:  41 5d                    popq     %r13
0x400080ada8:  c3                       retq     

----------------
IN: 
0x400080b64b:  48 83 c4 30              addq     $0x30, %rsp
0x400080b64f:  48 85 c0                 testq    %rax, %rax
0x400080b652:  0f 85 d7 02 00 00        jne      0x400080b92f

----------------
IN: 
0x400080b92f:  41 89 da                 movl     %ebx, %r10d
0x400080b932:  49 89 c0                 movq     %rax, %r8
0x400080b935:  48 89 eb                 movq     %rbp, %rbx
0x400080b938:  4c 8b 74 24 60           movq     0x60(%rsp), %r14
0x400080b93d:  44 8b 7c 24 68           movl     0x68(%rsp), %r15d
0x400080b942:  48 8b ac 24 d0 00 00 00  movq     0xd0(%rsp), %rbp
0x400080b94a:  4c 8b ac 24 e8 00 00 00  movq     0xe8(%rsp), %r13
0x400080b952:  4c 8b 64 24 70           movq     0x70(%rsp), %r12
0x400080b957:  e9 fc f7 ff ff           jmp      0x400080b158

----------------
IN: 
0x400080b158:  48 83 bc 24 f8 00 00 00  cmpq     $0, 0xf8(%rsp)
0x400080b160:  00
0x400080b161:  0f 84 e9 02 00 00        je       0x400080b450

----------------
IN: 
0x400080b167:  41 0f b6 40 04           movzbl   4(%r8), %eax
0x400080b16c:  c0 e8 04                 shrb     $4, %al
0x400080b16f:  3c 02                    cmpb     $2, %al
0x400080b171:  74 1d                    je       0x400080b190

----------------
IN: 
0x400080b173:  3c 0a                    cmpb     $0xa, %al
0x400080b175:  74 41                    je       0x400080b1b8

----------------
IN: 
0x400080b177:  3c 01                    cmpb     $1, %al
0x400080b179:  74 23                    je       0x400080b19e

----------------
IN: 
0x400080b19e:  48 8b 44 24 38           movq     0x38(%rsp), %rax
0x400080b1a3:  4c 89 00                 movq     %r8, (%rax)
0x400080b1a6:  48 89 58 08              movq     %rbx, 8(%rax)
0x400080b1aa:  b8 01 00 00 00           movl     $1, %eax
0x400080b1af:  e9 4b fe ff ff           jmp      0x400080afff

----------------
IN: 
0x400080afff:  48 81 c4 98 00 00 00     addq     $0x98, %rsp
0x400080b006:  5b                       popq     %rbx
0x400080b007:  5d                       popq     %rbp
0x400080b008:  41 5c                    popq     %r12
0x400080b00a:  41 5d                    popq     %r13
0x400080b00c:  41 5e                    popq     %r14
0x400080b00e:  41 5f                    popq     %r15
0x400080b010:  c3                       retq     

----------------
IN: 
0x400080bb1f:  48 83 c4 30              addq     $0x30, %rsp
0x400080bb23:  83 f8 00                 cmpl     $0, %eax
0x400080bb26:  7e a8                    jle      0x400080bad0

----------------
IN: 
0x400080bb28:  48 83 bd 70 ff ff ff 00  cmpq     $0, -0x90(%rbp)
0x400080bb30:  0f 84 a0 01 00 00        je       0x400080bcd6

----------------
IN: 
0x400080bb36:  49 8b 0f                 movq     (%r15), %rcx
0x400080bb39:  48 85 c9                 testq    %rcx, %rcx
0x400080bb3c:  74 0b                    je       0x400080bb49

----------------
IN: 
0x400080bb3e:  0f b6 41 05              movzbl   5(%rcx), %eax
0x400080bb42:  83 e0 03                 andl     $3, %eax
0x400080bb45:  3c 03                    cmpb     $3, %al
0x400080bb47:  74 5f                    je       0x400080bba8

----------------
IN: 
0x400080bb49:  4c 8b 8d 78 ff ff ff     movq     -0x88(%rbp), %r9
0x400080bb50:  31 db                    xorl     %ebx, %ebx
0x400080bb52:  41 0f b6 91 14 03 00 00  movzbl   0x314(%r9), %edx
0x400080bb5a:  4c 89 c8                 movq     %r9, %rax
0x400080bb5d:  83 e2 03                 andl     $3, %edx
0x400080bb60:  80 fa 02                 cmpb     $2, %dl
0x400080bb63:  0f 84 01 03 00 00        je       0x400080be6a

----------------
IN: 
0x400080bb69:  8b b8 cc 03 00 00        movl     0x3cc(%rax), %edi
0x400080bb6f:  85 ff                    testl    %edi, %edi
0x400080bb71:  0f 84 6d 03 00 00        je       0x400080bee4

----------------
IN: 
0x400080bb77:  8b 15 23 b1 21 00        movl     0x21b123(%rip), %edx
0x400080bb7d:  f7 c2 04 08 00 00        testl    $0x804, %edx
0x400080bb83:  0f 85 87 01 00 00        jne      0x400080bd10

----------------
IN: 
0x400080bb89:  48 8b 95 70 ff ff ff     movq     -0x90(%rbp), %rdx
0x400080bb90:  49 89 17                 movq     %rdx, (%r15)
0x400080bb93:  48 8d 65 d8              leaq     -0x28(%rbp), %rsp
0x400080bb97:  5b                       popq     %rbx
0x400080bb98:  41 5c                    popq     %r12
0x400080bb9a:  41 5d                    popq     %r13
0x400080bb9c:  41 5e                    popq     %r14
0x400080bb9e:  41 5f                    popq     %r15
0x400080bba0:  5d                       popq     %rbp
0x400080bba1:  c3                       retq     

----------------
IN: 
0x400080d79d:  48 8b 55 80              movq     -0x80(%rbp), %rdx
0x400080d7a1:  49 89 84 24 08 04 00 00  movq     %rax, 0x408(%r12)
0x400080d7a9:  48 89 c1                 movq     %rax, %rcx
0x400080d7ac:  4c 8b 9d 28 ff ff ff     movq     -0xd8(%rbp), %r11
0x400080d7b3:  4c 8b 95 30 ff ff ff     movq     -0xd0(%rbp), %r10
0x400080d7ba:  49 89 94 24 10 04 00 00  movq     %rdx, 0x410(%r12)
0x400080d7c2:  5e                       popq     %rsi
0x400080d7c3:  5f                       popq     %rdi
0x400080d7c4:  31 c0                    xorl     %eax, %eax
0x400080d7c6:  48 85 d2                 testq    %rdx, %rdx
0x400080d7c9:  74 18                    je       0x400080d7e3

----------------
IN: 
0x400080d7cb:  0f b6 72 04              movzbl   4(%rdx), %esi
0x400080d7cf:  48 8b 42 08              movq     8(%rdx), %rax
0x400080d7d3:  48 03 01                 addq     (%rcx), %rax
0x400080d7d6:  83 e6 0f                 andl     $0xf, %esi
0x400080d7d9:  40 80 fe 0a              cmpb     $0xa, %sil
0x400080d7dd:  0f 84 8d 05 00 00        je       0x400080dd70

----------------
IN: 
0x400080d7e3:  49 83 fe 25              cmpq     $0x25, %r14
0x400080d7e7:  0f 87 63 05 00 00        ja       0x400080dd50

----------------
IN: 
0x400080d7ed:  48 8d 3d 4c 25 01 00     leaq     0x1254c(%rip), %rdi
0x400080d7f4:  4a 63 14 b7              movslq   (%rdi, %r14, 4), %rdx
0x400080d7f8:  48 01 fa                 addq     %rdi, %rdx
0x400080d7fb:  ff e2                    jmpq     *%rdx

----------------
IN: 
0x400080d8a8:  48 03 43 10              addq     0x10(%rbx), %rax
0x400080d8ac:  49 89 02                 movq     %rax, (%r10)
0x400080d8af:  90                       nop      
0x400080d8b0:  48 83 c3 18              addq     $0x18, %rbx
0x400080d8b4:  48 39 9d 68 ff ff ff     cmpq     %rbx, -0x98(%rbp)
0x400080d8bb:  0f 87 af fd ff ff        ja       0x400080d670

----------------
IN: 
0x400080d670:  4c 8b 6b 08              movq     8(%rbx), %r13
0x400080d674:  45 89 ee                 movl     %r13d, %r14d
0x400080d677:  49 83 fe 25              cmpq     $0x25, %r14
0x400080d67b:  0f 84 df 03 00 00        je       0x400080da60

----------------
IN: 
0x400080da80:  4c 89 fa                 movq     %r15, %rdx
0x400080da83:  4c 89 e1                 movq     %r12, %rcx
0x400080da86:  e9 40 fd ff ff           jmp      0x400080d7cb

----------------
IN: 
0x400080db68:  48 8b 75 80              movq     -0x80(%rbp), %rsi
0x400080db6c:  48 85 f6                 testq    %rsi, %rsi
0x400080db6f:  0f 84 3b fd ff ff        je       0x400080d8b0

----------------
IN: 
0x400080db75:  48 8b 81 40 04 00 00     movq     0x440(%rcx), %rax
0x400080db7c:  48 8d 78 01              leaq     1(%rax), %rdi
0x400080db80:  48 89 c2                 movq     %rax, %rdx
0x400080db83:  48 83 ff 01              cmpq     $1, %rdi
0x400080db87:  0f 86 46 0c 00 00        jbe      0x400080e7d3

----------------
IN: 
0x400080db8d:  48 8b 43 10              movq     0x10(%rbx), %rax
0x400080db91:  48 03 46 08              addq     8(%rsi), %rax
0x400080db95:  48 29 d0                 subq     %rdx, %rax
0x400080db98:  49 89 02                 movq     %rax, (%r10)
0x400080db9b:  e9 10 fd ff ff           jmp      0x400080d8b0

----------------
IN: 
0x400080d8b0:  48 83 c3 18              addq     $0x18, %rbx
0x400080d8b4:  48 39 9d 68 ff ff ff     cmpq     %rbx, -0x98(%rbp)
0x400080d8bb:  0f 87 af fd ff ff        ja       0x400080d670

----------------
IN: 
0x400080b190:  8b 05 56 bb 21 00        movl     0x21bb56(%rip), %eax
0x400080b196:  85 c0                    testl    %eax, %eax
0x400080b198:  0f 85 2a 06 00 00        jne      0x400080b7c8

----------------
IN: 
0x400080afd9:  48 89 de                 movq     %rbx, %rsi
0x400080afdc:  e8 af 79 00 00           callq    0x4000812990

----------------
IN: 
0x400080afe1:  85 c0                    testl    %eax, %eax
0x400080afe3:  0f 85 04 08 00 00        jne      0x400080b7ed

----------------
IN: 
0x400080afe9:  0f 1f 80 00 00 00 00     nopl     (%rax)
0x400080aff0:  48 83 c5 01              addq     $1, %rbp
0x400080aff4:  49 39 ec                 cmpq     %rbp, %r12
0x400080aff7:  0f 87 f3 fe ff ff        ja       0x400080aef0

----------------
IN: 
0x400080b7f7:  48 89 eb                 movq     %rbp, %rbx
0x400080b7fa:  4c 8b 74 24 60           movq     0x60(%rsp), %r14
0x400080b7ff:  44 8b 7c 24 68           movl     0x68(%rsp), %r15d
0x400080b804:  48 8b ac 24 d0 00 00 00  movq     0xd0(%rsp), %rbp
0x400080b80c:  4c 8b ac 24 e8 00 00 00  movq     0xe8(%rsp), %r13
0x400080b814:  4c 8b 64 24 70           movq     0x70(%rsp), %r12
0x400080b819:  e9 6c fe ff ff           jmp      0x400080b68a

----------------
IN: 
0x400080b68a:  83 bc 24 84 00 00 00 01  cmpl     $1, 0x84(%rsp)
0x400080b692:  0f 85 1c f9 ff ff        jne      0x400080afb4

----------------
IN: 
0x400080ad30:  41 8b 01                 movl     (%r9), %eax
0x400080ad33:  48 03 44 24 38           addq     0x38(%rsp), %rax
0x400080ad38:  48 89 c7                 movq     %rax, %rdi
0x400080ad3b:  e8 40 1d 01 00           callq    0x400081ca80

----------------
IN: 
0x400080ad40:  85 c0                    testl    %eax, %eax
0x400080ad42:  0f 85 af 00 00 00        jne      0x400080adf7

----------------
IN: 
0x400080bee4:  c7 80 cc 03 00 00 01 00  movl     $1, 0x3cc(%rax)
0x400080beec:  00 00
0x400080beee:  e9 84 fc ff ff           jmp      0x400080bb77

----------------
IN: 
0x400081cb10:  66 0f 6f 0e              movdqa   (%rsi), %xmm1
0x400081cb14:  66 0f ef c0              pxor     %xmm0, %xmm0
0x400081cb18:  66 0f 74 c1              pcmpeqb  %xmm1, %xmm0
0x400081cb1c:  66 0f 74 0f              pcmpeqb  (%rdi), %xmm1
0x400081cb20:  66 0f f8 c8              psubb    %xmm0, %xmm1
0x400081cb24:  66 44 0f d7 c9           pmovmskb %xmm1, %r9d
0x400081cb29:  d3 ea                    shrl     %cl, %edx
0x400081cb2b:  41 d3 e9                 shrl     %cl, %r9d
0x400081cb2e:  44 29 ca                 subl     %r9d, %edx
0x400081cb31:  0f 85 3e 13 00 00        jne      0x400081de75

----------------
IN: 
0x400080affd:  31 c0                    xorl     %eax, %eax
0x400080afff:  48 81 c4 98 00 00 00     addq     $0x98, %rsp
0x400080b006:  5b                       popq     %rbx
0x400080b007:  5d                       popq     %rbp
0x400080b008:  41 5c                    popq     %r12
0x400080b00a:  41 5d                    popq     %r13
0x400080b00c:  41 5e                    popq     %r14
0x400080b00e:  41 5f                    popq     %r15
0x400080b010:  c3                       retq     

----------------
IN: 
0x400080bad0:  74 09                    je       0x400080badb

----------------
IN: 
0x400080badb:  48 83 c3 08              addq     $8, %rbx
0x400080badf:  4c 8b 0b                 movq     (%rbx), %r9
0x400080bae2:  31 c0                    xorl     %eax, %eax
0x400080bae4:  4d 85 c9                 testq    %r9, %r9
0x400080bae7:  74 3f                    je       0x400080bb28

----------------
IN: 
0x400080bcd6:  49 8b 07                 movq     (%r15), %rax
0x400080bcd9:  48 85 c0                 testq    %rax, %rax
0x400080bcdc:  74 0b                    je       0x400080bce9

----------------
IN: 
0x400080bcde:  0f b6 40 04              movzbl   4(%rax), %eax
0x400080bce2:  c0 e8 04                 shrb     $4, %al
0x400080bce5:  3c 02                    cmpb     $2, %al
0x400080bce7:  74 09                    je       0x400080bcf2

----------------
IN: 
0x400080bcf2:  49 c7 07 00 00 00 00     movq     $0, (%r15)
0x400080bcf9:  31 c0                    xorl     %eax, %eax
0x400080bcfb:  e9 93 fe ff ff           jmp      0x400080bb93

----------------
IN: 
0x400080bb93:  48 8d 65 d8              leaq     -0x28(%rbp), %rsp
0x400080bb97:  5b                       popq     %rbx
0x400080bb98:  41 5c                    popq     %r12
0x400080bb9a:  41 5d                    popq     %r13
0x400080bb9c:  41 5e                    popq     %r14
0x400080bb9e:  41 5f                    popq     %r15
0x400080bba0:  5d                       popq     %rbp
0x400080bba1:  c3                       retq     

----------------
IN: 
0x400080de00:  49 83 fe 24              cmpq     $0x24, %r14
0x400080de04:  76 34                    jbe      0x400080de3a

----------------
IN: 
0x400080de3a:  44 89 e9                 movl     %r13d, %ecx
0x400080de3d:  48 b8 80 00 07 00 10 00  movabsq  $0x1000070080, %rax
0x400080de45:  00 00
0x400080de47:  48 d3 e8                 shrq     %cl, %rax
0x400080de4a:  83 e0 01                 andl     $1, %eax
0x400080de4d:  48 83 f0 01              xorq     $1, %rax
0x400080de51:  89 c7                    movl     %eax, %edi
0x400080de53:  f7 d8                    negl     %eax
0x400080de55:  83 e7 01                 andl     $1, %edi
0x400080de58:  83 c0 03                 addl     $3, %eax
0x400080de5b:  89 f9                    movl     %edi, %ecx
0x400080de5d:  c1 e1 1f                 shll     $0x1f, %ecx
0x400080de60:  c1 f9 1f                 sarl     $0x1f, %ecx
0x400080de63:  83 c1 05                 addl     $5, %ecx
0x400080de66:  40 80 ff 01              cmpb     $1, %dil
0x400080de6a:  40 0f 92 c7              setb     %dil
0x400080de6e:  49 83 fe 05              cmpq     $5, %r14
0x400080de72:  40 0f b6 ff              movzbl   %dil, %edi
0x400080de76:  0f 85 46 08 00 00        jne      0x400080e6c2

----------------
IN: 
0x400080e6c2:  89 c8                    movl     %ecx, %eax
0x400080e6c4:  e9 44 f7 ff ff           jmp      0x400080de0d

----------------
IN: 
0x400080de0d:  49 83 fe 06              cmpq     $6, %r14
0x400080de11:  74 69                    je       0x400080de7c

----------------
IN: 
0x400080de13:  41 39 bc 24 00 04 00 00  cmpl     %edi, 0x400(%r12)
0x400080de1b:  74 6d                    je       0x400080de8a

----------------
IN: 
0x400080de8a:  49 8b 94 24 10 04 00 00  movq     0x410(%r12), %rdx
0x400080de92:  48 83 05 26 9b 21 00 01  addq     $1, 0x219b26(%rip)
0x400080de9a:  49 8b 8c 24 08 04 00 00  movq     0x408(%r12), %rcx
0x400080dea2:  48 89 55 80              movq     %rdx, -0x80(%rbp)
0x400080dea6:  e9 19 f9 ff ff           jmp      0x400080d7c4

----------------
IN: 
0x400080d7c4:  31 c0                    xorl     %eax, %eax
0x400080d7c6:  48 85 d2                 testq    %rdx, %rdx
0x400080d7c9:  74 18                    je       0x400080d7e3

----------------
IN: 
0x400080d8c1:  4d 89 dd                 movq     %r11, %r13
0x400080d8c4:  4c 8b 9d 20 ff ff ff     movq     -0xe0(%rbp), %r11
0x400080d8cb:  4d 85 db                 testq    %r11, %r11
0x400080d8ce:  0f 84 8c fc ff ff        je       0x400080d560

----------------
IN: 
0x400080d560:  48 83 85 50 ff ff ff 20  addq     $0x20, -0xb0(%rbp)
0x400080d568:  48 8b 85 50 ff ff ff     movq     -0xb0(%rbp), %rax
0x400080d56f:  48 3b 85 00 ff ff ff     cmpq     -0x100(%rbp), %rax
0x400080d576:  0f 85 64 08 00 00        jne      0x400080dde0

----------------
IN: 
0x400080dde0:  48 89 c7                 movq     %rax, %rdi
0x400080dde3:  e9 97 f6 ff ff           jmp      0x400080d47f

----------------
IN: 
0x400080d47f:  48 8b 07                 movq     (%rdi), %rax
0x400080d482:  8b 57 18                 movl     0x18(%rdi), %edx
0x400080d485:  4d 8b 2c 24              movq     (%r12), %r13
0x400080d489:  48 89 c6                 movq     %rax, %rsi
0x400080d48c:  48 03 77 08              addq     8(%rdi), %rsi
0x400080d490:  85 d2                    testl    %edx, %edx
0x400080d492:  48 89 b5 68 ff ff ff     movq     %rsi, -0x98(%rbp)
0x400080d499:  0f 84 29 01 00 00        je       0x400080d5c8

----------------
IN: 
0x400080d49f:  45 31 f6                 xorl     %r14d, %r14d
0x400080d4a2:  31 db                    xorl     %ebx, %ebx
0x400080d4a4:  48 39 f0                 cmpq     %rsi, %rax
0x400080d4a7:  48 89 f7                 movq     %rsi, %rdi
0x400080d4aa:  72 39                    jb       0x400080d4e5

----------------
IN: 
0x400080d4e5:  48 8b 70 08              movq     8(%rax), %rsi
0x400080d4e9:  89 f2                    movl     %esi, %edx
0x400080d4eb:  48 83 fa 25              cmpq     $0x25, %rdx
0x400080d4ef:  75 c7                    jne      0x400080d4b8

----------------
IN: 
0x400080d4b8:  4c 89 e9                 movq     %r13, %rcx
0x400080d4bb:  48 03 08                 addq     (%rax), %rcx
0x400080d4be:  48 83 fa 07              cmpq     $7, %rdx
0x400080d4c2:  0f 85 90 03 00 00        jne      0x400080d858

----------------
IN: 
0x400080d4c8:  49 8b 94 24 e0 03 00 00  movq     0x3e0(%r12), %rdx
0x400080d4d0:  48 85 d2                 testq    %rdx, %rdx
0x400080d4d3:  0f 85 a7 03 00 00        jne      0x400080d880

----------------
IN: 
0x400080d4d9:  4c 01 29                 addq     %r13, (%rcx)
0x400080d4dc:  48 83 c0 18              addq     $0x18, %rax
0x400080d4e0:  48 39 c7                 cmpq     %rax, %rdi
0x400080d4e3:  76 2b                    jbe      0x400080d510

----------------
IN: 
0x400080d4f1:  48 85 db                 testq    %rbx, %rbx
0x400080d4f4:  49 89 c6                 movq     %rax, %r14
0x400080d4f7:  75 e3                    jne      0x400080d4dc

----------------
IN: 
0x400080d4f9:  49 89 c6                 movq     %rax, %r14
0x400080d4fc:  48 89 c3                 movq     %rax, %rbx
0x400080d4ff:  48 83 c0 18              addq     $0x18, %rax
0x400080d503:  48 39 c7                 cmpq     %rax, %rdi
0x400080d506:  77 dd                    ja       0x400080d4e5

----------------
IN: 
0x400080d4dc:  48 83 c0 18              addq     $0x18, %rax
0x400080d4e0:  48 39 c7                 cmpq     %rax, %rdi
0x400080d4e3:  76 2b                    jbe      0x400080d510

----------------
IN: 
0x400080d510:  48 85 db                 testq    %rbx, %rbx
0x400080d513:  74 4b                    je       0x400080d560

----------------
IN: 
0x400080d515:  4c 39 f3                 cmpq     %r14, %rbx
0x400080d518:  77 46                    ja       0x400080d560

----------------
IN: 
0x400080d51a:  8b 85 48 ff ff ff        movl     -0xb8(%rbp), %eax
0x400080d520:  85 c0                    testl    %eax, %eax
0x400080d522:  74 15                    je       0x400080d539

----------------
IN: 
0x400080d539:  83 7b 08 25              cmpl     $0x25, 8(%rbx)
0x400080d53d:  75 f1                    jne      0x400080d530

----------------
IN: 
0x400080d53f:  4c 8b 3b                 movq     (%rbx), %r15
0x400080d542:  48 8b 43 10              movq     0x10(%rbx), %rax
0x400080d546:  48 83 c3 18              addq     $0x18, %rbx
0x400080d54a:  49 03 04 24              addq     (%r12), %rax
0x400080d54e:  ff d0                    callq    *%rax

----------------
IN: 
0x4000ae2a00:  48 8b 15 69 44 33 00     movq     0x334469(%rip), %rdx
0x4000ae2a07:  48 8d 05 72 af 0b 00     leaq     0xbaf72(%rip), %rax
0x4000ae2a0e:  f7 82 b8 00 00 00 40 00  testl    $0x40, 0xb8(%rdx)
0x4000ae2a16:  00 00
0x4000ae2a18:  75 39                    jne      0x4000ae2a53

----------------
IN: 
0x4000ae2a1a:  f7 82 b8 00 00 00 00 02  testl    $0x200, 0xb8(%rdx)
0x4000ae2a22:  00 00
0x4000ae2a24:  75 13                    jne      0x4000ae2a39

----------------
IN: 
0x4000ae2a26:  48 8d 05 43 70 0b 00     leaq     0xb7043(%rip), %rax
0x4000ae2a2d:  f7 82 80 00 00 00 00 00  testl    $0x100000, 0x80(%rdx)
0x4000ae2a35:  10 00
0x4000ae2a37:  75 1a                    jne      0x4000ae2a53

----------------
IN: 
0x4000ae2a39:  48 8d 05 30 15 0d 00     leaq     0xd1530(%rip), %rax
0x4000ae2a40:  f7 82 80 00 00 00 00 02  testl    $0x200, 0x80(%rdx)
0x4000ae2a48:  00 00
0x4000ae2a4a:  75 07                    jne      0x4000ae2a53

----------------
IN: 
0x4000ae2a4c:  48 8d 05 0d 00 00 00     leaq     0xd(%rip), %rax
0x4000ae2a53:  c3                       retq     

----------------
IN: 
0x400080d550:  4c 39 f3                 cmpq     %r14, %rbx
0x400080d553:  4b 89 44 3d 00           movq     %rax, (%r13, %r15)
0x400080d558:  76 df                    jbe      0x400080d539

----------------
IN: 
0x4000b0f380:  48 8d 05 81 02 0d 00     leaq     0xd0281(%rip), %rax
0x4000b0f387:  48 83 ec 28              subq     $0x28, %rsp
0x4000b0f38b:  48 8d 0d 7b 02 0d 00     leaq     0xd027b(%rip), %rcx
0x4000b0f392:  c7 44 24 0c 01 00 00 00  movl     $1, 0xc(%rsp)
0x4000b0f39a:  c7 44 24 08 f6 75 ae 03  movl     $0x3ae75f6, 8(%rsp)
0x4000b0f3a2:  ba 5f 00 00 00           movl     $0x5f, %edx
0x4000b0f3a7:  48 89 04 24              movq     %rax, (%rsp)
0x4000b0f3ab:  b8 a8 e3 50 00           movl     $0x50e3a8, %eax
0x4000b0f3b0:  48 c1 e0 04              shlq     $4, %rax
0x4000b0f3b4:  48 83 c1 01              addq     $1, %rcx
0x4000b0f3b8:  48 01 d0                 addq     %rdx, %rax
0x4000b0f3bb:  48 89 c2                 movq     %rax, %rdx
0x4000b0f3be:  81 e2 00 00 00 f0        andl     $0xf0000000, %edx
0x4000b0f3c4:  48 c1 ea 18              shrq     $0x18, %rdx
0x4000b0f3c8:  48 31 d0                 xorq     %rdx, %rax
0x4000b0f3cb:  0f b6 11                 movzbl   (%rcx), %edx
0x4000b0f3ce:  84 d2                    testb    %dl, %dl
0x4000b0f3d0:  75 de                    jne      0x4000b0f3b0

----------------
IN: 
0x4000b0f3b0:  48 c1 e0 04              shlq     $4, %rax
0x4000b0f3b4:  48 83 c1 01              addq     $1, %rcx
0x4000b0f3b8:  48 01 d0                 addq     %rdx, %rax
0x4000b0f3bb:  48 89 c2                 movq     %rax, %rdx
0x4000b0f3be:  81 e2 00 00 00 f0        andl     $0xf0000000, %edx
0x4000b0f3c4:  48 c1 ea 18              shrq     $0x18, %rdx
0x4000b0f3c8:  48 31 d0                 xorq     %rdx, %rax
0x4000b0f3cb:  0f b6 11                 movzbl   (%rcx), %edx
0x4000b0f3ce:  84 d2                    testb    %dl, %dl
0x4000b0f3d0:  75 de                    jne      0x4000b0f3b0

----------------
IN: 
0x4000b0f3d2:  25 ff ff ff 0f           andl     $0xfffffff, %eax
0x4000b0f3d7:  48 3d f6 75 ae 03        cmpq     $0x3ae75f6, %rax
0x4000b0f3dd:  75 2b                    jne      0x4000b0f40a

----------------
IN: 
0x4000b0f3df:  48 8d 3d 40 1d 0d 00     leaq     0xd1d40(%rip), %rdi
0x4000b0f3e6:  48 89 e6                 movq     %rsp, %rsi
0x4000b0f3e9:  48 c7 44 24 10 00 00 00  movq     $0, 0x10(%rsp)
0x4000b0f3f1:  00
0x4000b0f3f2:  e8 89 79 08 00           callq    0x4000b96d80

----------------
IN: 
0x4000b96d80:  4c 8b 15 e9 00 28 00     movq     0x2800e9(%rip), %r10
0x4000b96d87:  49 8b 82 08 01 00 00     movq     0x108(%r10), %rax
0x4000b96d8e:  48 85 c0                 testq    %rax, %rax
0x4000b96d91:  0f 84 81 00 00 00        je       0x4000b96e18

----------------
IN: 
0x4000b96e18:  31 c0                    xorl     %eax, %eax
0x4000b96e1a:  c3                       retq     

----------------
IN: 
0x4000b0f3f7:  48 8d 15 72 ff ff ff     leaq     -0x8e(%rip), %rdx
0x4000b0f3fe:  48 85 c0                 testq    %rax, %rax
0x4000b0f401:  48 0f 44 c2              cmoveq   %rdx, %rax
0x4000b0f405:  48 83 c4 28              addq     $0x28, %rsp
0x4000b0f409:  c3                       retq     

----------------
IN: 
0x4000ade280:  48 8b 15 e9 8b 33 00     movq     0x338be9(%rip), %rdx
0x4000ade287:  48 8d 05 22 00 00 00     leaq     0x22(%rip), %rax
0x4000ade28e:  f7 82 80 00 00 00 00 00  testl    $0x100000, 0x80(%rdx)
0x4000ade296:  10 00
0x4000ade298:  74 07                    je       0x4000ade2a1

----------------
IN: 
0x4000ade2a1:  c3                       retq     

----------------
IN: 
0x4000ae4cf0:  48 8b 15 79 21 33 00     movq     0x332179(%rip), %rdx
0x4000ae4cf7:  48 8d 05 f2 a2 0b 00     leaq     0xba2f2(%rip), %rax
0x4000ae4cfe:  f7 82 b8 00 00 00 40 00  testl    $0x40, 0xb8(%rdx)
0x4000ae4d06:  00 00
0x4000ae4d08:  75 39                    jne      0x4000ae4d43

----------------
IN: 
0x4000ae4d0a:  f7 82 b8 00 00 00 00 02  testl    $0x200, 0xb8(%rdx)
0x4000ae4d12:  00 00
0x4000ae4d14:  75 13                    jne      0x4000ae4d29

----------------
IN: 
0x4000ae4d16:  48 8d 05 03 69 0b 00     leaq     0xb6903(%rip), %rax
0x4000ae4d1d:  f7 82 80 00 00 00 00 00  testl    $0x100000, 0x80(%rdx)
0x4000ae4d25:  10 00
0x4000ae4d27:  75 1a                    jne      0x4000ae4d43

----------------
IN: 
0x4000ae4d29:  48 8d 05 90 13 0d 00     leaq     0xd1390(%rip), %rax
0x4000ae4d30:  f7 82 80 00 00 00 00 02  testl    $0x200, 0x80(%rdx)
0x4000ae4d38:  00 00
0x4000ae4d3a:  75 07                    jne      0x4000ae4d43

----------------
IN: 
0x4000ae4d3c:  48 8d 05 0d 00 00 00     leaq     0xd(%rip), %rax
0x4000ae4d43:  c3                       retq     

----------------
IN: 
0x4000ae06f0:  48 8b 15 79 67 33 00     movq     0x336779(%rip), %rdx
0x4000ae06f7:  48 8d 05 22 00 00 00     leaq     0x22(%rip), %rax
0x4000ae06fe:  f7 82 80 00 00 00 00 00  testl    $0x100000, 0x80(%rdx)
0x4000ae0706:  10 00
0x4000ae0708:  74 07                    je       0x4000ae0711

----------------
IN: 
0x4000ae0711:  c3                       retq     

----------------
IN: 
0x4000ae0a80:  48 8b 15 e9 63 33 00     movq     0x3363e9(%rip), %rdx
0x4000ae0a87:  48 8d 05 22 00 00 00     leaq     0x22(%rip), %rax
0x4000ae0a8e:  f7 82 80 00 00 00 00 00  testl    $0x100000, 0x80(%rdx)
0x4000ae0a96:  10 00
0x4000ae0a98:  74 07                    je       0x4000ae0aa1

----------------
IN: 
0x4000ae0aa1:  c3                       retq     

----------------
IN: 
0x4000b0f460:  48 8d 05 a1 01 0d 00     leaq     0xd01a1(%rip), %rax
0x4000b0f467:  48 83 ec 28              subq     $0x28, %rsp
0x4000b0f46b:  48 8d 0d 9b 01 0d 00     leaq     0xd019b(%rip), %rcx
0x4000b0f472:  c7 44 24 0c 01 00 00 00  movl     $1, 0xc(%rsp)
0x4000b0f47a:  c7 44 24 08 f6 75 ae 03  movl     $0x3ae75f6, 8(%rsp)
0x4000b0f482:  ba 5f 00 00 00           movl     $0x5f, %edx
0x4000b0f487:  48 89 04 24              movq     %rax, (%rsp)
0x4000b0f48b:  b8 a8 e3 50 00           movl     $0x50e3a8, %eax
0x4000b0f490:  48 c1 e0 04              shlq     $4, %rax
0x4000b0f494:  48 83 c1 01              addq     $1, %rcx
0x4000b0f498:  48 01 d0                 addq     %rdx, %rax
0x4000b0f49b:  48 89 c2                 movq     %rax, %rdx
0x4000b0f49e:  81 e2 00 00 00 f0        andl     $0xf0000000, %edx
0x4000b0f4a4:  48 c1 ea 18              shrq     $0x18, %rdx
0x4000b0f4a8:  48 31 d0                 xorq     %rdx, %rax
0x4000b0f4ab:  0f b6 11                 movzbl   (%rcx), %edx
0x4000b0f4ae:  84 d2                    testb    %dl, %dl
0x4000b0f4b0:  75 de                    jne      0x4000b0f490

----------------
IN: 
0x4000b0f490:  48 c1 e0 04              shlq     $4, %rax
0x4000b0f494:  48 83 c1 01              addq     $1, %rcx
0x4000b0f498:  48 01 d0                 addq     %rdx, %rax
0x4000b0f49b:  48 89 c2                 movq     %rax, %rdx
0x4000b0f49e:  81 e2 00 00 00 f0        andl     $0xf0000000, %edx
0x4000b0f4a4:  48 c1 ea 18              shrq     $0x18, %rdx
0x4000b0f4a8:  48 31 d0                 xorq     %rdx, %rax
0x4000b0f4ab:  0f b6 11                 movzbl   (%rcx), %edx
0x4000b0f4ae:  84 d2                    testb    %dl, %dl
0x4000b0f4b0:  75 de                    jne      0x4000b0f490

----------------
IN: 
0x4000b0f4b2:  25 ff ff ff 0f           andl     $0xfffffff, %eax
0x4000b0f4b7:  48 3d f6 75 ae 03        cmpq     $0x3ae75f6, %rax
0x4000b0f4bd:  75 2b                    jne      0x4000b0f4ea

----------------
IN: 
0x4000b0f4bf:  48 8d 3d 6c 1c 0d 00     leaq     0xd1c6c(%rip), %rdi
0x4000b0f4c6:  48 89 e6                 movq     %rsp, %rsi
0x4000b0f4c9:  48 c7 44 24 10 00 00 00  movq     $0, 0x10(%rsp)
0x4000b0f4d1:  00
0x4000b0f4d2:  e8 a9 78 08 00           callq    0x4000b96d80

----------------
IN: 
0x4000b0f4d7:  48 8d 15 52 ff ff ff     leaq     -0xae(%rip), %rdx
0x4000b0f4de:  48 85 c0                 testq    %rax, %rax
0x4000b0f4e1:  48 0f 44 c2              cmoveq   %rdx, %rax
0x4000b0f4e5:  48 83 c4 28              addq     $0x28, %rsp
0x4000b0f4e9:  c3                       retq     

----------------
IN: 
0x4000ae214b:  48 8b 0d 1e 4d 33 00     movq     0x334d1e(%rip), %rcx
0x4000ae2152:  48 8d 05 97 17 01 00     leaq     0x11797(%rip), %rax
0x4000ae2159:  8b 91 b8 00 00 00        movl     0xb8(%rcx), %edx
0x4000ae215f:  89 d6                    movl     %edx, %esi
0x4000ae2161:  81 e6 00 10 02 00        andl     $0x21000, %esi
0x4000ae2167:  81 fe 00 10 02 00        cmpl     $0x21000, %esi
0x4000ae216d:  74 31                    je       0x4000ae21a0

----------------
IN: 
0x4000ae216f:  f6 c6 08                 testb    $8, %dh
0x4000ae2172:  48 8d 05 37 e8 0b 00     leaq     0xbe837(%rip), %rax
0x4000ae2179:  75 25                    jne      0x4000ae21a0

----------------
IN: 
0x4000ae217b:  f6 81 81 00 00 00 02     testb    $2, 0x81(%rcx)
0x4000ae2182:  48 8d 05 67 fe ff ff     leaq     -0x199(%rip), %rax
0x4000ae2189:  74 15                    je       0x4000ae21a0

----------------
IN: 
0x4000ae21a0:  f3 c3                    retq     

----------------
IN: 
0x400080d55a:  66 0f 1f 44 00 00        nopw     (%rax, %rax)
0x400080d560:  48 83 85 50 ff ff ff 20  addq     $0x20, -0xb0(%rbp)
0x400080d568:  48 8b 85 50 ff ff ff     movq     -0xb0(%rbp), %rax
0x400080d56f:  48 3b 85 00 ff ff ff     cmpq     -0x100(%rbp), %rax
0x400080d576:  0f 85 64 08 00 00        jne      0x400080dde0

----------------
IN: 
0x400080d57c:  44 8b 85 4c ff ff ff     movl     -0xb4(%rbp), %r8d
0x400080d583:  4d 89 e3                 movq     %r12, %r11
0x400080d586:  45 85 c0                 testl    %r8d, %r8d
0x400080d589:  0f 85 81 0f 00 00        jne      0x400080e510

----------------
IN: 
0x400080d58f:  41 80 8b 14 03 00 00 04  orb      $4, 0x314(%r11)
0x400080d597:  48 83 bd 08 ff ff ff 00  cmpq     $0, -0xf8(%rbp)
0x400080d59f:  0f 85 03 10 00 00        jne      0x400080e5a8

----------------
IN: 
0x400080d5a5:  49 8b b3 60 04 00 00     movq     0x460(%r11), %rsi
0x400080d5ac:  48 85 f6                 testq    %rsi, %rsi
0x400080d5af:  0f 85 e3 06 00 00        jne      0x400080dc98

----------------
IN: 
0x400080dc98:  49 8b 8b 58 04 00 00     movq     0x458(%r11), %rcx
0x400080dc9f:  49 03 0b                 addq     (%r11), %rcx
0x400080dca2:  48 8b 05 0f 90 21 00     movq     0x21900f(%rip), %rax
0x400080dca9:  4c 89 9d 68 ff ff ff     movq     %r11, -0x98(%rbp)
0x400080dcb0:  48 f7 d8                 negq     %rax
0x400080dcb3:  48 01 ce                 addq     %rcx, %rsi
0x400080dcb6:  48 89 cf                 movq     %rcx, %rdi
0x400080dcb9:  48 21 c7                 andq     %rax, %rdi
0x400080dcbc:  48 21 f0                 andq     %rsi, %rax
0x400080dcbf:  48 39 c7                 cmpq     %rax, %rdi
0x400080dcc2:  0f 84 ed f8 ff ff        je       0x400080d5b5

----------------
IN: 
0x400080dcc8:  48 29 f8                 subq     %rdi, %rax
0x400080dccb:  ba 01 00 00 00           movl     $1, %edx
0x400080dcd0:  48 89 c6                 movq     %rax, %rsi
0x400080dcd3:  e8 b8 e7 00 00           callq    0x400081c490

----------------
IN: 
0x400080dcd8:  85 c0                    testl    %eax, %eax
0x400080dcda:  4c 8b 9d 68 ff ff ff     movq     -0x98(%rbp), %r11
0x400080dce1:  0f 89 ce f8 ff ff        jns      0x400080d5b5

----------------
IN: 
0x400080d5b5:  48 8d 65 d8              leaq     -0x28(%rbp), %rsp
0x400080d5b9:  5b                       popq     %rbx
0x400080d5ba:  41 5c                    popq     %r12
0x400080d5bc:  41 5d                    popq     %r13
0x400080d5be:  41 5e                    popq     %r14
0x400080d5c0:  41 5f                    popq     %r15
0x400080d5c2:  5d                       popq     %rbp
0x400080d5c3:  c3                       retq     

----------------
IN: 
0x40008050e5:  80 3d fc 2e 22 00 00     cmpb     $0, 0x222efc(%rip)
0x40008050ec:  75 3e                    jne      0x400080512c

----------------
IN: 
0x400080512c:  4c 89 f7                 movq     %r14, %rdi
0x400080512f:  e8 4c fc 00 00           callq    0x4000814d80

----------------
IN: 
0x4000814d80:  41 54                    pushq    %r12
0x4000814d82:  49 89 fc                 movq     %rdi, %r12
0x4000814d85:  55                       pushq    %rbp
0x4000814d86:  48 8b 2d e3 31 21 00     movq     0x2131e3(%rip), %rbp
0x4000814d8d:  53                       pushq    %rbx
0x4000814d8e:  48 8b 9f 48 04 00 00     movq     0x448(%rdi), %rbx
0x4000814d95:  eb 18                    jmp      0x4000814daf

----------------
IN: 
0x4000814daf:  48 8b 45 00              movq     (%rbp), %rax
0x4000814db3:  48 39 c3                 cmpq     %rax, %rbx
0x4000814db6:  73 e8                    jae      0x4000814da0

----------------
IN: 
0x4000814db8:  48 c1 e3 04              shlq     $4, %rbx
0x4000814dbc:  48 01 eb                 addq     %rbp, %rbx
0x4000814dbf:  4c 89 63 18              movq     %r12, 0x18(%rbx)
0x4000814dc3:  48 8b 05 d6 31 21 00     movq     0x2131d6(%rip), %rax
0x4000814dca:  48 83 c0 01              addq     $1, %rax
0x4000814dce:  48 89 43 10              movq     %rax, 0x10(%rbx)
0x4000814dd2:  5b                       popq     %rbx
0x4000814dd3:  5d                       popq     %rbp
0x4000814dd4:  41 5c                    popq     %r12
0x4000814dd6:  c3                       retq     

----------------
IN: 
0x4000805134:  eb b8                    jmp      0x40008050ee

----------------
IN: 
0x400080d3df:  4c 8d 04 01              leaq     (%rcx, %rax), %r8
0x400080d3e3:  49 83 bb e0 00 00 00 00  cmpq     $0, 0xe0(%r11)
0x400080d3eb:  74 3a                    je       0x400080d427

----------------
IN: 
0x400080dae8:  49 83 bc 24 38 02 00 00  cmpq     $0, 0x238(%r12)
0x400080daf0:  00
0x400080daf1:  0f 85 35 fb ff ff        jne      0x400080d62c

----------------
IN: 
0x400080daf7:  e9 fd fa ff ff           jmp      0x400080d5f9

----------------
IN: 
0x40008050f8:  0f 31                    rdtsc    
0x40008050fa:  48 c1 e2 20              shlq     $0x20, %rdx
0x40008050fe:  89 c0                    movl     %eax, %eax
0x4000805100:  45 31 e4                 xorl     %r12d, %r12d
0x4000805103:  48 09 d0                 orq      %rdx, %rax
0x4000805106:  48 2b 85 68 ff ff ff     subq     -0x98(%rbp), %rax
0x400080510d:  48 83 3d 9b 28 22 00 00  cmpq     $0, 0x22289b(%rip)
0x4000805115:  48 89 05 d4 2e 22 00     movq     %rax, 0x222ed4(%rip)
0x400080511c:  0f 84 30 fd ff ff        je       0x4000804e52

----------------
IN: 
0x4000804e52:  80 bd 38 ff ff ff 00     cmpb     $0, -0xc8(%rbp)
0x4000804e59:  0f 85 6e 03 00 00        jne      0x40008051cd

----------------
IN: 
0x4000804e5f:  48 83 3d 01 31 22 00 00  cmpq     $0, 0x223101(%rip)
0x4000804e67:  0f 84 60 03 00 00        je       0x40008051cd

----------------
IN: 
0x4000804e6d:  48 83 05 2b 31 22 00 01  addq     $1, 0x22312b(%rip)
0x4000804e75:  4c 8b b5 58 ff ff ff     movq     -0xa8(%rbp), %r14
0x4000804e7c:  4c 89 f7                 movq     %r14, %rdi
0x4000804e7f:  e8 9c f7 00 00           callq    0x4000814620

----------------
IN: 
0x4000814620:  48 85 ff                 testq    %rdi, %rdi
0x4000814623:  0f 84 61 02 00 00        je       0x400081488a

----------------
IN: 
0x4000814629:  41 57                    pushq    %r15
0x400081462b:  41 56                    pushq    %r14
0x400081462d:  41 55                    pushq    %r13
0x400081462f:  41 54                    pushq    %r12
0x4000814631:  55                       pushq    %rbp
0x4000814632:  53                       pushq    %rbx
0x4000814633:  48 83 ec 28              subq     $0x28, %rsp
0x4000814637:  48 8b 47 08              movq     8(%rdi), %rax
0x400081463b:  48 8b 35 26 39 21 00     movq     0x213926(%rip), %rsi
0x4000814642:  48 89 7c 24 10           movq     %rdi, 0x10(%rsp)
0x4000814647:  48 39 70 f0              cmpq     %rsi, -0x10(%rax)
0x400081464b:  48 89 44 24 08           movq     %rax, 8(%rsp)
0x4000814650:  0f 82 96 01 00 00        jb       0x40008147ec

----------------
IN: 
0x4000814656:  48 c7 44 24 18 00 00 00  movq     $0, 0x18(%rsp)
0x400081465e:  00
0x400081465f:  4c 8b 25 0a 39 21 00     movq     0x21390a(%rip), %r12
0x4000814666:  45 31 ff                 xorl     %r15d, %r15d
0x4000814669:  48 8b 44 24 18           movq     0x18(%rsp), %rax
0x400081466e:  66 90                    nop      
0x4000814670:  49 8b 14 24              movq     (%r12), %rdx
0x4000814674:  45 31 c9                 xorl     %r9d, %r9d
0x4000814677:  48 85 c0                 testq    %rax, %rax
0x400081467a:  41 0f 94 c1              sete     %r9b
0x400081467e:  49 39 d1                 cmpq     %rdx, %r9
0x4000814681:  0f 83 41 01 00 00        jae      0x40008147c8

----------------
IN: 
0x4000814687:  4e 8d 04 08              leaq     (%rax, %r9), %r8
0x400081468b:  49 39 f0                 cmpq     %rsi, %r8
0x400081468e:  0f 87 3c 01 00 00        ja       0x40008147d0

----------------
IN: 
0x4000814694:  4d 89 ce                 movq     %r9, %r14
0x4000814697:  4c 89 c9                 movq     %r9, %rcx
0x400081469a:  4d 89 c5                 movq     %r8, %r13
0x400081469d:  4a 8d 44 30 01           leaq     1(%rax, %r14), %rax
0x40008146a2:  48 c1 e1 04              shlq     $4, %rcx
0x40008146a6:  49 8d 2c 0c              leaq     (%r12, %rcx), %rbp
0x40008146aa:  4c 29 c0                 subq     %r8, %rax
0x40008146ad:  48 89 04 24              movq     %rax, (%rsp)
0x40008146b1:  eb 16                    jmp      0x40008146c9

----------------
IN: 
0x40008146c9:  48 8b 45 18              movq     0x18(%rbp), %rax
0x40008146cd:  48 85 c0                 testq    %rax, %rax
0x40008146d0:  0f 84 a2 00 00 00        je       0x4000814778

----------------
IN: 
0x40008146d6:  48 8b 55 10              movq     0x10(%rbp), %rdx
0x40008146da:  48 3b 15 bf 38 21 00     cmpq     0x2138bf(%rip), %rdx
0x40008146e1:  0f 87 27 01 00 00        ja       0x400081480e

----------------
IN: 
0x40008146e7:  48 8b b0 48 04 00 00     movq     0x448(%rax), %rsi
0x40008146ee:  49 39 d7                 cmpq     %rdx, %r15
0x40008146f1:  4c 0f 42 fa              cmovbq   %rdx, %r15
0x40008146f5:  48 89 f2                 movq     %rsi, %rdx
0x40008146f8:  48 c1 e2 04              shlq     $4, %rdx
0x40008146fc:  48 03 54 24 08           addq     8(%rsp), %rdx
0x4000814701:  48 c7 02 ff ff ff ff     movq     $-1, (%rdx)
0x4000814708:  c6 42 08 00              movb     $0, 8(%rdx)
0x400081470c:  48 8b b8 40 04 00 00     movq     0x440(%rax), %rdi
0x4000814713:  48 8d 57 01              leaq     1(%rdi), %rdx
0x4000814717:  48 83 fa 01              cmpq     $1, %rdx
0x400081471b:  76 50                    jbe      0x400081476d

----------------
IN: 
0x400081471d:  4c 39 ee                 cmpq     %r13, %rsi
0x4000814720:  0f 85 45 01 00 00        jne      0x400081486b

----------------
IN: 
0x4000814726:  48 8b 98 28 04 00 00     movq     0x428(%rax), %rbx
0x400081472d:  48 8b 90 20 04 00 00     movq     0x420(%rax), %rdx
0x4000814734:  48 39 d3                 cmpq     %rdx, %rbx
0x4000814737:  0f 82 f0 00 00 00        jb       0x400081482d

----------------
IN: 
0x400081473d:  48 39 df                 cmpq     %rbx, %rdi
0x4000814740:  0f 82 06 01 00 00        jb       0x400081484c

----------------
IN: 
0x4000814746:  48 8b b0 18 04 00 00     movq     0x418(%rax), %rsi
0x400081474d:  48 8b 44 24 10           movq     0x10(%rsp), %rax
0x4000814752:  48 29 d3                 subq     %rdx, %rbx
0x4000814755:  48 29 f8                 subq     %rdi, %rax
0x4000814758:  48 89 c7                 movq     %rax, %rdi
0x400081475b:  e8 10 a5 00 00           callq    0x400081ec70

----------------
IN: 
0x400081ecc8:  0f 1f 84 00 00 00 00 00  nopl     (%rax, %rax)
0x400081ecd0:  48 8b 0e                 movq     (%rsi), %rcx
0x400081ecd3:  4c 8b 46 08              movq     8(%rsi), %r8
0x400081ecd7:  48 89 0f                 movq     %rcx, (%rdi)
0x400081ecda:  4c 89 47 08              movq     %r8, 8(%rdi)
0x400081ecde:  83 ea 10                 subl     $0x10, %edx
0x400081ece1:  48 8d 76 10              leaq     0x10(%rsi), %rsi
0x400081ece5:  48 8d 7f 10              leaq     0x10(%rdi), %rdi
0x400081ece9:  75 e5                    jne      0x400081ecd0

----------------
IN: 
0x4000814760:  48 89 da                 movq     %rbx, %rdx
0x4000814763:  31 f6                    xorl     %esi, %esi
0x4000814765:  48 89 c7                 movq     %rax, %rdi
0x4000814768:  e8 13 a4 00 00           callq    0x400081eb80

----------------
IN: 
0x400081476d:  49 8b 14 24              movq     (%r12), %rdx
0x4000814771:  48 8b 35 f0 37 21 00     movq     0x2137f0(%rip), %rsi
0x4000814778:  49 83 c6 01              addq     $1, %r14
0x400081477c:  49 39 d6                 cmpq     %rdx, %r14
0x400081477f:  0f 82 33 ff ff ff        jb       0x40008146b8

----------------
IN: 
0x40008146b8:  4c 03 2c 24              addq     (%rsp), %r13
0x40008146bc:  48 83 c5 10              addq     $0x10, %rbp
0x40008146c0:  49 39 f5                 cmpq     %rsi, %r13
0x40008146c3:  0f 87 07 01 00 00        ja       0x40008147d0

----------------
IN: 
0x40008147d0:  48 8b 44 24 08           movq     8(%rsp), %rax
0x40008147d5:  4c 89 38                 movq     %r15, (%rax)
0x40008147d8:  48 8b 44 24 10           movq     0x10(%rsp), %rax
0x40008147dd:  48 83 c4 28              addq     $0x28, %rsp
0x40008147e1:  5b                       popq     %rbx
0x40008147e2:  5d                       popq     %rbp
0x40008147e3:  41 5c                    popq     %r12
0x40008147e5:  41 5d                    popq     %r13
0x40008147e7:  41 5e                    popq     %r14
0x40008147e9:  41 5f                    popq     %r15
0x40008147eb:  c3                       retq     

----------------
IN: 
0x4000804e84:  80 3d 5d 31 22 00 00     cmpb     $0, 0x22315d(%rip)
0x4000804e8b:  75 1e                    jne      0x4000804eab

----------------
IN: 
0x4000804eab:  48 8b 05 16 2b 22 00     movq     0x222b16(%rip), %rax
0x4000804eb2:  48 39 05 df 1e 22 00     cmpq     %rax, 0x221edf(%rip)
0x4000804eb9:  0f 85 ef 02 00 00        jne      0x40008051ae

----------------
IN: 
0x4000804ebf:  44 38 a5 60 ff ff ff     cmpb     %r12b, -0xa0(%rbp)
0x4000804ec6:  76 48                    jbe      0x4000804f10

----------------
IN: 
0x4000804ec8:  0f 31                    rdtsc    
0x4000804eca:  80 25 1b 2e 22 00 fb     andb     $0xfb, 0x222e1b(%rip)
0x4000804ed1:  89 c0                    movl     %eax, %eax
0x4000804ed3:  48 c1 e2 20              shlq     $0x20, %rdx
0x4000804ed7:  48 8b b3 80 03 00 00     movq     0x380(%rbx), %rsi
0x4000804ede:  48 09 c2                 orq      %rax, %rdx
0x4000804ee1:  48 8d 3d f0 2a 22 00     leaq     0x222af0(%rip), %rdi
0x4000804ee8:  49 89 d4                 movq     %rdx, %r12
0x4000804eeb:  31 c9                    xorl     %ecx, %ecx
0x4000804eed:  31 d2                    xorl     %edx, %edx
0x4000804eef:  e8 7c 83 00 00           callq    0x400080d270

----------------
IN: 
0x400080d374:  49 8b 83 88 02 00 00     movq     0x288(%r11), %rax
0x400080d37b:  48 85 c0                 testq    %rax, %rax
0x400080d37e:  74 16                    je       0x400080d396

----------------
IN: 
0x400080d412:  4c 39 c6                 cmpq     %r8, %rsi
0x400080d415:  0f 84 25 09 00 00        je       0x400080dd40

----------------
IN: 
0x400080dd40:  48 01 f8                 addq     %rdi, %rax
0x400080dd43:  48 89 45 98              movq     %rax, -0x68(%rbp)
0x400080dd47:  e9 db f6 ff ff           jmp      0x400080d427

----------------
IN: 
0x400080d427:  48 8d 45 d0              leaq     -0x30(%rbp), %rax
0x400080d42b:  41 81 e4 00 00 00 02     andl     $0x2000000, %r12d
0x400080d432:  48 89 95 50 ff ff ff     movq     %rdx, -0xb0(%rbp)
0x400080d439:  44 89 a5 48 ff ff ff     movl     %r12d, -0xb8(%rbp)
0x400080d440:  48 89 d7                 movq     %rdx, %rdi
0x400080d443:  4d 89 dc                 movq     %r11, %r12
0x400080d446:  48 89 85 00 ff ff ff     movq     %rax, -0x100(%rbp)
0x400080d44d:  48 8d 45 80              leaq     -0x80(%rbp), %rax
0x400080d451:  48 89 85 18 ff ff ff     movq     %rax, -0xe8(%rbp)
0x400080d458:  48 8d 45 88              leaq     -0x78(%rbp), %rax
0x400080d45c:  48 89 85 f8 fe ff ff     movq     %rax, -0x108(%rbp)
0x400080d463:  48 8d 85 78 ff ff ff     leaq     -0x88(%rbp), %rax
0x400080d46a:  48 89 85 f0 fe ff ff     movq     %rax, -0x110(%rbp)
0x400080d471:  48 8d 85 70 ff ff ff     leaq     -0x90(%rbp), %rax
0x400080d478:  48 89 85 e8 fe ff ff     movq     %rax, -0x118(%rbp)
0x400080d47f:  48 8b 07                 movq     (%rdi), %rax
0x400080d482:  8b 57 18                 movl     0x18(%rdi), %edx
0x400080d485:  4d 8b 2c 24              movq     (%r12), %r13
0x400080d489:  48 89 c6                 movq     %rax, %rsi
0x400080d48c:  48 03 77 08              addq     8(%rdi), %rsi
0x400080d490:  85 d2                    testl    %edx, %edx
0x400080d492:  48 89 b5 68 ff ff ff     movq     %rsi, -0x98(%rbp)
0x400080d499:  0f 84 29 01 00 00        je       0x400080d5c8

----------------
IN: 
0x400081d830:  66 0f ef c0              pxor     %xmm0, %xmm0
0x400081d834:  66 0f 6f 17              movdqa   (%rdi), %xmm2
0x400081d838:  66 0f 6f 0e              movdqa   (%rsi), %xmm1
0x400081d83c:  66 0f 74 c1              pcmpeqb  %xmm1, %xmm0
0x400081d840:  66 0f 73 fa 05           pslldq   $5, %xmm2
0x400081d845:  66 0f 74 d1              pcmpeqb  %xmm1, %xmm2
0x400081d849:  66 0f f8 d0              psubb    %xmm0, %xmm2
0x400081d84d:  66 44 0f d7 ca           pmovmskb %xmm2, %r9d
0x400081d852:  d3 ea                    shrl     %cl, %edx
0x400081d854:  41 d3 e9                 shrl     %cl, %r9d
0x400081d857:  44 29 ca                 subl     %r9d, %edx
0x400081d85a:  0f 85 15 06 00 00        jne      0x400081de75

----------------
IN: 
0x400080daa0:  49 83 fe 05              cmpq     $5, %r14
0x400080daa4:  b8 01 00 00 00           movl     $1, %eax
0x400080daa9:  0f 85 78 fc ff ff        jne      0x400080d727

----------------
IN: 
0x4000804ef4:  0f 31                    rdtsc    
0x4000804ef6:  48 c1 e2 20              shlq     $0x20, %rdx
0x4000804efa:  89 c0                    movl     %eax, %eax
0x4000804efc:  48 09 d0                 orq      %rdx, %rax
0x4000804eff:  48 03 05 ea 30 22 00     addq     0x2230ea(%rip), %rax
0x4000804f06:  4c 29 e0                 subq     %r12, %rax
0x4000804f09:  48 89 05 e0 30 22 00     movq     %rax, 0x2230e0(%rip)
0x4000804f10:  e8 db 59 01 00           callq    0x400081a8f0

----------------
IN: 
0x400081a8f0:  f3 c3                    retq     

----------------
IN: 
0x4000804f15:  8b 05 f5 1e 22 00        movl     0x221ef5(%rip), %eax
0x4000804f1b:  85 c0                    testl    %eax, %eax
0x4000804f1d:  0f 85 c1 02 00 00        jne      0x40008051e4

----------------
IN: 
0x4000804f23:  31 f6                    xorl     %esi, %esi
0x4000804f25:  31 ff                    xorl     %edi, %edi
0x4000804f27:  e8 54 d1 00 00           callq    0x4000812080

----------------
IN: 
0x4000804f2c:  c7 40 18 00 00 00 00     movl     $0, 0x18(%rax)
0x4000804f33:  48 89 c3                 movq     %rax, %rbx
0x4000804f36:  e8 35 d1 00 00           callq    0x4000812070

----------------
IN: 
0x4000804f3b:  90                       nop      
0x4000804f3c:  e8 8f 49 01 00           callq    0x40008198d0

----------------
IN: 
0x40008198d0:  48 8b 3d d9 e7 20 00     movq     0x20e7d9(%rip), %rdi
0x40008198d7:  48 8d 47 ff              leaq     -1(%rdi), %rax
0x40008198db:  48 83 f8 fd              cmpq     $0xfd, %rax
0x40008198df:  76 07                    jbe      0x40008198e8

----------------
IN: 
0x40008198e8:  48 83 ec 08              subq     $8, %rsp
0x40008198ec:  48 8b 35 ad e7 20 00     movq     0x20e7ad(%rip), %rsi
0x40008198f3:  e8 78 2b 00 00           callq    0x400081c470

----------------
IN: 
0x400081c470:  b8 0b 00 00 00           movl     $0xb, %eax
0x400081c475:  0f 05                    syscall  

----------------
IN: 
0x400081c477:  48 3d 01 f0 ff ff        cmpq     $-0xfff, %rax
0x400081c47d:  73 01                    jae      0x400081c480

----------------
IN: 
0x400081c47f:  c3                       retq     

----------------
IN: 
0x40008198f8:  48 c7 05 ad e7 20 00 00  movq     $0, 0x20e7ad(%rip)
0x4000819900:  00 00 00
0x4000819903:  48 83 c4 08              addq     $8, %rsp
0x4000819907:  c3                       retq     

----------------
IN: 
0x4000804f41:  48 8d 65 d8              leaq     -0x28(%rbp), %rsp
0x4000804f45:  5b                       popq     %rbx
0x4000804f46:  41 5c                    popq     %r12
0x4000804f48:  41 5d                    popq     %r13
0x4000804f4a:  41 5e                    popq     %r14
0x4000804f4c:  41 5f                    popq     %r15
0x4000804f4e:  5d                       popq     %rbp
0x4000804f4f:  c3                       retq     

----------------
IN: 
0x400081a8ad:  48 8b 44 24 38           movq     0x38(%rsp), %rax
0x400081a8b2:  48 83 c4 48              addq     $0x48, %rsp
0x400081a8b6:  5b                       popq     %rbx
0x400081a8b7:  5d                       popq     %rbp
0x400081a8b8:  41 5c                    popq     %r12
0x400081a8ba:  41 5d                    popq     %r13
0x400081a8bc:  41 5e                    popq     %r14
0x400081a8be:  41 5f                    popq     %r15
0x400081a8c0:  c3                       retq     

----------------
IN: 
0x4000802c2a:  48 89 c3                 movq     %rax, %rbx
0x4000802c2d:  0f 31                    rdtsc    
0x4000802c2f:  48 c1 e2 20              shlq     $0x20, %rdx
0x4000802c33:  89 c0                    movl     %eax, %eax
0x4000802c35:  48 09 d0                 orq      %rdx, %rax
0x4000802c38:  48 2b 05 21 40 22 00     subq     0x224021(%rip), %rax
0x4000802c3f:  f6 05 5a 40 22 00 80     testb    $0x80, 0x22405a(%rip)
0x4000802c46:  48 89 45 c8              movq     %rax, -0x38(%rbp)
0x4000802c4a:  0f 85 53 02 00 00        jne      0x4000802ea3

----------------
IN: 
0x4000802c50:  48 83 c4 38              addq     $0x38, %rsp
0x4000802c54:  48 89 d8                 movq     %rbx, %rax
0x4000802c57:  5b                       popq     %rbx
0x4000802c58:  41 5c                    popq     %r12
0x4000802c5a:  41 5d                    popq     %r13
0x4000802c5c:  41 5e                    popq     %r14
0x4000802c5e:  41 5f                    popq     %r15
0x4000802c60:  5d                       popq     %rbp
0x4000802c61:  c3                       retq     

----------------
IN: 
0x4000801c38:  49 89 c4                 movq     %rax, %r12
0x4000801c3b:  8b 05 37 50 22 00        movl     0x225037(%rip), %eax
0x4000801c41:  5a                       popq     %rdx
0x4000801c42:  48 8d 24 c4              leaq     (%rsp, %rax, 8), %rsp
0x4000801c46:  29 c2                    subl     %eax, %edx
0x4000801c48:  52                       pushq    %rdx
0x4000801c49:  48 89 d6                 movq     %rdx, %rsi
0x4000801c4c:  49 89 e5                 movq     %rsp, %r13
0x4000801c4f:  48 83 e4 f0              andq     $0xfffffff0, %rsp
0x4000801c53:  48 8b 3d e6 53 22 00     movq     0x2253e6(%rip), %rdi
0x4000801c5a:  49 8d 4c d5 10           leaq     0x10(%r13, %rdx, 8), %rcx
0x4000801c5f:  49 8d 55 08              leaq     8(%r13), %rdx
0x4000801c63:  31 ed                    xorl     %ebp, %ebp
0x4000801c65:  e8 e6 fa 00 00           callq    0x4000811750

----------------
IN: 
0x4000811750:  41 57                    pushq    %r15
0x4000811752:  41 56                    pushq    %r14
0x4000811754:  49 89 fe                 movq     %rdi, %r14
0x4000811757:  41 55                    pushq    %r13
0x4000811759:  41 54                    pushq    %r12
0x400081175b:  49 89 cd                 movq     %rcx, %r13
0x400081175e:  55                       pushq    %rbp
0x400081175f:  53                       pushq    %rbx
0x4000811760:  89 f5                    movl     %esi, %ebp
0x4000811762:  49 89 d4                 movq     %rdx, %r12
0x4000811765:  48 83 ec 08              subq     $8, %rsp
0x4000811769:  48 8b 9f 40 01 00 00     movq     0x140(%rdi), %rbx
0x4000811770:  4c 8b bf 48 01 00 00     movq     0x148(%rdi), %r15
0x4000811777:  48 8b 3d 22 62 21 00     movq     0x216222(%rip), %rdi
0x400081177e:  48 85 ff                 testq    %rdi, %rdi
0x4000811781:  75 6c                    jne      0x40008117ef

----------------
IN: 
0x4000811783:  48 85 db                 testq    %rbx, %rbx
0x4000811786:  74 18                    je       0x40008117a0

----------------
IN: 
0x40008117a0:  41 8b 86 c0 02 00 00     movl     0x2c0(%r14), %eax
0x40008117a7:  8d 58 ff                 leal     -1(%rax), %ebx
0x40008117aa:  eb 07                    jmp      0x40008117b3

----------------
IN: 
0x40008117b3:  83 fb ff                 cmpl     $0xff, %ebx
0x40008117b6:  74 28                    je       0x40008117e0

----------------
IN: 
0x40008117b8:  49 8b 96 b8 03 00 00     movq     0x3b8(%r14), %rdx
0x40008117bf:  89 d8                    movl     %ebx, %eax
0x40008117c1:  48 8b 3c c2              movq     (%rdx, %rax, 8), %rdi
0x40008117c5:  f6 87 14 03 00 00 08     testb    $8, 0x314(%rdi)
0x40008117cc:  75 e2                    jne      0x40008117b0

----------------
IN: 
0x40008117ce:  4c 89 e9                 movq     %r13, %rcx
0x40008117d1:  4c 89 e2                 movq     %r12, %rdx
0x40008117d4:  89 ee                    movl     %ebp, %esi
0x40008117d6:  e8 55 fe ff ff           callq    0x4000811630

----------------
IN: 
0x4000811630:  41 56                    pushq    %r14
0x4000811632:  41 55                    pushq    %r13
0x4000811634:  41 54                    pushq    %r12
0x4000811636:  55                       pushq    %rbp
0x4000811637:  53                       pushq    %rbx
0x4000811638:  0f b6 87 14 03 00 00     movzbl   0x314(%rdi), %eax
0x400081163f:  4c 8b 47 08              movq     8(%rdi), %r8
0x4000811643:  83 c8 08                 orl      $8, %eax
0x4000811646:  88 87 14 03 00 00        movb     %al, 0x314(%rdi)
0x400081164c:  45 0f b6 08              movzbl   (%r8), %r9d
0x4000811650:  45 84 c9                 testb    %r9b, %r9b
0x4000811653:  0f 84 cf 00 00 00        je       0x4000811728

----------------
IN: 
0x4000811659:  48 8b 87 a0 00 00 00     movq     0xa0(%rdi), %rax
0x4000811660:  49 89 cd                 movq     %rcx, %r13
0x4000811663:  49 89 d4                 movq     %rdx, %r12
0x4000811666:  89 f5                    movl     %esi, %ebp
0x4000811668:  48 89 fb                 movq     %rdi, %rbx
0x400081166b:  48 85 c0                 testq    %rax, %rax
0x400081166e:  74 70                    je       0x40008116e0

----------------
IN: 
0x40008116e0:  48 8b 97 08 01 00 00     movq     0x108(%rdi), %rdx
0x40008116e7:  48 85 d2                 testq    %rdx, %rdx
0x40008116ea:  74 e7                    je       0x40008116d3

----------------
IN: 
0x40008116d3:  5b                       popq     %rbx
0x40008116d4:  5d                       popq     %rbp
0x40008116d5:  41 5c                    popq     %r12
0x40008116d7:  41 5d                    popq     %r13
0x40008116d9:  41 5e                    popq     %r14
0x40008116db:  c3                       retq     

----------------
IN: 
0x40008117db:  eb d3                    jmp      0x40008117b0

----------------
IN: 
0x40008117b0:  83 eb 01                 subl     $1, %ebx
0x40008117b3:  83 fb ff                 cmpl     $0xff, %ebx
0x40008117b6:  74 28                    je       0x40008117e0

----------------
IN: 
0x4000811670:  f6 05 29 56 21 00 02     testb    $2, 0x215629(%rip)
0x4000811677:  75 7f                    jne      0x40008116f8

----------------
IN: 
0x4000811679:  48 8b 40 08              movq     8(%rax), %rax
0x400081167d:  48 03 03                 addq     (%rbx), %rax
0x4000811680:  4c 89 ea                 movq     %r13, %rdx
0x4000811683:  4c 89 e6                 movq     %r12, %rsi
0x4000811686:  89 ef                    movl     %ebp, %edi
0x4000811688:  ff d0                    callq    *%rax

----------------
IN: 
0x4000a735a0:  41 55                    pushq    %r13
0x4000a735a2:  41 54                    pushq    %r12
0x4000a735a4:  41 89 fc                 movl     %edi, %r12d
0x4000a735a7:  55                       pushq    %rbp
0x4000a735a8:  53                       pushq    %rbx
0x4000a735a9:  48 89 f5                 movq     %rsi, %rbp
0x4000a735ac:  48 89 d3                 movq     %rdx, %rbx
0x4000a735af:  48 83 ec 28              subq     $0x28, %rsp
0x4000a735b3:  48 8b 05 8e 39 3a 00     movq     0x3a398e(%rip), %rax
0x4000a735ba:  48 85 c0                 testq    %rax, %rax
0x4000a735bd:  0f 84 0d 01 00 00        je       0x4000a736d0

----------------
IN: 
0x4000a736d0:  48 8b 05 c9 38 3a 00     movq     0x3a38c9(%rip), %rax
0x4000a736d7:  c7 05 9f 39 3a 00 00 00  movl     $0, 0x3a399f(%rip)
0x4000a736df:  00 00
0x4000a736e1:  0f b7 38                 movzwl   (%rax), %edi
0x4000a736e4:  48 8b 05 85 37 3a 00     movq     0x3a3785(%rip), %rax
0x4000a736eb:  66 39 78 50              cmpw     %di, 0x50(%rax)
0x4000a736ef:  0f 84 e2 fe ff ff        je       0x4000a735d7

----------------
IN: 
0x4000a735d7:  48 8b 05 da 38 3a 00     movq     0x3a38da(%rip), %rax
0x4000a735de:  48 8d 0d 28 c0 16 00     leaq     0x16c028(%rip), %rcx
0x4000a735e5:  44 89 25 14 8d 3a 00     movl     %r12d, 0x3a8d14(%rip)
0x4000a735ec:  48 89 2d 05 8d 3a 00     movq     %rbp, 0x3a8d05(%rip)
0x4000a735f3:  c7 44 24 0c 01 00 00 00  movl     $1, 0xc(%rsp)
0x4000a735fb:  ba 5f 00 00 00           movl     $0x5f, %edx
0x4000a73600:  c7 44 24 08 f6 75 ae 03  movl     $0x3ae75f6, 8(%rsp)
0x4000a73608:  48 89 18                 movq     %rbx, (%rax)
0x4000a7360b:  48 8d 05 f6 bf 16 00     leaq     0x16bff6(%rip), %rax
0x4000a73612:  48 89 04 24              movq     %rax, (%rsp)
0x4000a73616:  b8 a8 e3 50 00           movl     $0x50e3a8, %eax
0x4000a7361b:  48 c1 e0 04              shlq     $4, %rax
0x4000a7361f:  48 83 c1 01              addq     $1, %rcx
0x4000a73623:  48 01 d0                 addq     %rdx, %rax
0x4000a73626:  48 89 c2                 movq     %rax, %rdx
0x4000a73629:  81 e2 00 00 00 f0        andl     $0xf0000000, %edx
0x4000a7362f:  48 c1 ea 18              shrq     $0x18, %rdx
0x4000a73633:  48 31 d0                 xorq     %rdx, %rax
0x4000a73636:  0f b6 11                 movzbl   (%rcx), %edx
0x4000a73639:  84 d2                    testb    %dl, %dl
0x4000a7363b:  75 de                    jne      0x4000a7361b

----------------
IN: 
0x4000a7361b:  48 c1 e0 04              shlq     $4, %rax
0x4000a7361f:  48 83 c1 01              addq     $1, %rcx
0x4000a73623:  48 01 d0                 addq     %rdx, %rax
0x4000a73626:  48 89 c2                 movq     %rax, %rdx
0x4000a73629:  81 e2 00 00 00 f0        andl     $0xf0000000, %edx
0x4000a7362f:  48 c1 ea 18              shrq     $0x18, %rdx
0x4000a73633:  48 31 d0                 xorq     %rdx, %rax
0x4000a73636:  0f b6 11                 movzbl   (%rcx), %edx
0x4000a73639:  84 d2                    testb    %dl, %dl
0x4000a7363b:  75 de                    jne      0x4000a7361b

----------------
IN: 
0x4000a7363d:  25 ff ff ff 0f           andl     $0xfffffff, %eax
0x4000a73642:  48 3d f6 75 ae 03        cmpq     $0x3ae75f6, %rax
0x4000a73648:  0f 85 be 00 00 00        jne      0x4000a7370c

----------------
IN: 
0x4000a7364e:  48 8d 3d bd bf 16 00     leaq     0x16bfbd(%rip), %rdi
0x4000a73655:  48 89 e6                 movq     %rsp, %rsi
0x4000a73658:  48 c7 44 24 10 00 00 00  movq     $0, 0x10(%rsp)
0x4000a73660:  00
0x4000a73661:  49 89 e5                 movq     %rsp, %r13
0x4000a73664:  e8 17 37 12 00           callq    0x4000b96d80

----------------
IN: 
0x4000a73669:  48 85 c0                 testq    %rax, %rax
0x4000a7366c:  0f 84 8e 00 00 00        je       0x4000a73700

----------------
IN: 
0x4000a73700:  48 8d 05 e9 70 0e 00     leaq     0xe70e9(%rip), %rax
0x4000a73707:  e9 66 ff ff ff           jmp      0x4000a73672

----------------
IN: 
0x4000a73672:  48 8d 3d ae bf 16 00     leaq     0x16bfae(%rip), %rdi
0x4000a73679:  4c 89 ee                 movq     %r13, %rsi
0x4000a7367c:  64 48 33 04 25 30 00 00  xorq     %fs:0x30, %rax
0x4000a73684:  00
0x4000a73685:  48 c1 c0 11              rolq     $0x11, %rax
0x4000a73689:  48 89 05 58 8c 3a 00     movq     %rax, 0x3a8c58(%rip)
0x4000a73690:  e8 eb 36 12 00           callq    0x4000b96d80

----------------
IN: 
0x4000a73695:  48 89 da                 movq     %rbx, %rdx
0x4000a73698:  48 89 ee                 movq     %rbp, %rsi
0x4000a7369b:  44 89 e7                 movl     %r12d, %edi
0x4000a7369e:  64 48 33 04 25 30 00 00  xorq     %fs:0x30, %rax
0x4000a736a6:  00
0x4000a736a7:  48 c1 c0 11              rolq     $0x11, %rax
0x4000a736ab:  48 89 05 3e 8c 3a 00     movq     %rax, 0x3a8c3e(%rip)
0x4000a736b2:  e8 d9 6b 0e 00           callq    0x4000b5a290

----------------
IN: 
0x4000b5a290:  48 85 f6                 testq    %rsi, %rsi
0x4000b5a293:  74 46                    je       0x4000b5a2db

----------------
IN: 
0x4000b5a295:  55                       pushq    %rbp
0x4000b5a296:  53                       pushq    %rbx
0x4000b5a297:  48 83 ec 08              subq     $8, %rsp
0x4000b5a29b:  48 8b 2e                 movq     (%rsi), %rbp
0x4000b5a29e:  48 85 ed                 testq    %rbp, %rbp
0x4000b5a2a1:  74 32                    je       0x4000b5a2d5

----------------
IN: 
0x4000b5a2a3:  48 89 f3                 movq     %rsi, %rbx
0x4000b5a2a6:  48 89 ef                 movq     %rbp, %rdi
0x4000b5a2a9:  be 2f 00 00 00           movl     $0x2f, %esi
0x4000b5a2ae:  e8 4d 61 f8 ff           callq    0x4000ae0400

----------------
IN: 
0x4000ae0400:  66 0f 6e ce              movd     %esi, %xmm1
0x4000ae0404:  48 89 f8                 movq     %rdi, %rax
0x4000ae0407:  25 ff 0f 00 00           andl     $0xfff, %eax
0x4000ae040c:  66 0f 60 c9              punpcklbw %xmm1, %xmm1
0x4000ae0410:  48 3d c0 0f 00 00        cmpq     $0xfc0, %rax
0x4000ae0416:  66 0f 61 c9              punpcklwd %xmm1, %xmm1
0x4000ae041a:  66 0f 70 c9 00           pshufd   $0, %xmm1, %xmm1
0x4000ae041f:  0f 87 fb 01 00 00        ja       0x4000ae0620

----------------
IN: 
0x4000ae0425:  f3 0f 6f 07              movdqu   (%rdi), %xmm0
0x4000ae0429:  66 0f ef d2              pxor     %xmm2, %xmm2
0x4000ae042d:  66 0f 6f d8              movdqa   %xmm0, %xmm3
0x4000ae0431:  66 0f 74 c1              pcmpeqb  %xmm1, %xmm0
0x4000ae0435:  66 0f 74 da              pcmpeqb  %xmm2, %xmm3
0x4000ae0439:  66 0f d7 c8              pmovmskb %xmm0, %ecx
0x4000ae043d:  66 0f d7 d3              pmovmskb %xmm3, %edx
0x4000ae0441:  48 85 d2                 testq    %rdx, %rdx
0x4000ae0444:  74 1a                    je       0x4000ae0460

----------------
IN: 
0x4000ae0446:  48 8d 42 ff              leaq     -1(%rdx), %rax
0x4000ae044a:  48 31 d0                 xorq     %rdx, %rax
0x4000ae044d:  48 21 c8                 andq     %rcx, %rax
0x4000ae0450:  0f 84 ba 01 00 00        je       0x4000ae0610

----------------
IN: 
0x4000ae0456:  48 0f bd c0              bsrq     %rax, %rax
0x4000ae045a:  48 01 f8                 addq     %rdi, %rax
0x4000ae045d:  c3                       retq     

----------------
IN: 
0x4000b5a2b3:  48 8d 50 01              leaq     1(%rax), %rdx
0x4000b5a2b7:  48 85 c0                 testq    %rax, %rax
0x4000b5a2ba:  48 8b 05 47 cb 2b 00     movq     0x2bcb47(%rip), %rax
0x4000b5a2c1:  48 0f 45 ea              cmovneq  %rdx, %rbp
0x4000b5a2c5:  48 89 28                 movq     %rbp, (%rax)
0x4000b5a2c8:  48 8b 05 19 cb 2b 00     movq     0x2bcb19(%rip), %rax
0x4000b5a2cf:  48 8b 13                 movq     (%rbx), %rdx
0x4000b5a2d2:  48 89 10                 movq     %rdx, (%rax)
0x4000b5a2d5:  48 83 c4 08              addq     $8, %rsp
0x4000b5a2d9:  5b                       popq     %rbx
0x4000b5a2da:  5d                       popq     %rbp
0x4000b5a2db:  f3 c3                    retq     

----------------
IN: 
0x4000a736b7:  e8 94 da 00 00           callq    0x4000a81150

----------------
IN: 
0x4000a81150:  48 8b 05 81 5c 39 00     movq     0x395c81(%rip), %rax
0x4000a81157:  48 8b 0d ba 5c 39 00     movq     0x395cba(%rip), %rcx
0x4000a8115e:  64 48 8b 00              movq     %fs:(%rax), %rax
0x4000a81162:  48 8b 00                 movq     (%rax), %rax
0x4000a81165:  48 8b 70 40              movq     0x40(%rax), %rsi
0x4000a81169:  48 8b 78 48              movq     0x48(%rax), %rdi
0x4000a8116d:  48 8b 40 58              movq     0x58(%rax), %rax
0x4000a81171:  48 8d 96 00 01 00 00     leaq     0x100(%rsi), %rdx
0x4000a81178:  48 05 00 02 00 00        addq     $0x200, %rax
0x4000a8117e:  64 48 89 11              movq     %rdx, %fs:(%rcx)
0x4000a81182:  48 8b 0d 5f 5d 39 00     movq     0x395d5f(%rip), %rcx
0x4000a81189:  48 8d 97 00 02 00 00     leaq     0x200(%rdi), %rdx
0x4000a81190:  64 48 89 11              movq     %rdx, %fs:(%rcx)
0x4000a81194:  48 8b 15 95 5d 39 00     movq     0x395d95(%rip), %rdx
0x4000a8119b:  64 48 89 02              movq     %rax, %fs:(%rdx)
0x4000a8119f:  c3                       retq     

----------------
IN: 
0x4000a736bc:  48 83 c4 28              addq     $0x28, %rsp
0x4000a736c0:  5b                       popq     %rbx
0x4000a736c1:  5d                       popq     %rbp
0x4000a736c2:  41 5c                    popq     %r12
0x4000a736c4:  41 5d                    popq     %r13
0x4000a736c6:  c3                       retq     

----------------
IN: 
0x400081168a:  48 8b 93 08 01 00 00     movq     0x108(%rbx), %rdx
0x4000811691:  48 85 d2                 testq    %rdx, %rdx
0x4000811694:  74 3d                    je       0x40008116d3

----------------
IN: 
0x4000811696:  48 8b 83 18 01 00 00     movq     0x118(%rbx), %rax
0x400081169d:  48 8b 1b                 movq     (%rbx), %rbx
0x40008116a0:  48 03 5a 08              addq     8(%rdx), %rbx
0x40008116a4:  48 8b 40 08              movq     8(%rax), %rax
0x40008116a8:  48 c1 e8 03              shrq     $3, %rax
0x40008116ac:  85 c0                    testl    %eax, %eax
0x40008116ae:  74 23                    je       0x40008116d3

----------------
IN: 
0x40008116b0:  83 e8 01                 subl     $1, %eax
0x40008116b3:  4c 8d 74 c3 08           leaq     8(%rbx, %rax, 8), %r14
0x40008116b8:  0f 1f 84 00 00 00 00 00  nopl     (%rax, %rax)
0x40008116c0:  4c 89 ea                 movq     %r13, %rdx
0x40008116c3:  4c 89 e6                 movq     %r12, %rsi
0x40008116c6:  89 ef                    movl     %ebp, %edi
0x40008116c8:  ff 13                    callq    *(%rbx)

----------------
IN: 
0x4000a732c0:  41 56                    pushq    %r14
0x4000a732c2:  41 55                    pushq    %r13
0x4000a732c4:  4c 8b 2d a5 3b 3a 00     movq     0x3a3ba5(%rip), %r13
0x4000a732cb:  41 54                    pushq    %r12
0x4000a732cd:  55                       pushq    %rbp
0x4000a732ce:  53                       pushq    %rbx
0x4000a732cf:  41 8b 45 70              movl     0x70(%r13), %eax
0x4000a732d3:  83 f8 01                 cmpl     $1, %eax
0x4000a732d6:  74 12                    je       0x4000a732ea

----------------
IN: 
0x4000a732d8:  83 f8 02                 cmpl     $2, %eax
0x4000a732db:  0f 84 07 01 00 00        je       0x4000a733e8

----------------
IN: 
0x4000a733e8:  bf bc 00 00 00           movl     $0xbc, %edi
0x4000a733ed:  e8 8e a7 08 00           callq    0x4000afdb80

----------------
IN: 
0x4000afdb80:  53                       pushq    %rbx
0x4000afdb81:  b8 00 00 00 80           movl     $0x80000000, %eax
0x4000afdb86:  0f a2                    cpuid    
0x4000afdb88:  81 ff c4 00 00 00        cmpl     $0xc4, %edi
0x4000afdb8e:  7f 40                    jg       0x4000afdbd0

----------------
IN: 
0x4000afdb90:  31 d2                    xorl     %edx, %edx
0x4000afdb92:  81 ff be 00 00 00        cmpl     $0xbe, %edi
0x4000afdb98:  0f 9f c2                 setg     %dl
0x4000afdb9b:  81 ea fb ff ff 7f        subl     $0x7ffffffb, %edx
0x4000afdba1:  39 c2                    cmpl     %eax, %edx
0x4000afdba3:  77 2b                    ja       0x4000afdbd0

----------------
IN: 
0x4000afdba5:  89 d0                    movl     %edx, %eax
0x4000afdba7:  0f a2                    cpuid    
0x4000afdba9:  81 ff bb 00 00 00        cmpl     $0xbb, %edi
0x4000afdbaf:  7e 27                    jle      0x4000afdbd8

----------------
IN: 
0x4000afdbb1:  81 ef bc 00 00 00        subl     $0xbc, %edi
0x4000afdbb7:  83 ff 08                 cmpl     $8, %edi
0x4000afdbba:  0f 87 40 01 00 00        ja       0x4000afdd00

----------------
IN: 
0x4000afdbc0:  48 8d 35 b9 d6 0d 00     leaq     0xdd6b9(%rip), %rsi
0x4000afdbc7:  48 63 04 be              movslq   (%rsi, %rdi, 4), %rax
0x4000afdbcb:  48 01 c6                 addq     %rax, %rsi
0x4000afdbce:  ff e6                    jmpq     *%rsi

----------------
IN: 
0x4000afdc18:  89 c8                    movl     %ecx, %eax
0x4000afdc1a:  c1 e8 0e                 shrl     $0xe, %eax
0x4000afdc1d:  25 00 fc 03 00           andl     $0x3fc00, %eax
0x4000afdc22:  5b                       popq     %rbx
0x4000afdc23:  c3                       retq     

----------------
IN: 
0x4000a733f2:  bf bf 00 00 00           movl     $0xbf, %edi
0x4000a733f7:  49 89 c4                 movq     %rax, %r12
0x4000a733fa:  e8 81 a7 08 00           callq    0x4000afdb80

----------------
IN: 
0x4000afdbf0:  31 c0                    xorl     %eax, %eax
0x4000afdbf2:  f6 c5 f0                 testb    $0xf0, %ch
0x4000afdbf5:  74 db                    je       0x4000afdbd2

----------------
IN: 
0x4000afdbf7:  89 c8                    movl     %ecx, %eax
0x4000afdbf9:  c1 e8 06                 shrl     $6, %eax
0x4000afdbfc:  25 00 fc ff 03           andl     $0x3fffc00, %eax
0x4000afdc01:  5b                       popq     %rbx
0x4000afdc02:  c3                       retq     

----------------
IN: 
0x4000a733ff:  bf c2 00 00 00           movl     $0xc2, %edi
0x4000a73404:  48 89 c5                 movq     %rax, %rbp
0x4000a73407:  e8 74 a7 08 00           callq    0x4000afdb80

----------------
IN: 
0x4000afdc60:  31 c0                    xorl     %eax, %eax
0x4000afdc62:  f6 c6 f0                 testb    $0xf0, %dh
0x4000afdc65:  0f 84 67 ff ff ff        je       0x4000afdbd2

----------------
IN: 
0x4000afdc6b:  48 8d 04 12              leaq     (%rdx, %rdx), %rax
0x4000afdc6f:  5b                       popq     %rbx
0x4000afdc70:  25 00 00 f8 7f           andl     $0x7ff80000, %eax
0x4000afdc75:  c3                       retq     

----------------
IN: 
0x4000a7340c:  48 89 c7                 movq     %rax, %rdi
0x4000a7340f:  b8 00 00 00 80           movl     $0x80000000, %eax
0x4000a73414:  0f a2                    cpuid    
0x4000a73416:  48 85 ff                 testq    %rdi, %rdi
0x4000a73419:  89 c6                    movl     %eax, %esi
0x4000a7341b:  7e 25                    jle      0x4000a73442

----------------
IN: 
0x4000a7341d:  3d 07 00 00 80           cmpl     $0x80000007, %eax
0x4000a73422:  77 45                    ja       0x4000a73469

----------------
IN: 
0x4000a73469:  b8 08 00 00 80           movl     $0x80000008, %eax
0x4000a7346e:  0f a2                    cpuid    
0x4000a73470:  c1 e9 0c                 shrl     $0xc, %ecx
0x4000a73473:  89 c6                    movl     %eax, %esi
0x4000a73475:  b8 01 00 00 00           movl     $1, %eax
0x4000a7347a:  83 e1 0f                 andl     $0xf, %ecx
0x4000a7347d:  d3 e0                    shll     %cl, %eax
0x4000a7347f:  89 c1                    movl     %eax, %ecx
0x4000a73481:  48 89 f8                 movq     %rdi, %rax
0x4000a73484:  48 99                    cqto     
0x4000a73486:  48 f7 f9                 idivq    %rcx
0x4000a73489:  48 89 c7                 movq     %rax, %rdi
0x4000a7348c:  eb b1                    jmp      0x4000a7343f

----------------
IN: 
0x4000a7343f:  48 01 fd                 addq     %rdi, %rbp
0x4000a73442:  81 fe 00 00 00 80        cmpl     $0x80000000, %esi
0x4000a73448:  0f 86 2b ff ff ff        jbe      0x4000a73379

----------------
IN: 
0x4000a73379:  4d 85 e4                 testq    %r12, %r12
0x4000a7337c:  7e 2c                    jle      0x4000a733aa

----------------
IN: 
0x4000a7337e:  4c 89 e0                 movq     %r12, %rax
0x4000a73381:  4c 89 25 58 3e 3a 00     movq     %r12, 0x3a3e58(%rip)
0x4000a73388:  41 80 e4 00              andb     $0, %r12b
0x4000a7338c:  48 d1 f8                 sarq     $1, %rax
0x4000a7338f:  4c 89 25 5a 3e 3a 00     movq     %r12, 0x3a3e5a(%rip)
0x4000a73396:  48 89 05 4b 3e 3a 00     movq     %rax, 0x3a3e4b(%rip)
0x4000a7339d:  4c 89 e0                 movq     %r12, %rax
0x4000a733a0:  48 d1 f8                 sarq     $1, %rax
0x4000a733a3:  48 89 05 4e 3e 3a 00     movq     %rax, 0x3a3e4e(%rip)
0x4000a733aa:  48 85 ed                 testq    %rbp, %rbp
0x4000a733ad:  0f 8e 2e ff ff ff        jle      0x4000a732e1

----------------
IN: 
0x4000a733b3:  48 89 e8                 movq     %rbp, %rax
0x4000a733b6:  48 89 2d 03 3e 3a 00     movq     %rbp, 0x3a3e03(%rip)
0x4000a733bd:  40 80 e5 00              andb     $0, %bpl
0x4000a733c1:  48 d1 f8                 sarq     $1, %rax
0x4000a733c4:  48 89 2d 05 3e 3a 00     movq     %rbp, 0x3a3e05(%rip)
0x4000a733cb:  48 89 05 f6 3d 3a 00     movq     %rax, 0x3a3df6(%rip)
0x4000a733d2:  48 89 e8                 movq     %rbp, %rax
0x4000a733d5:  48 d1 f8                 sarq     $1, %rax
0x4000a733d8:  5b                       popq     %rbx
0x4000a733d9:  48 89 05 f8 3d 3a 00     movq     %rax, 0x3a3df8(%rip)
0x4000a733e0:  5d                       popq     %rbp
0x4000a733e1:  41 5c                    popq     %r12
0x4000a733e3:  41 5d                    popq     %r13
0x4000a733e5:  41 5e                    popq     %r14
0x4000a733e7:  c3                       retq     

----------------
IN: 
0x40008116ca:  48 83 c3 08              addq     $8, %rbx
0x40008116ce:  4c 39 f3                 cmpq     %r14, %rbx
0x40008116d1:  75 ed                    jne      0x40008116c0

----------------
IN: 
0x40008116c0:  4c 89 ea                 movq     %r13, %rdx
0x40008116c3:  4c 89 e6                 movq     %r12, %rsi
0x40008116c6:  89 ef                    movl     %ebp, %edi
0x40008116c8:  ff 13                    callq    *(%rbx)

----------------
IN: 
0x4000a73560:  48 8b 0d 99 38 3a 00     movq     0x3a3899(%rip), %rcx
0x4000a73567:  48 83 b9 68 09 00 00 00  cmpq     $0, 0x968(%rcx)
0x4000a7356f:  75 12                    jne      0x4000a73583

----------------
IN: 
0x4000a73583:  f3 c3                    retq     

----------------
IN: 
0x4000811728:  a8 03                    testb    $3, %al
0x400081172a:  0f 85 29 ff ff ff        jne      0x4000811659

----------------
IN: 
0x4000811730:  eb a1                    jmp      0x40008116d3

----------------
IN: 
0x40008117e0:  48 83 c4 08              addq     $8, %rsp
0x40008117e4:  5b                       popq     %rbx
0x40008117e5:  5d                       popq     %rbp
0x40008117e6:  41 5c                    popq     %r12
0x40008117e8:  41 5d                    popq     %r13
0x40008117ea:  41 5e                    popq     %r14
0x40008117ec:  41 5f                    popq     %r15
0x40008117ee:  c3                       retq     

----------------
IN: 
0x4000801c6a:  48 8d 15 4f fe 00 00     leaq     0xfe4f(%rip), %rdx
0x4000801c71:  4c 89 ec                 movq     %r13, %rsp
0x4000801c74:  41 ff e4                 jmpq     *%r12

----------------
IN: _start
0x00400690:  31 ed                    xorl     %ebp, %ebp
0x00400692:  49 89 d1                 movq     %rdx, %r9
0x00400695:  5e                       popq     %rsi
0x00400696:  48 89 e2                 movq     %rsp, %rdx
0x00400699:  48 83 e4 f0              andq     $0xfffffff0, %rsp
0x0040069d:  50                       pushq    %rax
0x0040069e:  54                       pushq    %rsp
0x0040069f:  49 c7 c0 50 0d 40 00     movq     $0x400d50, %r8
0x004006a6:  48 c7 c1 e0 0c 40 00     movq     $0x400ce0, %rcx
0x004006ad:  48 c7 c7 ed 0b 40 00     movq     $0x400bed, %rdi
0x004006b4:  e8 77 ff ff ff           callq    0x400630

----------------
IN: 
0x00400630:  ff 25 0a 1a 20 00        jmpq     *0x201a0a(%rip)

----------------
IN: 
0x00400636:  68 05 00 00 00           pushq    $5
0x0040063b:  e9 90 ff ff ff           jmp      0x4005d0

----------------
IN: 
0x004005d0:  ff 35 32 1a 20 00        pushq    0x201a32(%rip)
0x004005d6:  ff 25 34 1a 20 00        jmpq     *0x201a34(%rip)

----------------
IN: 
0x4000818d90:  53                       pushq    %rbx
0x4000818d91:  48 89 e3                 movq     %rsp, %rbx
0x4000818d94:  48 83 e4 f0              andq     $0xfffffff0, %rsp
0x4000818d98:  48 81 ec 40 02 00 00     subq     $0x240, %rsp
0x4000818d9f:  48 89 04 24              movq     %rax, (%rsp)
0x4000818da3:  48 89 4c 24 08           movq     %rcx, 8(%rsp)
0x4000818da8:  48 89 54 24 10           movq     %rdx, 0x10(%rsp)
0x4000818dad:  48 89 74 24 18           movq     %rsi, 0x18(%rsp)
0x4000818db2:  48 89 7c 24 20           movq     %rdi, 0x20(%rsp)
0x4000818db7:  4c 89 44 24 28           movq     %r8, 0x28(%rsp)
0x4000818dbc:  4c 89 4c 24 30           movq     %r9, 0x30(%rsp)
0x4000818dc1:  0f ae 44 24 40           fxsave   0x40(%rsp)
0x4000818dc6:  48 8b 73 10              movq     0x10(%rbx), %rsi
0x4000818dca:  48 8b 7b 08              movq     8(%rbx), %rdi
0x4000818dce:  e8 2d 7c ff ff           callq    0x4000810a00

----------------
IN: 
0x4000810a00:  53                       pushq    %rbx
0x4000810a01:  49 89 fa                 movq     %rdi, %r10
0x4000810a04:  89 f6                    movl     %esi, %esi
0x4000810a06:  48 8d 14 76              leaq     (%rsi, %rsi, 2), %rdx
0x4000810a0a:  48 83 ec 10              subq     $0x10, %rsp
0x4000810a0e:  48 8b 47 68              movq     0x68(%rdi), %rax
0x4000810a12:  48 8b 78 08              movq     8(%rax), %rdi
0x4000810a16:  49 8b 82 f8 00 00 00     movq     0xf8(%r10), %rax
0x4000810a1d:  48 8b 40 08              movq     8(%rax), %rax
0x4000810a21:  4c 8d 04 d0              leaq     (%rax, %rdx, 8), %r8
0x4000810a25:  49 8b 42 70              movq     0x70(%r10), %rax
0x4000810a29:  49 8b 48 08              movq     8(%r8), %rcx
0x4000810a2d:  48 8b 40 08              movq     8(%rax), %rax
0x4000810a31:  48 89 ca                 movq     %rcx, %rdx
0x4000810a34:  48 c1 ea 20              shrq     $0x20, %rdx
0x4000810a38:  48 8d 34 52              leaq     (%rdx, %rdx, 2), %rsi
0x4000810a3c:  48 8d 34 f0              leaq     (%rax, %rsi, 8), %rsi
0x4000810a40:  49 8b 02                 movq     (%r10), %rax
0x4000810a43:  48 89 74 24 08           movq     %rsi, 8(%rsp)
0x4000810a48:  48 89 c3                 movq     %rax, %rbx
0x4000810a4b:  49 03 18                 addq     (%r8), %rbx
0x4000810a4e:  83 f9 07                 cmpl     $7, %ecx
0x4000810a51:  0f 85 50 01 00 00        jne      0x4000810ba7

----------------
IN: 
0x4000810a57:  f6 46 05 03              testb    $3, 5(%rsi)
0x4000810a5b:  0f 85 98 00 00 00        jne      0x4000810af9

----------------
IN: 
0x4000810a61:  49 8b 82 c8 01 00 00     movq     0x1c8(%r10), %rax
0x4000810a68:  48 85 c0                 testq    %rax, %rax
0x4000810a6b:  0f 84 af 00 00 00        je       0x4000810b20

----------------
IN: 
0x4000810a71:  48 8b 40 08              movq     8(%rax), %rax
0x4000810a75:  0f b7 04 50              movzwl   (%rax, %rdx, 2), %eax
0x4000810a79:  25 ff 7f 00 00           andl     $0x7fff, %eax
0x4000810a7e:  48 8d 14 40              leaq     (%rax, %rax, 2), %rdx
0x4000810a82:  49 8b 82 e0 02 00 00     movq     0x2e0(%r10), %rax
0x4000810a89:  4c 8d 04 d0              leaq     (%rax, %rdx, 8), %r8
0x4000810a8d:  b8 00 00 00 00           movl     $0, %eax
0x4000810a92:  45 8b 48 08              movl     8(%r8), %r9d
0x4000810a96:  45 85 c9                 testl    %r9d, %r9d
0x4000810a99:  4c 0f 44 c0              cmoveq   %rax, %r8
0x4000810a9d:  64 8b 04 25 18 00 00 00  movl     %fs:0x18, %eax
0x4000810aa5:  85 c0                    testl    %eax, %eax
0x4000810aa7:  41 b9 01 00 00 00        movl     $1, %r9d
0x4000810aad:  0f 85 8d 00 00 00        jne      0x4000810b40

----------------
IN: 
0x4000810ab3:  8b 06                    movl     (%rsi), %eax
0x4000810ab5:  49 8b 8a 80 03 00 00     movq     0x380(%r10), %rcx
0x4000810abc:  48 8d 54 24 08           leaq     8(%rsp), %rdx
0x4000810ac1:  6a 00                    pushq    $0
0x4000810ac3:  41 51                    pushq    %r9
0x4000810ac5:  4c 89 d6                 movq     %r10, %rsi
0x4000810ac8:  41 b9 01 00 00 00        movl     $1, %r9d
0x4000810ace:  48 01 c7                 addq     %rax, %rdi
0x4000810ad1:  e8 fa ae ff ff           callq    0x400080b9d0

----------------
IN: 
0x4000810ad6:  49 89 c0                 movq     %rax, %r8
0x4000810ad9:  64 8b 04 25 18 00 00 00  movl     %fs:0x18, %eax
0x4000810ae1:  85 c0                    testl    %eax, %eax
0x4000810ae3:  59                       popq     %rcx
0x4000810ae4:  5e                       popq     %rsi
0x4000810ae5:  75 79                    jne      0x4000810b60

----------------
IN: 
0x4000810ae7:  48 8b 74 24 08           movq     8(%rsp), %rsi
0x4000810aec:  48 85 f6                 testq    %rsi, %rsi
0x4000810aef:  74 3f                    je       0x4000810b30

----------------
IN: 
0x4000810af1:  4d 85 c0                 testq    %r8, %r8
0x4000810af4:  74 42                    je       0x4000810b38

----------------
IN: 
0x4000810af6:  49 8b 00                 movq     (%r8), %rax
0x4000810af9:  0f b6 56 04              movzbl   4(%rsi), %edx
0x4000810afd:  48 03 46 08              addq     8(%rsi), %rax
0x4000810b01:  83 e2 0f                 andl     $0xf, %edx
0x4000810b04:  80 fa 0a                 cmpb     $0xa, %dl
0x4000810b07:  0f 84 93 00 00 00        je       0x4000810ba0

----------------
IN: 
0x4000810b0d:  8b 15 d5 61 21 00        movl     0x2161d5(%rip), %edx
0x4000810b13:  85 d2                    testl    %edx, %edx
0x4000810b15:  75 03                    jne      0x4000810b1a

----------------
IN: 
0x4000810b17:  48 89 03                 movq     %rax, (%rbx)
0x4000810b1a:  48 83 c4 10              addq     $0x10, %rsp
0x4000810b1e:  5b                       popq     %rbx
0x4000810b1f:  c3                       retq     

----------------
IN: 
0x4000818dd3:  49 89 c3                 movq     %rax, %r11
0x4000818dd6:  0f ae 4c 24 40           fxrstor  0x40(%rsp)
0x4000818ddb:  4c 8b 4c 24 30           movq     0x30(%rsp), %r9
0x4000818de0:  4c 8b 44 24 28           movq     0x28(%rsp), %r8
0x4000818de5:  48 8b 7c 24 20           movq     0x20(%rsp), %rdi
0x4000818dea:  48 8b 74 24 18           movq     0x18(%rsp), %rsi
0x4000818def:  48 8b 54 24 10           movq     0x10(%rsp), %rdx
0x4000818df4:  48 8b 4c 24 08           movq     8(%rsp), %rcx
0x4000818df9:  48 8b 04 24              movq     (%rsp), %rax
0x4000818dfd:  48 89 dc                 movq     %rbx, %rsp
0x4000818e00:  48 8b 1c 24              movq     (%rsp), %rbx
0x4000818e04:  48 83 c4 18              addq     $0x18, %rsp
0x4000818e08:  f2 41 ff e3              jmpq     *%r11

----------------
IN: 
0x4000a73740:  41 56                    pushq    %r14
0x4000a73742:  41 55                    pushq    %r13
0x4000a73744:  41 54                    pushq    %r12
0x4000a73746:  55                       pushq    %rbp
0x4000a73747:  48 89 cd                 movq     %rcx, %rbp
0x4000a7374a:  53                       pushq    %rbx
0x4000a7374b:  48 81 ec 90 00 00 00     subq     $0x90, %rsp
0x4000a73752:  48 8b 05 ef 37 3a 00     movq     0x3a37ef(%rip), %rax
0x4000a73759:  48 89 7c 24 18           movq     %rdi, 0x18(%rsp)
0x4000a7375e:  89 74 24 14              movl     %esi, 0x14(%rsp)
0x4000a73762:  48 89 54 24 08           movq     %rdx, 8(%rsp)
0x4000a73767:  48 85 c0                 testq    %rax, %rax
0x4000a7376a:  0f 84 c7 00 00 00        je       0x4000a73837

----------------
IN: 
0x4000a73837:  31 d2                    xorl     %edx, %edx
0x4000a73839:  e9 3b ff ff ff           jmp      0x4000a73779

----------------
IN: 
0x4000a73779:  48 8d 05 00 39 3a 00     leaq     0x3a3900(%rip), %rax
0x4000a73780:  4d 85 c9                 testq    %r9, %r9
0x4000a73783:  89 10                    movl     %edx, (%rax)
0x4000a73785:  74 0c                    je       0x4000a73793

----------------
IN: 
0x4000a73787:  31 d2                    xorl     %edx, %edx
0x4000a73789:  31 f6                    xorl     %esi, %esi
0x4000a7378b:  4c 89 cf                 movq     %r9, %rdi
0x4000a7378e:  e8 ed 9a 01 00           callq    0x4000a8d280

----------------
IN: 
0x4000a8d280:  41 54                    pushq    %r12
0x4000a8d282:  55                       pushq    %rbp
0x4000a8d283:  49 89 f4                 movq     %rsi, %r12
0x4000a8d286:  53                       pushq    %rbx
0x4000a8d287:  48 89 fb                 movq     %rdi, %rbx
0x4000a8d28a:  48 8d 3d 67 a3 38 00     leaq     0x38a367(%rip), %rdi
0x4000a8d291:  48 89 d5                 movq     %rdx, %rbp
0x4000a8d294:  e8 07 fe ff ff           callq    0x4000a8d0a0

----------------
IN: 
0x4000a8d0a0:  55                       pushq    %rbp
0x4000a8d0a1:  53                       pushq    %rbx
0x4000a8d0a2:  be 01 00 00 00           movl     $1, %esi
0x4000a8d0a7:  48 89 fb                 movq     %rdi, %rbx
0x4000a8d0aa:  31 c0                    xorl     %eax, %eax
0x4000a8d0ac:  48 83 ec 08              subq     $8, %rsp
0x4000a8d0b0:  83 3d 89 f6 38 00 00     cmpl     $0, 0x38f689(%rip)
0x4000a8d0b7:  74 0c                    je       0x4000a8d0c5

----------------
IN: 
0x4000a8d0c5:  0f b1 35 84 bf 38 00     cmpxchgl %esi, 0x38bf84(%rip)
0x4000a8d0cc:  74 1a                    je       0x4000a8d0e8

----------------
IN: 
0x4000a8d0e8:  48 8b 2b                 movq     (%rbx), %rbp
0x4000a8d0eb:  31 ff                    xorl     %edi, %edi
0x4000a8d0ed:  48 85 ed                 testq    %rbp, %rbp
0x4000a8d0f0:  48 89 e8                 movq     %rbp, %rax
0x4000a8d0f3:  0f 84 10 01 00 00        je       0x4000a8d209

----------------
IN: 
0x4000a8d0f9:  0f 1f 80 00 00 00 00     nopl     (%rax)
0x4000a8d100:  48 8b 48 08              movq     8(%rax), %rcx
0x4000a8d104:  48 85 c9                 testq    %rcx, %rcx
0x4000a8d107:  74 3e                    je       0x4000a8d147

----------------
IN: 
0x4000a8d147:  48 8b 10                 movq     (%rax), %rdx
0x4000a8d14a:  48 c7 40 08 00 00 00 00  movq     $0, 8(%rax)
0x4000a8d152:  48 89 c7                 movq     %rax, %rdi
0x4000a8d155:  48 85 d2                 testq    %rdx, %rdx
0x4000a8d158:  0f 84 9d 00 00 00        je       0x4000a8d1fb

----------------
IN: 
0x4000a8d1fb:  48 8d 70 10              leaq     0x10(%rax), %rsi
0x4000a8d1ff:  48 c7 40 08 01 00 00 00  movq     $1, 8(%rax)
0x4000a8d207:  eb 81                    jmp      0x4000a8d18a

----------------
IN: 
0x4000a8d18a:  48 c7 06 01 00 00 00     movq     $1, (%rsi)
0x4000a8d191:  48 83 05 a7 f2 38 00 01  addq     $1, 0x38f2a7(%rip)
0x4000a8d199:  83 3d a0 f5 38 00 00     cmpl     $0, 0x38f5a0(%rip)
0x4000a8d1a0:  74 0b                    je       0x4000a8d1ad

----------------
IN: 
0x4000a8d1ad:  ff 0d 9d be 38 00        decl     0x38be9d(%rip)
0x4000a8d1b3:  74 1a                    je       0x4000a8d1cf

----------------
IN: 
0x4000a8d1cf:  48 83 c4 08              addq     $8, %rsp
0x4000a8d1d3:  48 89 f0                 movq     %rsi, %rax
0x4000a8d1d6:  5b                       popq     %rbx
0x4000a8d1d7:  5d                       popq     %rbp
0x4000a8d1d8:  c3                       retq     

----------------
IN: 
0x4000a8d299:  48 85 c0                 testq    %rax, %rax
0x4000a8d29c:  74 2a                    je       0x4000a8d2c8

----------------
IN: 
0x4000a8d29e:  48 89 df                 movq     %rbx, %rdi
0x4000a8d2a1:  4c 89 60 10              movq     %r12, 0x10(%rax)
0x4000a8d2a5:  48 89 68 18              movq     %rbp, 0x18(%rax)
0x4000a8d2a9:  64 48 33 3c 25 30 00 00  xorq     %fs:0x30, %rdi
0x4000a8d2b1:  00
0x4000a8d2b2:  48 c1 c7 11              rolq     $0x11, %rdi
0x4000a8d2b6:  48 89 78 08              movq     %rdi, 8(%rax)
0x4000a8d2ba:  48 c7 00 04 00 00 00     movq     $4, (%rax)
0x4000a8d2c1:  31 c0                    xorl     %eax, %eax
0x4000a8d2c3:  5b                       popq     %rbx
0x4000a8d2c4:  5d                       popq     %rbp
0x4000a8d2c5:  41 5c                    popq     %r12
0x4000a8d2c7:  c3                       retq     

----------------
IN: 
0x4000a73793:  48 8b 15 d6 36 3a 00     movq     0x3a36d6(%rip), %rdx
0x4000a7379a:  8b 1a                    movl     (%rdx), %ebx
0x4000a7379c:  83 e3 02                 andl     $2, %ebx
0x4000a7379f:  0f 85 d1 00 00 00        jne      0x4000a73876

----------------
IN: 
0x4000a737a5:  48 85 ed                 testq    %rbp, %rbp
0x4000a737a8:  74 15                    je       0x4000a737bf

----------------
IN: 
0x4000a737aa:  48 8b 05 07 37 3a 00     movq     0x3a3707(%rip), %rax
0x4000a737b1:  48 8b 74 24 08           movq     8(%rsp), %rsi
0x4000a737b6:  8b 7c 24 14              movl     0x14(%rsp), %edi
0x4000a737ba:  48 8b 10                 movq     (%rax), %rdx
0x4000a737bd:  ff d5                    callq    *%rbp

----------------
IN: __libc_csu_init
0x00400ce0:  41 57                    pushq    %r15
0x00400ce2:  41 56                    pushq    %r14
0x00400ce4:  41 89 ff                 movl     %edi, %r15d
0x00400ce7:  41 55                    pushq    %r13
0x00400ce9:  41 54                    pushq    %r12
0x00400ceb:  4c 8d 25 1e 11 20 00     leaq     0x20111e(%rip), %r12
0x00400cf2:  55                       pushq    %rbp
0x00400cf3:  48 8d 2d 1e 11 20 00     leaq     0x20111e(%rip), %rbp
0x00400cfa:  53                       pushq    %rbx
0x00400cfb:  49 89 f6                 movq     %rsi, %r14
0x00400cfe:  49 89 d5                 movq     %rdx, %r13
0x00400d01:  4c 29 e5                 subq     %r12, %rbp
0x00400d04:  48 83 ec 08              subq     $8, %rsp
0x00400d08:  48 c1 fd 03              sarq     $3, %rbp
0x00400d0c:  e8 9f f8 ff ff           callq    0x4005b0

----------------
IN: 
0x004005b0:  48 83 ec 08              subq     $8, %rsp
0x004005b4:  48 8b 05 3d 1a 20 00     movq     0x201a3d(%rip), %rax
0x004005bb:  48 85 c0                 testq    %rax, %rax
0x004005be:  74 05                    je       0x4005c5

----------------
IN: 
0x004005c5:  48 83 c4 08              addq     $8, %rsp
0x004005c9:  c3                       retq     

----------------
IN: __libc_csu_init
0x00400d11:  48 85 ed                 testq    %rbp, %rbp
0x00400d14:  74 20                    je       0x400d36

----------------
IN: __libc_csu_init
0x00400d16:  31 db                    xorl     %ebx, %ebx
0x00400d18:  0f 1f 84 00 00 00 00 00  nopl     (%rax, %rax)
0x00400d20:  4c 89 ea                 movq     %r13, %rdx
0x00400d23:  4c 89 f6                 movq     %r14, %rsi
0x00400d26:  44 89 ff                 movl     %r15d, %edi
0x00400d29:  41 ff 14 dc              callq    *(%r12, %rbx, 8)

----------------
IN: 
0x00400760:  bf 20 1e 60 00           movl     $0x601e20, %edi
0x00400765:  48 83 3f 00              cmpq     $0, (%rdi)
0x00400769:  75 05                    jne      0x400770

----------------
IN: 
0x0040076b:  eb 93                    jmp      0x400700

----------------
IN: 
0x00400700:  be 78 20 60 00           movl     $0x602078, %esi
0x00400705:  55                       pushq    %rbp
0x00400706:  48 81 ee 78 20 60 00     subq     $0x602078, %rsi
0x0040070d:  48 c1 fe 03              sarq     $3, %rsi
0x00400711:  48 89 e5                 movq     %rsp, %rbp
0x00400714:  48 89 f0                 movq     %rsi, %rax
0x00400717:  48 c1 e8 3f              shrq     $0x3f, %rax
0x0040071b:  48 01 c6                 addq     %rax, %rsi
0x0040071e:  48 d1 fe                 sarq     $1, %rsi
0x00400721:  74 15                    je       0x400738

----------------
IN: 
0x00400738:  5d                       popq     %rbp
0x00400739:  c3                       retq     

----------------
IN: __libc_csu_init
0x00400d2d:  48 83 c3 01              addq     $1, %rbx
0x00400d31:  48 39 eb                 cmpq     %rbp, %rbx
0x00400d34:  75 ea                    jne      0x400d20

----------------
IN: __libc_csu_init
0x00400d36:  48 83 c4 08              addq     $8, %rsp
0x00400d3a:  5b                       popq     %rbx
0x00400d3b:  5d                       popq     %rbp
0x00400d3c:  41 5c                    popq     %r12
0x00400d3e:  41 5d                    popq     %r13
0x00400d40:  41 5e                    popq     %r14
0x00400d42:  41 5f                    popq     %r15
0x00400d44:  c3                       retq     

----------------
IN: 
0x4000a737bf:  48 8b 05 aa 36 3a 00     movq     0x3a36aa(%rip), %rax
0x4000a737c6:  44 8b b0 70 01 00 00     movl     0x170(%rax), %r14d
0x4000a737cd:  45 85 f6                 testl    %r14d, %r14d
0x4000a737d0:  0f 85 f5 00 00 00        jne      0x4000a738cb

----------------
IN: 
0x4000a737d6:  85 db                    testl    %ebx, %ebx
0x4000a737d8:  0f 85 ca 00 00 00        jne      0x4000a738a8

----------------
IN: 
0x4000a737de:  48 8d 7c 24 20           leaq     0x20(%rsp), %rdi
0x4000a737e3:  e8 68 4a 01 00           callq    0x4000a88250

----------------
IN: 
0x4000a88250:  31 f6                    xorl     %esi, %esi
0x4000a88252:  e9 59 ff ff ff           jmp      0x4000a881b0

----------------
IN: 
0x4000a881b0:  48 89 1f                 movq     %rbx, (%rdi)
0x4000a881b3:  48 89 e8                 movq     %rbp, %rax
0x4000a881b6:  64 48 33 04 25 30 00 00  xorq     %fs:0x30, %rax
0x4000a881be:  00
0x4000a881bf:  48 c1 c0 11              rolq     $0x11, %rax
0x4000a881c3:  48 89 47 08              movq     %rax, 8(%rdi)
0x4000a881c7:  4c 89 67 10              movq     %r12, 0x10(%rdi)
0x4000a881cb:  4c 89 6f 18              movq     %r13, 0x18(%rdi)
0x4000a881cf:  4c 89 77 20              movq     %r14, 0x20(%rdi)
0x4000a881d3:  4c 89 7f 28              movq     %r15, 0x28(%rdi)
0x4000a881d7:  48 8d 54 24 08           leaq     8(%rsp), %rdx
0x4000a881dc:  64 48 33 14 25 30 00 00  xorq     %fs:0x30, %rdx
0x4000a881e4:  00
0x4000a881e5:  48 c1 c2 11              rolq     $0x11, %rdx
0x4000a881e9:  48 89 57 30              movq     %rdx, 0x30(%rdi)
0x4000a881ed:  48 8b 04 24              movq     (%rsp), %rax
0x4000a881f1:  90                       nop      
0x4000a881f2:  64 48 33 04 25 30 00 00  xorq     %fs:0x30, %rax
0x4000a881fa:  00
0x4000a881fb:  48 c1 c0 11              rolq     $0x11, %rax
0x4000a881ff:  48 89 47 38              movq     %rax, 0x38(%rdi)
0x4000a88203:  e9 08 00 00 00           jmp      0x4000a88210

----------------
IN: 
0x4000a88210:  31 c0                    xorl     %eax, %eax
0x4000a88212:  85 f6                    testl    %esi, %esi
0x4000a88214:  53                       pushq    %rbx
0x4000a88215:  48 89 fb                 movq     %rdi, %rbx
0x4000a88218:  74 15                    je       0x4000a8822f

----------------
IN: 
0x4000a8822f:  89 43 40                 movl     %eax, 0x40(%rbx)
0x4000a88232:  31 c0                    xorl     %eax, %eax
0x4000a88234:  5b                       popq     %rbx
0x4000a88235:  c3                       retq     

----------------
IN: 
0x4000a737e8:  85 c0                    testl    %eax, %eax
0x4000a737ea:  75 52                    jne      0x4000a7383e

----------------
IN: 
0x4000a737ec:  64 48 8b 04 25 00 03 00  movq     %fs:0x300, %rax
0x4000a737f4:  00
0x4000a737f5:  48 89 44 24 68           movq     %rax, 0x68(%rsp)
0x4000a737fa:  64 48 8b 04 25 f8 02 00  movq     %fs:0x2f8, %rax
0x4000a73802:  00
0x4000a73803:  48 89 44 24 70           movq     %rax, 0x70(%rsp)
0x4000a73808:  48 8d 44 24 20           leaq     0x20(%rsp), %rax
0x4000a7380d:  64 48 89 04 25 00 03 00  movq     %rax, %fs:0x300
0x4000a73815:  00
0x4000a73816:  48 8b 05 9b 36 3a 00     movq     0x3a369b(%rip), %rax
0x4000a7381d:  48 8b 74 24 08           movq     8(%rsp), %rsi
0x4000a73822:  8b 7c 24 14              movl     0x14(%rsp), %edi
0x4000a73826:  48 8b 10                 movq     (%rax), %rdx
0x4000a73829:  48 8b 44 24 18           movq     0x18(%rsp), %rax
0x4000a7382e:  ff d0                    callq    *%rax

----------------
IN: main
0x00400bed:  55                       pushq    %rbp
0x00400bee:  48 89 e5                 movq     %rsp, %rbp
0x00400bf1:  48 83 ec 60              subq     $0x60, %rsp
0x00400bf5:  89 7d ac                 movl     %edi, -0x54(%rbp)
0x00400bf8:  48 89 75 a0              movq     %rsi, -0x60(%rbp)
0x00400bfc:  64 48 8b 04 25 28 00 00  movq     %fs:0x28, %rax
0x00400c04:  00
0x00400c05:  48 89 45 f8              movq     %rax, -8(%rbp)
0x00400c09:  31 c0                    xorl     %eax, %eax
0x00400c0b:  bf 00 00 00 00           movl     $0, %edi
0x00400c10:  e8 3b fa ff ff           callq    0x400650

----------------
IN: 
0x00400650:  ff 25 fa 19 20 00        jmpq     *0x2019fa(%rip)

----------------
IN: 
0x00400656:  68 07 00 00 00           pushq    $7
0x0040065b:  e9 70 ff ff ff           jmp      0x4005d0

----------------
IN: 
0x4000810ba0:  ff d0                    callq    *%rax

----------------
IN: 
0x4000810ba2:  e9 66 ff ff ff           jmp      0x4000810b0d

----------------
IN: 
0x4000b0f370:  b8 c9 00 00 00           movl     $0xc9, %eax
0x4000b0f375:  0f 05                    syscall  

----------------
IN: 
0x4000b0f377:  c3                       retq     

----------------
IN: main
0x00400c15:  89 c7                    movl     %eax, %edi
0x00400c17:  e8 24 fa ff ff           callq    0x400640

----------------
IN: 
0x00400640:  ff 25 02 1a 20 00        jmpq     *0x201a02(%rip)

----------------
IN: 
0x00400646:  68 06 00 00 00           pushq    $6
0x0040064b:  e9 80 ff ff ff           jmp      0x4005d0

----------------
IN: 
0x4000a8d8d0:  48 83 ec 08              subq     $8, %rsp
0x4000a8d8d4:  89 fa                    movl     %edi, %edx
0x4000a8d8d6:  be 01 00 00 00           movl     $1, %esi
0x4000a8d8db:  31 c0                    xorl     %eax, %eax
0x4000a8d8dd:  83 3d 5c ee 38 00 00     cmpl     $0, 0x38ee5c(%rip)
0x4000a8d8e4:  74 0c                    je       0x4000a8d8f2

----------------
IN: 
0x4000a8d8f2:  0f b1 35 87 bb 38 00     cmpxchgl %esi, 0x38bb87(%rip)
0x4000a8d8f9:  74 1a                    je       0x4000a8d915

----------------
IN: 
0x4000a8d915:  48 8d 35 04 9d 38 00     leaq     0x389d04(%rip), %rsi
0x4000a8d91c:  89 d7                    movl     %edx, %edi
0x4000a8d91e:  e8 bd 03 00 00           callq    0x4000a8dce0

----------------
IN: 
0x4000a8dce0:  41 54                    pushq    %r12
0x4000a8dce2:  55                       pushq    %rbp
0x4000a8dce3:  53                       pushq    %rbx
0x4000a8dce4:  48 83 ec 10              subq     $0x10, %rsp
0x4000a8dce8:  48 85 f6                 testq    %rsi, %rsi
0x4000a8dceb:  0f 84 c5 00 00 00        je       0x4000a8ddb6

----------------
IN: 
0x4000a8dcf1:  8b 56 18                 movl     0x18(%rsi), %edx
0x4000a8dcf4:  83 fa 04                 cmpl     $4, %edx
0x4000a8dcf7:  0f 87 b9 00 00 00        ja       0x4000a8ddb6

----------------
IN: 
0x4000a8dcfd:  4c 8b 46 10              movq     0x10(%rsi), %r8
0x4000a8dd01:  85 ff                    testl    %edi, %edi
0x4000a8dd03:  b8 01 00 00 00           movl     $1, %eax
0x4000a8dd08:  0f 44 f8                 cmovel   %eax, %edi
0x4000a8dd0b:  85 d2                    testl    %edx, %edx
0x4000a8dd0d:  41 89 38                 movl     %edi, (%r8)
0x4000a8dd10:  0f 84 95 00 00 00        je       0x4000a8ddab

----------------
IN: 
0x4000a8dd16:  4c 63 4e 1c              movslq   0x1c(%rsi), %r9
0x4000a8dd1a:  b9 01 00 00 00           movl     $1, %ecx
0x4000a8dd1f:  41 ba 5f 0b 4e 83        movl     $0x834e0b5f, %r10d
0x4000a8dd25:  49 83 f9 01              cmpq     $1, %r9
0x4000a8dd29:  4d 89 cb                 movq     %r9, %r11
0x4000a8dd2c:  7e 41                    jle      0x4000a8dd6f

----------------
IN: 
0x4000a8dd2e:  66 90                    nop      
0x4000a8dd30:  89 f8                    movl     %edi, %eax
0x4000a8dd32:  41 f7 ea                 imull    %r10d
0x4000a8dd35:  89 f8                    movl     %edi, %eax
0x4000a8dd37:  c1 f8 1f                 sarl     $0x1f, %eax
0x4000a8dd3a:  01 fa                    addl     %edi, %edx
0x4000a8dd3c:  c1 fa 10                 sarl     $0x10, %edx
0x4000a8dd3f:  29 c2                    subl     %eax, %edx
0x4000a8dd41:  69 c2 1d f3 01 00        imull    $0x1f31d, %edx, %eax
0x4000a8dd47:  69 d2 ec f4 ff ff        imull    $0xfffff4ec, %edx, %edx
0x4000a8dd4d:  29 c7                    subl     %eax, %edi
0x4000a8dd4f:  69 c7 a7 41 00 00        imull    $0x41a7, %edi, %eax
0x4000a8dd55:  01 d0                    addl     %edx, %eax
0x4000a8dd57:  8d b8 ff ff ff 7f        leal     0x7fffffff(%rax), %edi
0x4000a8dd5d:  85 c0                    testl    %eax, %eax
0x4000a8dd5f:  0f 49 f8                 cmovnsl  %eax, %edi
0x4000a8dd62:  41 89 3c 88              movl     %edi, (%r8, %rcx, 4)
0x4000a8dd66:  48 83 c1 01              addq     $1, %rcx
0x4000a8dd6a:  4c 39 c9                 cmpq     %r9, %rcx
0x4000a8dd6d:  75 c1                    jne      0x4000a8dd30

----------------
IN: 
0x4000a8dd30:  89 f8                    movl     %edi, %eax
0x4000a8dd32:  41 f7 ea                 imull    %r10d
0x4000a8dd35:  89 f8                    movl     %edi, %eax
0x4000a8dd37:  c1 f8 1f                 sarl     $0x1f, %eax
0x4000a8dd3a:  01 fa                    addl     %edi, %edx
0x4000a8dd3c:  c1 fa 10                 sarl     $0x10, %edx
0x4000a8dd3f:  29 c2                    subl     %eax, %edx
0x4000a8dd41:  69 c2 1d f3 01 00        imull    $0x1f31d, %edx, %eax
0x4000a8dd47:  69 d2 ec f4 ff ff        imull    $0xfffff4ec, %edx, %edx
0x4000a8dd4d:  29 c7                    subl     %eax, %edi
0x4000a8dd4f:  69 c7 a7 41 00 00        imull    $0x41a7, %edi, %eax
0x4000a8dd55:  01 d0                    addl     %edx, %eax
0x4000a8dd57:  8d b8 ff ff ff 7f        leal     0x7fffffff(%rax), %edi
0x4000a8dd5d:  85 c0                    testl    %eax, %eax
0x4000a8dd5f:  0f 49 f8                 cmovnsl  %eax, %edi
0x4000a8dd62:  41 89 3c 88              movl     %edi, (%r8, %rcx, 4)
0x4000a8dd66:  48 83 c1 01              addq     $1, %rcx
0x4000a8dd6a:  4c 39 c9                 cmpq     %r9, %rcx
0x4000a8dd6d:  75 c1                    jne      0x4000a8dd30

----------------
IN: 
0x4000a8dd6f:  48 63 46 20              movslq   0x20(%rsi), %rax
0x4000a8dd73:  48 89 f5                 movq     %rsi, %rbp
0x4000a8dd76:  4c 89 46 08              movq     %r8, 8(%rsi)
0x4000a8dd7a:  4c 8d 64 24 0c           leaq     0xc(%rsp), %r12
0x4000a8dd7f:  49 8d 04 80              leaq     (%r8, %rax, 4), %rax
0x4000a8dd83:  48 89 06                 movq     %rax, (%rsi)
0x4000a8dd86:  43 8d 04 9b              leal     (%r11, %r11, 4), %eax
0x4000a8dd8a:  8d 5c 00 ff              leal     -1(%rax, %rax), %ebx
0x4000a8dd8e:  85 db                    testl    %ebx, %ebx
0x4000a8dd90:  78 19                    js       0x4000a8ddab

----------------
IN: 
0x4000a8dd92:  66 0f 1f 44 00 00        nopw     (%rax, %rax)
0x4000a8dd98:  4c 89 e6                 movq     %r12, %rsi
0x4000a8dd9b:  48 89 ef                 movq     %rbp, %rdi
0x4000a8dd9e:  83 eb 01                 subl     $1, %ebx
0x4000a8dda1:  e8 9a fe ff ff           callq    0x4000a8dc40

----------------
IN: 
0x4000a8dc40:  48 85 ff                 testq    %rdi, %rdi
0x4000a8dc43:  74 7b                    je       0x4000a8dcc0

----------------
IN: 
0x4000a8dc45:  48 85 f6                 testq    %rsi, %rsi
0x4000a8dc48:  74 76                    je       0x4000a8dcc0

----------------
IN: 
0x4000a8dc4a:  8b 47 18                 movl     0x18(%rdi), %eax
0x4000a8dc4d:  4c 8b 47 10              movq     0x10(%rdi), %r8
0x4000a8dc51:  85 c0                    testl    %eax, %eax
0x4000a8dc53:  74 4b                    je       0x4000a8dca0

----------------
IN: 
0x4000a8dc55:  48 8b 07                 movq     (%rdi), %rax
0x4000a8dc58:  48 8b 4f 08              movq     8(%rdi), %rcx
0x4000a8dc5c:  4c 8b 4f 28              movq     0x28(%rdi), %r9
0x4000a8dc60:  8b 11                    movl     (%rcx), %edx
0x4000a8dc62:  03 10                    addl     (%rax), %edx
0x4000a8dc64:  48 83 c0 04              addq     $4, %rax
0x4000a8dc68:  89 50 fc                 movl     %edx, -4(%rax)
0x4000a8dc6b:  d1 ea                    shrl     $1, %edx
0x4000a8dc6d:  49 39 c1                 cmpq     %rax, %r9
0x4000a8dc70:  89 16                    movl     %edx, (%rsi)
0x4000a8dc72:  48 8d 51 04              leaq     4(%rcx), %rdx
0x4000a8dc76:  76 18                    jbe      0x4000a8dc90

----------------
IN: 
0x4000a8dc78:  49 39 d1                 cmpq     %rdx, %r9
0x4000a8dc7b:  48 89 07                 movq     %rax, (%rdi)
0x4000a8dc7e:  49 0f 46 d0              cmovbeq  %r8, %rdx
0x4000a8dc82:  31 c0                    xorl     %eax, %eax
0x4000a8dc84:  48 89 57 08              movq     %rdx, 8(%rdi)
0x4000a8dc88:  c3                       retq     

----------------
IN: 
0x4000a8dda6:  83 fb ff                 cmpl     $0xff, %ebx
0x4000a8dda9:  75 ed                    jne      0x4000a8dd98

----------------
IN: 
0x4000a8dd98:  4c 89 e6                 movq     %r12, %rsi
0x4000a8dd9b:  48 89 ef                 movq     %rbp, %rdi
0x4000a8dd9e:  83 eb 01                 subl     $1, %ebx
0x4000a8dda1:  e8 9a fe ff ff           callq    0x4000a8dc40

----------------
IN: 
0x4000a8dc90:  4c 89 c0                 movq     %r8, %rax
0x4000a8dc93:  48 89 57 08              movq     %rdx, 8(%rdi)
0x4000a8dc97:  48 89 07                 movq     %rax, (%rdi)
0x4000a8dc9a:  31 c0                    xorl     %eax, %eax
0x4000a8dc9c:  c3                       retq     

----------------
IN: 
0x4000a8ddab:  31 c0                    xorl     %eax, %eax
0x4000a8ddad:  48 83 c4 10              addq     $0x10, %rsp
0x4000a8ddb1:  5b                       popq     %rbx
0x4000a8ddb2:  5d                       popq     %rbp
0x4000a8ddb3:  41 5c                    popq     %r12
0x4000a8ddb5:  c3                       retq     

----------------
IN: 
0x4000a8d923:  83 3d 16 ee 38 00 00     cmpl     $0, 0x38ee16(%rip)
0x4000a8d92a:  74 0b                    je       0x4000a8d937

----------------
IN: 
0x4000a8d937:  ff 0d 43 bb 38 00        decl     0x38bb43(%rip)
0x4000a8d93d:  74 1a                    je       0x4000a8d959

----------------
IN: 
0x4000a8d959:  48 83 c4 08              addq     $8, %rsp
0x4000a8d95d:  c3                       retq     

----------------
IN: main
0x00400c1c:  c7 45 bc 10 27 00 00     movl     $0x2710, -0x44(%rbp)
0x00400c23:  8b 45 bc                 movl     -0x44(%rbp), %eax
0x00400c26:  89 c7                    movl     %eax, %edi
0x00400c28:  e8 42 ff ff ff           callq    0x400b6f

----------------
IN: init_array
0x00400b6f:  55                       pushq    %rbp
0x00400b70:  48 89 e5                 movq     %rsp, %rbp
0x00400b73:  53                       pushq    %rbx
0x00400b74:  48 83 ec 28              subq     $0x28, %rsp
0x00400b78:  89 7d dc                 movl     %edi, -0x24(%rbp)
0x00400b7b:  8b 45 dc                 movl     -0x24(%rbp), %eax
0x00400b7e:  48 98                    cltq     
0x00400b80:  48 c1 e0 02              shlq     $2, %rax
0x00400b84:  48 89 c7                 movq     %rax, %rdi
0x00400b87:  e8 d4 fa ff ff           callq    0x400660

----------------
IN: 
0x00400660:  ff 25 f2 19 20 00        jmpq     *0x2019f2(%rip)

----------------
IN: 
0x00400666:  68 08 00 00 00           pushq    $8
0x0040066b:  e9 60 ff ff ff           jmp      0x4005d0

----------------
IN: 
0x4000ad7130:  55                       pushq    %rbp
0x4000ad7131:  53                       pushq    %rbx
0x4000ad7132:  48 83 ec 08              subq     $8, %rsp
0x4000ad7136:  48 8b 05 b3 fd 33 00     movq     0x33fdb3(%rip), %rax
0x4000ad713d:  48 8b 00                 movq     (%rax), %rax
0x4000ad7140:  48 85 c0                 testq    %rax, %rax
0x4000ad7143:  0f 85 4f 01 00 00        jne      0x4000ad7298

----------------
IN: 
0x4000ad7298:  48 8b 74 24 18           movq     0x18(%rsp), %rsi
0x4000ad729d:  48 83 c4 08              addq     $8, %rsp
0x4000ad72a1:  5b                       popq     %rbx
0x4000ad72a2:  5d                       popq     %rbp
0x4000ad72a3:  ff e0                    jmpq     *%rax

----------------
IN: 
0x4000ad8830:  55                       pushq    %rbp
0x4000ad8831:  53                       pushq    %rbx
0x4000ad8832:  48 89 fd                 movq     %rdi, %rbp
0x4000ad8835:  48 83 ec 08              subq     $8, %rsp
0x4000ad8839:  8b 05 05 e9 33 00        movl     0x33e905(%rip), %eax
0x4000ad883f:  48 8b 1d aa e6 33 00     movq     0x33e6aa(%rip), %rbx
0x4000ad8846:  85 c0                    testl    %eax, %eax
0x4000ad8848:  48 c7 03 00 00 00 00     movq     $0, (%rbx)
0x4000ad884f:  0f 88 53 01 00 00        js       0x4000ad89a8

----------------
IN: 
0x4000ad89a8:  e8 b3 fa ff ff           callq    0x4000ad8460

----------------
IN: 
0x4000ad8460:  41 56                    pushq    %r14
0x4000ad8462:  41 55                    pushq    %r13
0x4000ad8464:  41 54                    pushq    %r12
0x4000ad8466:  55                       pushq    %rbp
0x4000ad8467:  53                       pushq    %rbx
0x4000ad8468:  48 83 ec 30              subq     $0x30, %rsp
0x4000ad846c:  48 83 3d 6c 3e 34 00 00  cmpq     $0, 0x343e6c(%rip)
0x4000ad8474:  c7 05 c6 ec 33 00 00 00  movl     $0, 0x33ecc6(%rip)
0x4000ad847c:  00 00
0x4000ad847e:  0f 84 2a 01 00 00        je       0x4000ad85ae

----------------
IN: 
0x4000ad85ae:  48 8d 54 24 08           leaq     8(%rsp), %rdx
0x4000ad85b3:  48 8d 74 24 10           leaq     0x10(%rsp), %rsi
0x4000ad85b8:  48 8d 3d 51 02 00 00     leaq     0x251(%rip), %rdi
0x4000ad85bf:  31 c9                    xorl     %ecx, %ecx
0x4000ad85c1:  e8 0a dc 0b 00           callq    0x4000b961d0

----------------
IN: 
0x4000b961d0:  41 57                    pushq    %r15
0x4000b961d2:  41 56                    pushq    %r14
0x4000b961d4:  41 55                    pushq    %r13
0x4000b961d6:  41 54                    pushq    %r12
0x4000b961d8:  49 89 f4                 movq     %rsi, %r12
0x4000b961db:  55                       pushq    %rbp
0x4000b961dc:  53                       pushq    %rbx
0x4000b961dd:  48 89 fb                 movq     %rdi, %rbx
0x4000b961e0:  48 83 ec 28              subq     $0x28, %rsp
0x4000b961e4:  4c 8b 2d 15 0c 28 00     movq     0x280c15(%rip), %r13
0x4000b961eb:  48 89 54 24 08           movq     %rdx, 8(%rsp)
0x4000b961f0:  48 89 4c 24 10           movq     %rcx, 0x10(%rsp)
0x4000b961f5:  49 8d bd 08 09 00 00     leaq     0x908(%r13), %rdi
0x4000b961fc:  41 ff 95 08 0f 00 00     callq    *0xf08(%r13)

----------------
IN: 
0x4000b96203:  48 89 df                 movq     %rbx, %rdi
0x4000b96206:  e8 45 c6 ed ff           callq    0x4000a72850

----------------
IN: 
0x4000a72850:  ff 25 02 48 3a 00        jmpq     *0x3a4802(%rip)

----------------
IN: 
0x4000a72856:  68 03 00 00 00           pushq    $3
0x4000a7285b:  e9 60 ff ff ff           jmp      0x4000a727c0

----------------
IN: 
0x4000a727c0:  ff 35 42 48 3a 00        pushq    0x3a4842(%rip)
0x4000a727c6:  ff 25 44 48 3a 00        jmpq     *0x3a4844(%rip)

----------------
IN: 
0x400081dbf0:  66 0f ef c0              pxor     %xmm0, %xmm0
0x400081dbf4:  66 0f 6f 17              movdqa   (%rdi), %xmm2
0x400081dbf8:  66 0f 6f 0e              movdqa   (%rsi), %xmm1
0x400081dbfc:  66 0f 74 c1              pcmpeqb  %xmm1, %xmm0
0x400081dc00:  66 0f 73 fa 02           pslldq   $2, %xmm2
0x400081dc05:  66 0f 74 d1              pcmpeqb  %xmm1, %xmm2
0x400081dc09:  66 0f f8 d0              psubb    %xmm0, %xmm2
0x400081dc0d:  66 44 0f d7 ca           pmovmskb %xmm2, %r9d
0x400081dc12:  d3 ea                    shrl     %cl, %edx
0x400081dc14:  41 d3 e9                 shrl     %cl, %r9d
0x400081dc17:  44 29 ca                 subl     %r9d, %edx
0x400081dc1a:  0f 85 55 02 00 00        jne      0x400081de75

----------------
IN: 
0x400081dc20:  66 0f 6f 1f              movdqa   (%rdi), %xmm3
0x400081dc24:  66 0f ef c0              pxor     %xmm0, %xmm0
0x400081dc28:  48 c7 c1 10 00 00 00     movq     $0x10, %rcx
0x400081dc2f:  41 b9 0e 00 00 00        movl     $0xe, %r9d
0x400081dc35:  4c 8d 57 0e              leaq     0xe(%rdi), %r10
0x400081dc39:  49 81 e2 ff 0f 00 00     andq     $0xfff, %r10
0x400081dc40:  49 81 ea 00 10 00 00     subq     $0x1000, %r10
0x400081dc47:  66 0f 1f 84 00 00 00 00  nopw     (%rax, %rax)
0x400081dc4f:  00
0x400081dc50:  49 83 c2 10              addq     $0x10, %r10
0x400081dc54:  0f 8f 96 00 00 00        jg       0x400081dcf0

----------------
IN: 
0x400081dc5a:  66 0f 6f 0c 0e           movdqa   (%rsi, %rcx), %xmm1
0x400081dc5f:  66 0f 6f 14 0f           movdqa   (%rdi, %rcx), %xmm2
0x400081dc64:  66 0f 6f e2              movdqa   %xmm2, %xmm4
0x400081dc68:  66 0f 73 db 0e           psrldq   $0xe, %xmm3
0x400081dc6d:  66 0f 73 fa 02           pslldq   $2, %xmm2
0x400081dc72:  66 0f eb d3              por      %xmm3, %xmm2
0x400081dc76:  66 0f 74 c1              pcmpeqb  %xmm1, %xmm0
0x400081dc7a:  66 0f 74 ca              pcmpeqb  %xmm2, %xmm1
0x400081dc7e:  66 0f f8 c8              psubb    %xmm0, %xmm1
0x400081dc82:  66 0f d7 d1              pmovmskb %xmm1, %edx
0x400081dc86:  81 ea ff ff 00 00        subl     $0xffff, %edx
0x400081dc8c:  0f 85 de 01 00 00        jne      0x400081de70

----------------
IN: 
0x4000815c00:  4c 8b 1d 39 1d 21 00     movq     0x211d39(%rip), %r11
0x4000815c07:  4d 85 db                 testq    %r11, %r11
0x4000815c0a:  0f 84 b1 00 00 00        je       0x4000815cc1

----------------
IN: 
0x4000815c10:  4c 8d 15 29 14 21 00     leaq     0x211429(%rip), %r10
0x4000815c17:  45 31 c9                 xorl     %r9d, %r9d
0x4000815c1a:  49 8b 02                 movq     (%r10), %rax
0x4000815c1d:  48 85 c0                 testq    %rax, %rax
0x4000815c20:  0f 84 87 00 00 00        je       0x4000815cad

----------------
IN: 
0x4000815c26:  66 2e 0f 1f 84 00 00 00  nopw     %cs:(%rax, %rax)
0x4000815c2e:  00 00
0x4000815c30:  48 39 b8 40 03 00 00     cmpq     %rdi, 0x340(%rax)
0x4000815c37:  77 67                    ja       0x4000815ca0

----------------
IN: 
0x4000815c39:  48 3b b8 48 03 00 00     cmpq     0x348(%rax), %rdi
0x4000815c40:  73 5e                    jae      0x4000815ca0

----------------
IN: 
0x4000815ca0:  48 8b 40 18              movq     0x18(%rax), %rax
0x4000815ca4:  48 85 c0                 testq    %rax, %rax
0x4000815ca7:  0f 85 83 ff ff ff        jne      0x4000815c30

----------------
IN: 
0x4000815c30:  48 39 b8 40 03 00 00     cmpq     %rdi, 0x340(%rax)
0x4000815c37:  77 67                    ja       0x4000815ca0

----------------
IN: 
0x4000815c42:  f6 80 15 03 00 00 40     testb    $0x40, 0x315(%rax)
0x4000815c49:  75 4b                    jne      0x4000815c96

----------------
IN: 
0x4000815c96:  4c 39 48 30              cmpq     %r9, 0x30(%rax)
0x4000815c9a:  75 28                    jne      0x4000815cc4

----------------
IN: 
0x4000815c9c:  f3 c3                    retq     

----------------
IN: 
0x4000b9620b:  48 85 c0                 testq    %rax, %rax
0x4000b9620e:  0f 84 58 02 00 00        je       0x4000b9646c

----------------
IN: 
0x4000b96214:  48 8b 50 08              movq     8(%rax), %rdx
0x4000b96218:  48 8b 88 40 03 00 00     movq     0x340(%rax), %rcx
0x4000b9621f:  49 89 14 24              movq     %rdx, (%r12)
0x4000b96223:  49 89 4c 24 08           movq     %rcx, 8(%r12)
0x4000b96228:  80 3a 00                 cmpb     $0, (%rdx)
0x4000b9622b:  0f 84 42 02 00 00        je       0x4000b96473

----------------
IN: 
0x4000b96231:  48 8b 50 70              movq     0x70(%rax), %rdx
0x4000b96235:  48 83 b8 98 02 00 00 00  cmpq     $0, 0x298(%rax)
0x4000b9623d:  4c 8b 5a 08              movq     8(%rdx), %r11
0x4000b96241:  48 8b 50 68              movq     0x68(%rax), %rdx
0x4000b96245:  48 8b 72 08              movq     8(%rdx), %rsi
0x4000b96249:  48 8b 90 90 00 00 00     movq     0x90(%rax), %rdx
0x4000b96250:  48 89 74 24 18           movq     %rsi, 0x18(%rsp)
0x4000b96255:  44 8b 7a 08              movl     8(%rdx), %r15d
0x4000b96259:  0f 84 3d 01 00 00        je       0x4000b9639c

----------------
IN: 
0x4000b9625f:  8b 90 ec 02 00 00        movl     0x2ec(%rax), %edx
0x4000b96265:  85 d2                    testl    %edx, %edx
0x4000b96267:  0f 84 29 02 00 00        je       0x4000b96496

----------------
IN: 
0x4000b9626d:  48 8b a8 00 03 00 00     movq     0x300(%rax), %rbp
0x4000b96274:  83 ea 01                 subl     $1, %edx
0x4000b96277:  31 f6                    xorl     %esi, %esi
0x4000b96279:  4c 8d 74 95 04           leaq     4(%rbp, %rdx, 4), %r14
0x4000b9627e:  66 90                    nop      
0x4000b96280:  8b 4d 00                 movl     (%rbp), %ecx
0x4000b96283:  85 c9                    testl    %ecx, %ecx
0x4000b96285:  0f 84 a5 00 00 00        je       0x4000b96330

----------------
IN: 
0x4000b96330:  48 83 c5 04              addq     $4, %rbp
0x4000b96334:  49 39 ee                 cmpq     %rbp, %r14
0x4000b96337:  0f 85 43 ff ff ff        jne      0x4000b96280

----------------
IN: 
0x4000b96280:  8b 4d 00                 movl     (%rbp), %ecx
0x4000b96283:  85 c9                    testl    %ecx, %ecx
0x4000b96285:  0f 84 a5 00 00 00        je       0x4000b96330

----------------
IN: 
0x4000b9628b:  48 8b b8 08 03 00 00     movq     0x308(%rax), %rdi
0x4000b96292:  89 ca                    movl     %ecx, %edx
0x4000b96294:  48 8d 3c 97              leaq     (%rdi, %rdx, 4), %rdi
0x4000b96298:  eb 25                    jmp      0x4000b962bf

----------------
IN: 
0x4000b962bf:  48 8d 14 52              leaq     (%rdx, %rdx, 2), %rdx
0x4000b962c3:  49 8d 14 d3              leaq     (%r11, %rdx, 8), %rdx
0x4000b962c7:  44 0f b7 4a 06           movzwl   6(%rdx), %r9d
0x4000b962cc:  66 45 85 c9              testw    %r9w, %r9w
0x4000b962d0:  75 07                    jne      0x4000b962d9

----------------
IN: 
0x4000b962d9:  44 0f b6 42 04           movzbl   4(%rdx), %r8d
0x4000b962de:  41 83 e0 0f              andl     $0xf, %r8d
0x4000b962e2:  41 80 f8 06              cmpb     $6, %r8b
0x4000b962e6:  74 c8                    je       0x4000b962b0

----------------
IN: 
0x4000b962e8:  4c 8b 52 08              movq     8(%rdx), %r10
0x4000b962ec:  4d 89 d0                 movq     %r10, %r8
0x4000b962ef:  4c 03 00                 addq     (%rax), %r8
0x4000b962f2:  4c 39 c3                 cmpq     %r8, %rbx
0x4000b962f5:  72 b9                    jb       0x4000b962b0

----------------
IN: 
0x4000b962f7:  66 45 85 c9              testw    %r9w, %r9w
0x4000b962fb:  75 a3                    jne      0x4000b962a0

----------------
IN: 
0x4000b962a0:  4c 8b 4a 10              movq     0x10(%rdx), %r9
0x4000b962a4:  4d 85 c9                 testq    %r9, %r9
0x4000b962a7:  75 5d                    jne      0x4000b96306

----------------
IN: 
0x4000b96306:  4d 01 c8                 addq     %r9, %r8
0x4000b96309:  4c 39 c3                 cmpq     %r8, %rbx
0x4000b9630c:  73 a2                    jae      0x4000b962b0

----------------
IN: 
0x4000b962b0:  48 83 c7 04              addq     $4, %rdi
0x4000b962b4:  83 c1 01                 addl     $1, %ecx
0x4000b962b7:  f6 47 fc 01              testb    $1, -4(%rdi)
0x4000b962bb:  75 73                    jne      0x4000b96330

----------------
IN: 
0x4000b962bd:  89 ca                    movl     %ecx, %edx
0x4000b962bf:  48 8d 14 52              leaq     (%rdx, %rdx, 2), %rdx
0x4000b962c3:  49 8d 14 d3              leaq     (%r11, %rdx, 8), %rdx
0x4000b962c7:  44 0f b7 4a 06           movzwl   6(%rdx), %r9d
0x4000b962cc:  66 45 85 c9              testw    %r9w, %r9w
0x4000b962d0:  75 07                    jne      0x4000b962d9

----------------
IN: 
0x4000b962a9:  4c 39 c3                 cmpq     %r8, %rbx
0x4000b962ac:  74 60                    je       0x4000b9630e

----------------
IN: 
0x4000b962ae:  66 90                    nop      
0x4000b962b0:  48 83 c7 04              addq     $4, %rdi
0x4000b962b4:  83 c1 01                 addl     $1, %ecx
0x4000b962b7:  f6 47 fc 01              testb    $1, -4(%rdi)
0x4000b962bb:  75 73                    jne      0x4000b96330

----------------
IN: 
0x4000b9633d:  48 8b 5c 24 08           movq     8(%rsp), %rbx
0x4000b96342:  48 85 db                 testq    %rbx, %rbx
0x4000b96345:  74 03                    je       0x4000b9634a

----------------
IN: 
0x4000b96347:  48 89 03                 movq     %rax, (%rbx)
0x4000b9634a:  48 8b 5c 24 10           movq     0x10(%rsp), %rbx
0x4000b9634f:  48 85 db                 testq    %rbx, %rbx
0x4000b96352:  74 03                    je       0x4000b96357

----------------
IN: 
0x4000b96357:  48 85 f6                 testq    %rsi, %rsi
0x4000b9635a:  0f 84 f0 00 00 00        je       0x4000b96450

----------------
IN: 
0x4000b96450:  49 c7 44 24 10 00 00 00  movq     $0, 0x10(%r12)
0x4000b96458:  00
0x4000b96459:  49 c7 44 24 18 00 00 00  movq     $0, 0x18(%r12)
0x4000b96461:  00
0x4000b96462:  bb 01 00 00 00           movl     $1, %ebx
0x4000b96467:  e9 11 ff ff ff           jmp      0x4000b9637d

----------------
IN: 
0x4000b9637d:  49 8d bd 08 09 00 00     leaq     0x908(%r13), %rdi
0x4000b96384:  41 ff 95 10 0f 00 00     callq    *0xf10(%r13)

----------------
IN: 
0x4000b9638b:  48 83 c4 28              addq     $0x28, %rsp
0x4000b9638f:  89 d8                    movl     %ebx, %eax
0x4000b96391:  5b                       popq     %rbx
0x4000b96392:  5d                       popq     %rbp
0x4000b96393:  41 5c                    popq     %r12
0x4000b96395:  41 5d                    popq     %r13
0x4000b96397:  41 5e                    popq     %r14
0x4000b96399:  41 5f                    popq     %r15
0x4000b9639b:  c3                       retq     

----------------
IN: 
0x4000ad85c6:  85 c0                    testl    %eax, %eax
0x4000ad85c8:  0f 84 c7 fe ff ff        je       0x4000ad8495

----------------
IN: 
0x4000ad85ce:  48 8b 44 24 08           movq     8(%rsp), %rax
0x4000ad85d3:  48 83 78 30 00           cmpq     $0, 0x30(%rax)
0x4000ad85d8:  0f 85 a6 fe ff ff        jne      0x4000ad8484

----------------
IN: 
0x4000ad85de:  e9 b2 fe ff ff           jmp      0x4000ad8495

----------------
IN: 
0x4000ad8495:  48 8b 05 f4 e8 33 00     movq     0x33e8f4(%rip), %rax
0x4000ad849c:  48 8d 0d 7d f6 33 00     leaq     0x33f67d(%rip), %rcx
0x4000ad84a3:  64 48 89 08              movq     %rcx, %fs:(%rax)
0x4000ad84a7:  48 8b 05 4a e9 33 00     movq     0x33e94a(%rip), %rax
0x4000ad84ae:  48 8b 28                 movq     (%rax), %rbp
0x4000ad84b1:  48 85 ed                 testq    %rbp, %rbp
0x4000ad84b4:  0f 84 a4 00 00 00        je       0x4000ad855e

----------------
IN: 
0x4000ad84ba:  45 31 e4                 xorl     %r12d, %r12d
0x4000ad84bd:  4c 8d 2d 24 25 10 00     leaq     0x102524(%rip), %r13
0x4000ad84c4:  eb 0e                    jmp      0x4000ad84d4

----------------
IN: 
0x4000ad84d4:  48 8b 5d 00              movq     (%rbp), %rbx
0x4000ad84d8:  48 85 db                 testq    %rbx, %rbx
0x4000ad84db:  74 73                    je       0x4000ad8550

----------------
IN: 
0x4000ad84dd:  80 3b 4d                 cmpb     $0x4d, (%rbx)
0x4000ad84e0:  75 ee                    jne      0x4000ad84d0

----------------
IN: 
0x4000ad84d0:  48 83 c5 08              addq     $8, %rbp
0x4000ad84d4:  48 8b 5d 00              movq     (%rbp), %rbx
0x4000ad84d8:  48 85 db                 testq    %rbx, %rbx
0x4000ad84db:  74 73                    je       0x4000ad8550

----------------
IN: 
0x4000ad84e2:  80 7b 01 41              cmpb     $0x41, 1(%rbx)
0x4000ad84e6:  75 e8                    jne      0x4000ad84d0

----------------
IN: 
0x4000ad84e8:  80 7b 02 4c              cmpb     $0x4c, 2(%rbx)
0x4000ad84ec:  75 e2                    jne      0x4000ad84d0

----------------
IN: 
0x4000ad8550:  4d 85 e4                 testq    %r12, %r12
0x4000ad8553:  74 09                    je       0x4000ad855e

----------------
IN: 
0x4000ad855e:  48 8b 05 63 e8 33 00     movq     0x33e863(%rip), %rax
0x4000ad8565:  48 8b 00                 movq     (%rax), %rax
0x4000ad8568:  48 85 c0                 testq    %rax, %rax
0x4000ad856b:  74 02                    je       0x4000ad856f

----------------
IN: 
0x4000ad856f:  c7 05 cb eb 33 00 01 00  movl     $1, 0x33ebcb(%rip)
0x4000ad8577:  00 00
0x4000ad8579:  48 83 c4 30              addq     $0x30, %rsp
0x4000ad857d:  5b                       popq     %rbx
0x4000ad857e:  5d                       popq     %rbp
0x4000ad857f:  41 5c                    popq     %r12
0x4000ad8581:  41 5d                    popq     %r13
0x4000ad8583:  41 5e                    popq     %r14
0x4000ad8585:  c3                       retq     

----------------
IN: 
0x4000ad89ad:  48 8b 03                 movq     (%rbx), %rax
0x4000ad89b0:  48 85 c0                 testq    %rax, %rax
0x4000ad89b3:  0f 84 a7 fe ff ff        je       0x4000ad8860

----------------
IN: 
0x4000ad8860:  48 8b 05 29 e5 33 00     movq     0x33e529(%rip), %rax
0x4000ad8867:  64 48 8b 18              movq     %fs:(%rax), %rbx
0x4000ad886b:  48 85 db                 testq    %rbx, %rbx
0x4000ad886e:  74 0c                    je       0x4000ad887c

----------------
IN: 
0x4000ad8870:  8b 43 04                 movl     4(%rbx), %eax
0x4000ad8873:  83 e0 04                 andl     $4, %eax
0x4000ad8876:  0f 84 94 00 00 00        je       0x4000ad8910

----------------
IN: 
0x4000ad8910:  be 01 00 00 00           movl     $1, %esi
0x4000ad8915:  83 3d 24 3e 34 00 00     cmpl     $0, 0x343e24(%rip)
0x4000ad891c:  74 08                    je       0x4000ad8926

----------------
IN: 
0x4000ad8926:  0f b1 33                 cmpxchgl %esi, (%rbx)
0x4000ad8929:  74 16                    je       0x4000ad8941

----------------
IN: 
0x4000ad8941:  e9 47 ff ff ff           jmp      0x4000ad888d

----------------
IN: 
0x4000ad888d:  48 89 ee                 movq     %rbp, %rsi
0x4000ad8890:  48 89 df                 movq     %rbx, %rdi
0x4000ad8893:  e8 e8 c2 ff ff           callq    0x4000ad4b80

----------------
IN: 
0x4000ad4b80:  48 83 fe bf              cmpq     $0xbf, %rsi
0x4000ad4b84:  0f 87 87 08 00 00        ja       0x4000ad5411

----------------
IN: 
0x4000ad4b8a:  48 89 f0                 movq     %rsi, %rax
0x4000ad4b8d:  41 57                    pushq    %r15
0x4000ad4b8f:  41 56                    pushq    %r14
0x4000ad4b91:  48 83 c0 17              addq     $0x17, %rax
0x4000ad4b95:  41 55                    pushq    %r13
0x4000ad4b97:  41 54                    pushq    %r12
0x4000ad4b99:  55                       pushq    %rbp
0x4000ad4b9a:  53                       pushq    %rbx
0x4000ad4b9b:  48 89 c5                 movq     %rax, %rbp
0x4000ad4b9e:  48 83 e5 f0              andq     $0xfffffff0, %rbp
0x4000ad4ba2:  48 89 fb                 movq     %rdi, %rbx
0x4000ad4ba5:  48 81 ec a8 00 00 00     subq     $0xa8, %rsp
0x4000ad4bac:  48 83 f8 20              cmpq     $0x20, %rax
0x4000ad4bb0:  b8 20 00 00 00           movl     $0x20, %eax
0x4000ad4bb5:  48 0f 42 e8              cmovbq   %rax, %rbp
0x4000ad4bb9:  48 85 ff                 testq    %rdi, %rdi
0x4000ad4bbc:  48 89 74 24 08           movq     %rsi, 8(%rsp)
0x4000ad4bc1:  0f 84 5e 08 00 00        je       0x4000ad5425

----------------
IN: 
0x4000ad4bc7:  48 3b 2d 2a 4c 34 00     cmpq     0x344c2a(%rip), %rbp
0x4000ad4bce:  77 70                    ja       0x4000ad4c40

----------------
IN: 
0x4000ad4c40:  48 81 fd ff 03 00 00     cmpq     $0x3ff, %rbp
0x4000ad4c47:  77 5d                    ja       0x4000ad4ca6

----------------
IN: 
0x4000ad4ca6:  49 89 ec                 movq     %rbp, %r12
0x4000ad4ca9:  49 c1 ec 06              shrq     $6, %r12
0x4000ad4cad:  49 83 fc 30              cmpq     $0x30, %r12
0x4000ad4cb1:  0f 86 29 07 00 00        jbe      0x4000ad53e0

----------------
IN: 
0x4000ad4cb7:  49 89 ec                 movq     %rbp, %r12
0x4000ad4cba:  49 c1 ec 09              shrq     $9, %r12
0x4000ad4cbe:  49 83 fc 14              cmpq     $0x14, %r12
0x4000ad4cc2:  0f 87 9c 07 00 00        ja       0x4000ad5464

----------------
IN: 
0x4000ad5464:  49 89 ec                 movq     %rbp, %r12
0x4000ad5467:  49 c1 ec 0c              shrq     $0xc, %r12
0x4000ad546b:  49 83 fc 0a              cmpq     $0xa, %r12
0x4000ad546f:  76 56                    jbe      0x4000ad54c7

----------------
IN: 
0x4000ad54c7:  41 8d 44 24 6e           leal     0x6e(%r12), %eax
0x4000ad54cc:  89 04 24                 movl     %eax, (%rsp)
0x4000ad54cf:  e9 fc f7 ff ff           jmp      0x4000ad4cd0

----------------
IN: 
0x4000ad4cd0:  f6 43 04 01              testb    $1, 4(%rbx)
0x4000ad4cd4:  75 08                    jne      0x4000ad4cde

----------------
IN: 
0x4000ad4cd6:  48 89 df                 movq     %rbx, %rdi
0x4000ad4cd9:  e8 42 c6 ff ff           callq    0x4000ad1320

----------------
IN: 
0x4000ad1320:  48 83 3d d0 84 34 00 00  cmpq     $0, 0x3484d0(%rip)
0x4000ad1328:  0f 84 5d 07 00 00        je       0x4000ad1a8b

----------------
IN: 
0x4000ad1a8b:  48 8d 4f 58              leaq     0x58(%rdi), %rcx
0x4000ad1a8f:  48 8d 97 48 08 00 00     leaq     0x848(%rdi), %rdx
0x4000ad1a96:  48 89 c8                 movq     %rcx, %rax
0x4000ad1a99:  0f 1f 80 00 00 00 00     nopl     (%rax)
0x4000ad1aa0:  48 89 40 18              movq     %rax, 0x18(%rax)
0x4000ad1aa4:  48 89 40 10              movq     %rax, 0x10(%rax)
0x4000ad1aa8:  48 83 c0 10              addq     $0x10, %rax
0x4000ad1aac:  48 39 c2                 cmpq     %rax, %rdx
0x4000ad1aaf:  75 ef                    jne      0x4000ad1aa0

----------------
IN: 
0x4000ad1aa0:  48 89 40 18              movq     %rax, 0x18(%rax)
0x4000ad1aa4:  48 89 40 10              movq     %rax, 0x10(%rax)
0x4000ad1aa8:  48 83 c0 10              addq     $0x10, %rax
0x4000ad1aac:  48 39 c2                 cmpq     %rax, %rdx
0x4000ad1aaf:  75 ef                    jne      0x4000ad1aa0

----------------
IN: 
0x4000ad1ab1:  48 8d 05 68 60 34 00     leaq     0x346068(%rip), %rax
0x4000ad1ab8:  48 39 c7                 cmpq     %rax, %rdi
0x4000ad1abb:  0f 84 a1 02 00 00        je       0x4000ad1d62

----------------
IN: 
0x4000ad1d62:  48 c7 05 8b 7a 34 00 80  movq     $0x80, 0x347a8b(%rip)
0x4000ad1d6a:  00 00 00
0x4000ad1d6d:  8b 47 04                 movl     4(%rdi), %eax
0x4000ad1d70:  e9 52 fd ff ff           jmp      0x4000ad1ac7

----------------
IN: 
0x4000ad1ac7:  83 c8 01                 orl      $1, %eax
0x4000ad1aca:  48 89 4f 58              movq     %rcx, 0x58(%rdi)
0x4000ad1ace:  89 47 04                 movl     %eax, 4(%rdi)
0x4000ad1ad1:  c3                       retq     

----------------
IN: 
0x4000ad4cde:  48 89 e8                 movq     %rbp, %rax
0x4000ad4ce1:  48 89 e9                 movq     %rbp, %rcx
0x4000ad4ce4:  48 89 ef                 movq     %rbp, %rdi
0x4000ad4ce7:  48 c1 e8 06              shrq     $6, %rax
0x4000ad4ceb:  48 c1 e9 0c              shrq     $0xc, %rcx
0x4000ad4cef:  48 c1 ef 09              shrq     $9, %rdi
0x4000ad4cf3:  48 89 44 24 40           movq     %rax, 0x40(%rsp)
0x4000ad4cf8:  48 89 4c 24 58           movq     %rcx, 0x58(%rsp)
0x4000ad4cfd:  83 c0 30                 addl     $0x30, %eax
0x4000ad4d00:  83 c1 6e                 addl     $0x6e, %ecx
0x4000ad4d03:  48 89 7c 24 50           movq     %rdi, 0x50(%rsp)
0x4000ad4d08:  89 44 24 4c              movl     %eax, 0x4c(%rsp)
0x4000ad4d0c:  83 c7 5b                 addl     $0x5b, %edi
0x4000ad4d0f:  89 4c 24 64              movl     %ecx, 0x64(%rsp)
0x4000ad4d13:  89 e8                    movl     %ebp, %eax
0x4000ad4d15:  48 89 e9                 movq     %rbp, %rcx
0x4000ad4d18:  c1 e8 04                 shrl     $4, %eax
0x4000ad4d1b:  89 7c 24 60              movl     %edi, 0x60(%rsp)
0x4000ad4d1f:  48 c1 e9 0f              shrq     $0xf, %rcx
0x4000ad4d23:  48 8d bc 24 80 00 00 00  leaq     0x80(%rsp), %rdi
0x4000ad4d2b:  89 44 24 48              movl     %eax, 0x48(%rsp)
0x4000ad4d2f:  48 89 4c 24 68           movq     %rcx, 0x68(%rsp)
0x4000ad4d34:  b8 01 00 00 00           movl     $1, %eax
0x4000ad4d39:  83 c1 77                 addl     $0x77, %ecx
0x4000ad4d3c:  48 29 f8                 subq     %rdi, %rax
0x4000ad4d3f:  89 4c 24 78              movl     %ecx, 0x78(%rsp)
0x4000ad4d43:  48 89 e9                 movq     %rbp, %rcx
0x4000ad4d46:  48 c1 e9 12              shrq     $0x12, %rcx
0x4000ad4d4a:  48 89 44 24 30           movq     %rax, 0x30(%rsp)
0x4000ad4d4f:  48 8d 44 24 7f           leaq     0x7f(%rsp), %rax
0x4000ad4d54:  48 89 4c 24 70           movq     %rcx, 0x70(%rsp)
0x4000ad4d59:  4c 8d 63 58              leaq     0x58(%rbx), %r12
0x4000ad4d5d:  83 c1 7c                 addl     $0x7c, %ecx
0x4000ad4d60:  89 4c 24 7c              movl     %ecx, 0x7c(%rsp)
0x4000ad4d64:  48 89 7c 24 10           movq     %rdi, 0x10(%rsp)
0x4000ad4d69:  48 89 44 24 38           movq     %rax, 0x38(%rsp)
0x4000ad4d6e:  41 be 10 27 00 00        movl     $0x2710, %r14d
0x4000ad4d74:  eb 51                    jmp      0x4000ad4dc7

----------------
IN: 
0x4000ad4dc7:  4c 8b 6b 70              movq     0x70(%rbx), %r13
0x4000ad4dcb:  4d 39 e5                 cmpq     %r12, %r13
0x4000ad4dce:  0f 84 93 03 00 00        je       0x4000ad5167

----------------
IN: 
0x4000ad5167:  48 81 fd ff 03 00 00     cmpq     $0x3ff, %rbp
0x4000ad516e:  0f 87 91 01 00 00        ja       0x4000ad5305

----------------
IN: 
0x4000ad5305:  8b 04 24                 movl     (%rsp), %eax
0x4000ad5308:  8d 44 00 fe              leal     -2(%rax, %rax), %eax
0x4000ad530c:  48 8d 44 c3 60           leaq     0x60(%rbx, %rax, 8), %rax
0x4000ad5311:  48 8b 50 08              movq     8(%rax), %rdx
0x4000ad5315:  48 8d 48 08              leaq     8(%rax), %rcx
0x4000ad5319:  48 83 e8 08              subq     $8, %rax
0x4000ad531d:  48 39 c2                 cmpq     %rax, %rdx
0x4000ad5320:  0f 84 4e fe ff ff        je       0x4000ad5174

----------------
IN: 
0x4000ad5174:  8b 04 24                 movl     (%rsp), %eax
0x4000ad5177:  8d 48 01                 leal     1(%rax), %ecx
0x4000ad517a:  01 c0                    addl     %eax, %eax
0x4000ad517c:  48 8d 54 c3 58           leaq     0x58(%rbx, %rax, 8), %rdx
0x4000ad5181:  89 cf                    movl     %ecx, %edi
0x4000ad5183:  c1 ef 05                 shrl     $5, %edi
0x4000ad5186:  89 f8                    movl     %edi, %eax
0x4000ad5188:  8b b4 83 58 08 00 00     movl     0x858(%rbx, %rax, 4), %esi
0x4000ad518f:  b8 01 00 00 00           movl     $1, %eax
0x4000ad5194:  d3 e0                    shll     %cl, %eax
0x4000ad5196:  39 f0                    cmpl     %esi, %eax
0x4000ad5198:  77 3c                    ja       0x4000ad51d6

----------------
IN: 
0x4000ad51d6:  8d 47 01                 leal     1(%rdi), %eax
0x4000ad51d9:  83 f8 03                 cmpl     $3, %eax
0x4000ad51dc:  77 3d                    ja       0x4000ad521b

----------------
IN: 
0x4000ad521b:  48 8b 53 58              movq     0x58(%rbx), %rdx
0x4000ad521f:  48 8d 4d 20              leaq     0x20(%rbp), %rcx
0x4000ad5223:  48 8b 42 08              movq     8(%rdx), %rax
0x4000ad5227:  48 83 e0 f8              andq     $0xfffffff8, %rax
0x4000ad522b:  48 39 c8                 cmpq     %rcx, %rax
0x4000ad522e:  0f 83 24 05 00 00        jae      0x4000ad5758

----------------
IN: 
0x4000ad5234:  f6 43 04 01              testb    $1, 4(%rbx)
0x4000ad5238:  0f 85 fa 04 00 00        jne      0x4000ad5738

----------------
IN: 
0x4000ad5738:  48 89 de                 movq     %rbx, %rsi
0x4000ad573b:  48 89 ef                 movq     %rbp, %rdi
0x4000ad573e:  e8 0d eb ff ff           callq    0x4000ad4250

----------------
IN: 
0x4000ad4250:  41 57                    pushq    %r15
0x4000ad4252:  41 56                    pushq    %r14
0x4000ad4254:  41 55                    pushq    %r13
0x4000ad4256:  41 54                    pushq    %r12
0x4000ad4258:  55                       pushq    %rbp
0x4000ad4259:  53                       pushq    %rbx
0x4000ad425a:  48 89 fd                 movq     %rdi, %rbp
0x4000ad425d:  48 83 ec 68              subq     $0x68, %rsp
0x4000ad4261:  48 8b 05 08 2c 34 00     movq     0x342c08(%rip), %rax
0x4000ad4268:  48 85 f6                 testq    %rsi, %rsi
0x4000ad426b:  4c 8b 70 18              movq     0x18(%rax), %r14
0x4000ad426f:  0f 84 bb 02 00 00        je       0x4000ad4530

----------------
IN: 
0x4000ad4275:  48 39 3d f4 2e 34 00     cmpq     %rdi, 0x342ef4(%rip)
0x4000ad427c:  48 89 f3                 movq     %rsi, %rbx
0x4000ad427f:  0f 86 ab 01 00 00        jbe      0x4000ad4430

----------------
IN: 
0x4000ad4285:  c6 44 24 20 00           movb     $0, 0x20(%rsp)
0x4000ad428a:  48 8d 43 58              leaq     0x58(%rbx), %rax
0x4000ad428e:  4d 89 f7                 movq     %r14, %r15
0x4000ad4291:  49 f7 df                 negq     %r15
0x4000ad4294:  48 89 44 24 10           movq     %rax, 0x10(%rsp)
0x4000ad4299:  49 8d 44 2e 07           leaq     7(%r14, %rbp), %rax
0x4000ad429e:  4c 89 7c 24 18           movq     %r15, 0x18(%rsp)
0x4000ad42a3:  4c 21 f8                 andq     %r15, %rax
0x4000ad42a6:  4d 89 f7                 movq     %r14, %r15
0x4000ad42a9:  48 89 44 24 28           movq     %rax, 0x28(%rsp)
0x4000ad42ae:  4c 8b 6b 58              movq     0x58(%rbx), %r13
0x4000ad42b2:  49 8b 45 08              movq     8(%r13), %rax
0x4000ad42b6:  49 89 c4                 movq     %rax, %r12
0x4000ad42b9:  49 83 e4 f8              andq     $0xfffffff8, %r12
0x4000ad42bd:  4d 85 e4                 testq    %r12, %r12
0x4000ad42c0:  4b 8d 54 25 00           leaq     (%r13, %r12), %rdx
0x4000ad42c5:  41 0f 95 c3              setne    %r11b
0x4000ad42c9:  4c 3b 6c 24 10           cmpq     0x10(%rsp), %r13
0x4000ad42ce:  0f 85 1c 01 00 00        jne      0x4000ad43f0

----------------
IN: 
0x4000ad42d4:  45 84 db                 testb    %r11b, %r11b
0x4000ad42d7:  0f 85 13 01 00 00        jne      0x4000ad43f0

----------------
IN: 
0x4000ad42dd:  48 8d 45 20              leaq     0x20(%rbp), %rax
0x4000ad42e1:  49 39 c4                 cmpq     %rax, %r12
0x4000ad42e4:  48 89 44 24 08           movq     %rax, 8(%rsp)
0x4000ad42e9:  0f 83 a5 07 00 00        jae      0x4000ad4a94

----------------
IN: 
0x4000ad42ef:  48 8d 05 2a 38 34 00     leaq     0x34382a(%rip), %rax
0x4000ad42f6:  48 39 c3                 cmpq     %rax, %rbx
0x4000ad42f9:  0f 84 e1 02 00 00        je       0x4000ad45e0

----------------
IN: 
0x4000ad45e0:  f6 43 04 02              testb    $2, 4(%rbx)
0x4000ad45e4:  48 8b 05 7d 2b 34 00     movq     0x342b7d(%rip), %rax
0x4000ad45eb:  4d 89 fe                 movq     %r15, %r14
0x4000ad45ee:  49 89 d2                 movq     %rdx, %r10
0x4000ad45f1:  4c 8d 7c 05 20           leaq     0x20(%rbp, %rax), %r15
0x4000ad45f6:  0f 84 34 01 00 00        je       0x4000ad4730

----------------
IN: 
0x4000ad4730:  49 8d 46 ff              leaq     -1(%r14), %rax
0x4000ad4734:  4d 29 e7                 subq     %r12, %r15
0x4000ad4737:  49 f7 de                 negq     %r14
0x4000ad473a:  4c 89 74 24 18           movq     %r14, 0x18(%rsp)
0x4000ad473f:  49 01 c7                 addq     %rax, %r15
0x4000ad4742:  48 89 44 24 10           movq     %rax, 0x10(%rsp)
0x4000ad4747:  4d 21 f7                 andq     %r14, %r15
0x4000ad474a:  4d 85 ff                 testq    %r15, %r15
0x4000ad474d:  4d 89 fe                 movq     %r15, %r14
0x4000ad4750:  0f 8f c9 fe ff ff        jg       0x4000ad461f

----------------
IN: 
0x4000ad461f:  48 8b 05 aa 27 34 00     movq     0x3427aa(%rip), %rax
0x4000ad4626:  44 88 5c 24 28           movb     %r11b, 0x28(%rsp)
0x4000ad462b:  4c 89 ff                 movq     %r15, %rdi
0x4000ad462e:  4c 89 54 24 20           movq     %r10, 0x20(%rsp)
0x4000ad4633:  ff 10                    callq    *(%rax)

----------------
IN: 
0x4000ada8c0:  48 83 ec 08              subq     $8, %rsp
0x4000ada8c4:  e8 b7 55 07 00           callq    0x4000b4fe80

----------------
IN: 
0x4000b4fe80:  41 54                    pushq    %r12
0x4000b4fe82:  4c 8b 25 3f 70 2c 00     movq     0x2c703f(%rip), %r12
0x4000b4fe89:  55                       pushq    %rbp
0x4000b4fe8a:  53                       pushq    %rbx
0x4000b4fe8b:  48 89 fd                 movq     %rdi, %rbp
0x4000b4fe8e:  49 8b 1c 24              movq     (%r12), %rbx
0x4000b4fe92:  48 85 db                 testq    %rbx, %rbx
0x4000b4fe95:  74 41                    je       0x4000b4fed8

----------------
IN: 
0x4000b4fed8:  31 ff                    xorl     %edi, %edi
0x4000b4feda:  e8 31 ff ff ff           callq    0x4000b4fe10

----------------
IN: 
0x4000b4fe10:  b9 0c 00 00 00           movl     $0xc, %ecx
0x4000b4fe15:  89 c8                    movl     %ecx, %eax
0x4000b4fe17:  0f 05                    syscall  

----------------
IN: 
0x4000b4fe19:  48 3d 00 f0 ff ff        cmpq     $-0x1000, %rax
0x4000b4fe1f:  48 89 c2                 movq     %rax, %rdx
0x4000b4fe22:  77 1c                    ja       0x4000b4fe40

----------------
IN: 
0x4000b4fe24:  48 8b 05 9d 70 2c 00     movq     0x2c709d(%rip), %rax
0x4000b4fe2b:  48 89 10                 movq     %rdx, (%rax)
0x4000b4fe2e:  31 c0                    xorl     %eax, %eax
0x4000b4fe30:  48 39 d7                 cmpq     %rdx, %rdi
0x4000b4fe33:  77 2b                    ja       0x4000b4fe60

----------------
IN: 
0x4000b4fe35:  f3 c3                    retq     

----------------
IN: 
0x4000b4fedf:  85 c0                    testl    %eax, %eax
0x4000b4fee1:  78 e1                    js       0x4000b4fec4

----------------
IN: 
0x4000b4fee3:  49 8b 1c 24              movq     (%r12), %rbx
0x4000b4fee7:  eb b8                    jmp      0x4000b4fea1

----------------
IN: 
0x4000b4fea1:  48 83 fd 00              cmpq     $0, %rbp
0x4000b4fea5:  74 24                    je       0x4000b4fecb

----------------
IN: 
0x4000b4fea7:  7e 5f                    jle      0x4000b4ff08

----------------
IN: 
0x4000b4fea9:  48 89 d8                 movq     %rbx, %rax
0x4000b4feac:  48 01 e8                 addq     %rbp, %rax
0x4000b4feaf:  0f 92 c0                 setb     %al
0x4000b4feb2:  84 c0                    testb    %al, %al
0x4000b4feb4:  74 3a                    je       0x4000b4fef0

----------------
IN: 
0x4000b4fef0:  48 8d 3c 2b              leaq     (%rbx, %rbp), %rdi
0x4000b4fef4:  e8 17 ff ff ff           callq    0x4000b4fe10

----------------
IN: 
0x4000b4fef9:  85 c0                    testl    %eax, %eax
0x4000b4fefb:  78 c7                    js       0x4000b4fec4

----------------
IN: 
0x4000b4fefd:  48 89 d8                 movq     %rbx, %rax
0x4000b4ff00:  5b                       popq     %rbx
0x4000b4ff01:  5d                       popq     %rbp
0x4000b4ff02:  41 5c                    popq     %r12
0x4000b4ff04:  c3                       retq     

----------------
IN: 
0x4000ada8c9:  ba 00 00 00 00           movl     $0, %edx
0x4000ada8ce:  48 83 f8 ff              cmpq     $0xff, %rax
0x4000ada8d2:  48 0f 44 c2              cmoveq   %rdx, %rax
0x4000ada8d6:  48 83 c4 08              addq     $8, %rsp
0x4000ada8da:  c3                       retq     

----------------
IN: 
0x4000ad4635:  49 89 c0                 movq     %rax, %r8
0x4000ad4638:  90                       nop      
0x4000ad4639:  48 85 c0                 testq    %rax, %rax
0x4000ad463c:  4c 8b 54 24 20           movq     0x20(%rsp), %r10
0x4000ad4641:  44 0f b6 5c 24 28        movzbl   0x28(%rsp), %r11d
0x4000ad4647:  0f 84 85 04 00 00        je       0x4000ad4ad2

----------------
IN: 
0x4000ad464d:  48 8b 05 5c 28 34 00     movq     0x34285c(%rip), %rax
0x4000ad4654:  48 8b 00                 movq     (%rax), %rax
0x4000ad4657:  48 85 c0                 testq    %rax, %rax
0x4000ad465a:  0f 85 40 03 00 00        jne      0x4000ad49a0

----------------
IN: 
0x4000ad4660:  ba 01 00 00 00           movl     $1, %edx
0x4000ad4665:  31 c0                    xorl     %eax, %eax
0x4000ad4667:  48 83 3d 41 2b 34 00 00  cmpq     $0, 0x342b41(%rip)
0x4000ad466f:  0f 84 0b 03 00 00        je       0x4000ad4980

----------------
IN: 
0x4000ad4980:  4c 89 05 29 28 34 00     movq     %r8, 0x342829(%rip)
0x4000ad4987:  e9 e9 fc ff ff           jmp      0x4000ad4675

----------------
IN: 
0x4000ad4675:  4c 89 f6                 movq     %r14, %rsi
0x4000ad4678:  48 03 35 21 3d 34 00     addq     0x343d21(%rip), %rsi
0x4000ad467f:  4d 39 c2                 cmpq     %r8, %r10
0x4000ad4682:  48 89 35 17 3d 34 00     movq     %rsi, 0x343d17(%rip)
0x4000ad4689:  0f 85 59 01 00 00        jne      0x4000ad47e8

----------------
IN: 
0x4000ad47e8:  8b 15 36 33 34 00        movl     0x343336(%rip), %edx
0x4000ad47ee:  f6 c2 02                 testb    $2, %dl
0x4000ad47f1:  0f 85 39 01 00 00        jne      0x4000ad4930

----------------
IN: 
0x4000ad47f7:  4d 39 c2                 cmpq     %r8, %r10
0x4000ad47fa:  76 09                    jbe      0x4000ad4805

----------------
IN: 
0x4000ad47fc:  45 84 db                 testb    %r11b, %r11b
0x4000ad47ff:  0f 85 c1 01 00 00        jne      0x4000ad49c6

----------------
IN: 
0x4000ad4805:  4d 85 e4                 testq    %r12, %r12
0x4000ad4808:  74 10                    je       0x4000ad481a

----------------
IN: 
0x4000ad481a:  4c 89 c2                 movq     %r8, %rdx
0x4000ad481d:  83 e2 0f                 andl     $0xf, %edx
0x4000ad4820:  0f 84 6a 01 00 00        je       0x4000ad4990

----------------
IN: 
0x4000ad4990:  4c 89 44 24 20           movq     %r8, 0x20(%rsp)
0x4000ad4995:  31 c0                    xorl     %eax, %eax
0x4000ad4997:  e9 9b fe ff ff           jmp      0x4000ad4837

----------------
IN: 
0x4000ad4837:  4c 01 e0                 addq     %r12, %rax
0x4000ad483a:  49 01 c6                 addq     %rax, %r14
0x4000ad483d:  4d 01 f0                 addq     %r14, %r8
0x4000ad4840:  4c 8b 74 24 10           movq     0x10(%rsp), %r14
0x4000ad4845:  4c 29 c0                 subq     %r8, %rax
0x4000ad4848:  4d 01 c6                 addq     %r8, %r14
0x4000ad484b:  4c 23 74 24 18           andq     0x18(%rsp), %r14
0x4000ad4850:  49 01 c6                 addq     %rax, %r14
0x4000ad4853:  4d 85 f6                 testq    %r14, %r14
0x4000ad4856:  4d 89 f7                 movq     %r14, %r15
0x4000ad4859:  0f 88 54 02 00 00        js       0x4000ad4ab3

----------------
IN: 
0x4000ad485f:  48 8b 05 6a 25 34 00     movq     0x34256a(%rip), %rax
0x4000ad4866:  4c 89 f7                 movq     %r14, %rdi
0x4000ad4869:  ff 10                    callq    *(%rax)

----------------
IN: 
0x4000b4fe97:  8b 05 e3 71 2c 00        movl     0x2c71e3(%rip), %eax
0x4000b4fe9d:  85 c0                    testl    %eax, %eax
0x4000b4fe9f:  75 37                    jne      0x4000b4fed8

----------------
IN: 
0x4000b4fecb:  48 89 d8                 movq     %rbx, %rax
0x4000b4fece:  5b                       popq     %rbx
0x4000b4fecf:  5d                       popq     %rbp
0x4000b4fed0:  41 5c                    popq     %r12
0x4000b4fed2:  c3                       retq     

----------------
IN: 
0x4000ad486b:  48 85 c0                 testq    %rax, %rax
0x4000ad486e:  0f 84 10 02 00 00        je       0x4000ad4a84

----------------
IN: 
0x4000ad4874:  48 8b 35 35 26 34 00     movq     0x342635(%rip), %rsi
0x4000ad487b:  4c 8b 44 24 20           movq     0x20(%rsp), %r8
0x4000ad4880:  48 8b 3e                 movq     (%rsi), %rdi
0x4000ad4883:  48 8b 35 16 3b 34 00     movq     0x343b16(%rip), %rsi
0x4000ad488a:  48 85 ff                 testq    %rdi, %rdi
0x4000ad488d:  0f 85 cf 01 00 00        jne      0x4000ad4a62

----------------
IN: 
0x4000ad4893:  4c 29 c0                 subq     %r8, %rax
0x4000ad4896:  4c 01 f6                 addq     %r14, %rsi
0x4000ad4899:  4c 89 05 d8 32 34 00     movq     %r8, 0x3432d8(%rip)
0x4000ad48a0:  4a 8d 0c 38              leaq     (%rax, %r15), %rcx
0x4000ad48a4:  4c 89 c2                 movq     %r8, %rdx
0x4000ad48a7:  48 83 c9 01              orq      $1, %rcx
0x4000ad48ab:  4d 85 e4                 testq    %r12, %r12
0x4000ad48ae:  49 89 48 08              movq     %rcx, 8(%r8)
0x4000ad48b2:  48 89 35 e7 3a 34 00     movq     %rsi, 0x343ae7(%rip)
0x4000ad48b9:  0f 84 bf fa ff ff        je       0x4000ad437e

----------------
IN: 
0x4000ad437e:  48 39 b3 88 08 00 00     cmpq     %rsi, 0x888(%rbx)
0x4000ad4385:  73 07                    jae      0x4000ad438e

----------------
IN: 
0x4000ad4387:  48 89 b3 88 08 00 00     movq     %rsi, 0x888(%rbx)
0x4000ad438e:  48 8b 42 08              movq     8(%rdx), %rax
0x4000ad4392:  48 83 e0 f8              andq     $0xfffffff8, %rax
0x4000ad4396:  48 39 44 24 08           cmpq     %rax, 8(%rsp)
0x4000ad439b:  0f 87 4f 03 00 00        ja       0x4000ad46f0

----------------
IN: 
0x4000ad43a1:  48 8d 3d 78 37 34 00     leaq     0x343778(%rip), %rdi
0x4000ad43a8:  48 29 e8                 subq     %rbp, %rax
0x4000ad43ab:  31 c9                    xorl     %ecx, %ecx
0x4000ad43ad:  48 8d 34 2a              leaq     (%rdx, %rbp), %rsi
0x4000ad43b1:  48 39 fb                 cmpq     %rdi, %rbx
0x4000ad43b4:  0f 95 c1                 setne    %cl
0x4000ad43b7:  48 83 cd 01              orq      $1, %rbp
0x4000ad43bb:  48 83 c8 01              orq      $1, %rax
0x4000ad43bf:  48 c1 e1 02              shlq     $2, %rcx
0x4000ad43c3:  48 89 73 58              movq     %rsi, 0x58(%rbx)
0x4000ad43c7:  48 83 c2 10              addq     $0x10, %rdx
0x4000ad43cb:  48 09 e9                 orq      %rbp, %rcx
0x4000ad43ce:  48 89 4a f8              movq     %rcx, -8(%rdx)
0x4000ad43d2:  48 89 46 08              movq     %rax, 8(%rsi)
0x4000ad43d6:  48 83 c4 68              addq     $0x68, %rsp
0x4000ad43da:  48 89 d0                 movq     %rdx, %rax
0x4000ad43dd:  5b                       popq     %rbx
0x4000ad43de:  5d                       popq     %rbp
0x4000ad43df:  41 5c                    popq     %r12
0x4000ad43e1:  41 5d                    popq     %r13
0x4000ad43e3:  41 5e                    popq     %r14
0x4000ad43e5:  41 5f                    popq     %r15
0x4000ad43e7:  c3                       retq     

----------------
IN: 
0x4000ad5743:  48 85 c0                 testq    %rax, %rax
0x4000ad5746:  0f 85 ec fc ff ff        jne      0x4000ad5438

----------------
IN: 
0x4000ad5438:  8b 15 b6 43 34 00        movl     0x3443b6(%rip), %edx
0x4000ad543e:  48 89 c1                 movq     %rax, %rcx
0x4000ad5441:  85 d2                    testl    %edx, %edx
0x4000ad5443:  0f 84 69 fa ff ff        je       0x4000ad4eb2

----------------
IN: 
0x4000ad4eb2:  48 81 c4 a8 00 00 00     addq     $0xa8, %rsp
0x4000ad4eb9:  48 89 c8                 movq     %rcx, %rax
0x4000ad4ebc:  5b                       popq     %rbx
0x4000ad4ebd:  5d                       popq     %rbp
0x4000ad4ebe:  41 5c                    popq     %r12
0x4000ad4ec0:  41 5d                    popq     %r13
0x4000ad4ec2:  41 5e                    popq     %r14
0x4000ad4ec4:  41 5f                    popq     %r15
0x4000ad4ec6:  c3                       retq     

----------------
IN: 
0x4000ad8898:  48 85 c0                 testq    %rax, %rax
0x4000ad889b:  48 89 c2                 movq     %rax, %rdx
0x4000ad889e:  0f 84 d4 00 00 00        je       0x4000ad8978

----------------
IN: 
0x4000ad88a4:  83 3d 95 3e 34 00 00     cmpl     $0, 0x343e95(%rip)
0x4000ad88ab:  74 07                    je       0x4000ad88b4

----------------
IN: 
0x4000ad88b4:  ff 0b                    decl     (%rbx)
0x4000ad88b6:  74 16                    je       0x4000ad88ce

----------------
IN: 
0x4000ad88ce:  48 85 d2                 testq    %rdx, %rdx
0x4000ad88d1:  0f 84 f9 00 00 00        je       0x4000ad89d0

----------------
IN: 
0x4000ad88d7:  48 8b 42 f8              movq     -8(%rdx), %rax
0x4000ad88db:  a8 02                    testb    $2, %al
0x4000ad88dd:  75 21                    jne      0x4000ad8900

----------------
IN: 
0x4000ad88df:  a8 04                    testb    $4, %al
0x4000ad88e1:  48 8d 0d 38 f2 33 00     leaq     0x33f238(%rip), %rcx
0x4000ad88e8:  74 0d                    je       0x4000ad88f7

----------------
IN: 
0x4000ad88f7:  48 39 d9                 cmpq     %rbx, %rcx
0x4000ad88fa:  0f 85 d7 00 00 00        jne      0x4000ad89d7

----------------
IN: 
0x4000ad8900:  48 89 d0                 movq     %rdx, %rax
0x4000ad8903:  48 83 c4 08              addq     $8, %rsp
0x4000ad8907:  5b                       popq     %rbx
0x4000ad8908:  5d                       popq     %rbp
0x4000ad8909:  c3                       retq     

----------------
IN: init_array
0x00400b8c:  48 89 45 e8              movq     %rax, -0x18(%rbp)
0x00400b90:  c7 45 e4 00 00 00 00     movl     $0, -0x1c(%rbp)
0x00400b97:  eb 26                    jmp      0x400bbf

----------------
IN: init_array
0x00400bbf:  8b 45 e4                 movl     -0x1c(%rbp), %eax
0x00400bc2:  3b 45 dc                 cmpl     -0x24(%rbp), %eax
0x00400bc5:  7c d2                    jl       0x400b99

----------------
IN: init_array
0x00400b99:  8b 45 e4                 movl     -0x1c(%rbp), %eax
0x00400b9c:  48 98                    cltq     
0x00400b9e:  48 8d 14 85 00 00 00 00  leaq     (, %rax, 4), %rdx
0x00400ba6:  48 8b 45 e8              movq     -0x18(%rbp), %rax
0x00400baa:  48 8d 1c 02              leaq     (%rdx, %rax), %rbx
0x00400bae:  e8 bd fa ff ff           callq    0x400670

----------------
IN: 
0x00400670:  ff 25 ea 19 20 00        jmpq     *0x2019ea(%rip)

----------------
IN: 
0x00400676:  68 09 00 00 00           pushq    $9
0x0040067b:  e9 50 ff ff ff           jmp      0x4005d0

----------------
IN: 
0x4000a8df60:  48 83 ec 08              subq     $8, %rsp
0x4000a8df64:  e8 57 fb ff ff           callq    0x4000a8dac0

----------------
IN: 
0x4000a8dac0:  48 83 ec 18              subq     $0x18, %rsp
0x4000a8dac4:  be 01 00 00 00           movl     $1, %esi
0x4000a8dac9:  31 c0                    xorl     %eax, %eax
0x4000a8dacb:  83 3d 6e ec 38 00 00     cmpl     $0, 0x38ec6e(%rip)
0x4000a8dad2:  74 0c                    je       0x4000a8dae0

----------------
IN: 
0x4000a8dae0:  0f b1 35 99 b9 38 00     cmpxchgl %esi, 0x38b999(%rip)
0x4000a8dae7:  74 1a                    je       0x4000a8db03

----------------
IN: 
0x4000a8db03:  48 8d 3d 16 9b 38 00     leaq     0x389b16(%rip), %rdi
0x4000a8db0a:  48 8d 74 24 0c           leaq     0xc(%rsp), %rsi
0x4000a8db0f:  e8 2c 01 00 00           callq    0x4000a8dc40

----------------
IN: 
0x4000a8db14:  83 3d 25 ec 38 00 00     cmpl     $0, 0x38ec25(%rip)
0x4000a8db1b:  74 0b                    je       0x4000a8db28

----------------
IN: 
0x4000a8db28:  ff 0d 52 b9 38 00        decl     0x38b952(%rip)
0x4000a8db2e:  74 1a                    je       0x4000a8db4a

----------------
IN: 
0x4000a8db4a:  48 63 44 24 0c           movslq   0xc(%rsp), %rax
0x4000a8db4f:  48 83 c4 18              addq     $0x18, %rsp
0x4000a8db53:  c3                       retq     

----------------
IN: 
0x4000a8df69:  48 83 c4 08              addq     $8, %rsp
0x4000a8df6d:  c3                       retq     

----------------
IN: init_array
0x00400bb3:  99                       cltd     
0x00400bb4:  f7 7d dc                 idivl    -0x24(%rbp)
0x00400bb7:  89 d0                    movl     %edx, %eax
0x00400bb9:  89 03                    movl     %eax, (%rbx)
0x00400bbb:  83 45 e4 01              addl     $1, -0x1c(%rbp)
0x00400bbf:  8b 45 e4                 movl     -0x1c(%rbp), %eax
0x00400bc2:  3b 45 dc                 cmpl     -0x24(%rbp), %eax
0x00400bc5:  7c d2                    jl       0x400b99

----------------
IN: init_array
0x00400bc7:  48 8b 45 e8              movq     -0x18(%rbp), %rax
0x00400bcb:  48 83 c4 28              addq     $0x28, %rsp
0x00400bcf:  5b                       popq     %rbx
0x00400bd0:  5d                       popq     %rbp
0x00400bd1:  c3                       retq     

----------------
IN: main
0x00400c2d:  48 89 45 c0              movq     %rax, -0x40(%rbp)
0x00400c31:  48 8d 45 d0              leaq     -0x30(%rbp), %rax
0x00400c35:  be 00 00 00 00           movl     $0, %esi
0x00400c3a:  48 89 c7                 movq     %rax, %rdi
0x00400c3d:  b8 00 00 00 00           movl     $0, %eax
0x00400c42:  e8 d9 f9 ff ff           callq    0x400620

----------------
IN: 
0x00400620:  ff 25 12 1a 20 00        jmpq     *0x201a12(%rip)

----------------
IN: 
0x00400626:  68 04 00 00 00           pushq    $4
0x0040062b:  e9 a0 ff ff ff           jmp      0x4005d0

----------------
IN: 
0x4000b0f430:  b8 60 00 00 00           movl     $0x60, %eax
0x4000b0f435:  0f 05                    syscall  

----------------
IN: 
0x4000b0f437:  48 3d 00 f0 ff ff        cmpq     $-0x1000, %rax
0x4000b0f43d:  77 09                    ja       0x4000b0f448

----------------
IN: 
0x4000b0f43f:  f3 c3                    retq     

----------------
IN: main
0x00400c47:  8b 55 bc                 movl     -0x44(%rbp), %edx
0x00400c4a:  48 8b 45 c0              movq     -0x40(%rbp), %rax
0x00400c4e:  89 d6                    movl     %edx, %esi
0x00400c50:  48 89 c7                 movq     %rax, %rdi
0x00400c53:  e8 2e fb ff ff           callq    0x400786

----------------
IN: quicksort
0x00400786:  55                       pushq    %rbp
0x00400787:  48 89 e5                 movq     %rsp, %rbp
0x0040078a:  53                       pushq    %rbx
0x0040078b:  48 81 ec 48 01 00 00     subq     $0x148, %rsp
0x00400792:  48 89 bd b8 fe ff ff     movq     %rdi, -0x148(%rbp)
0x00400799:  89 b5 b4 fe ff ff        movl     %esi, -0x14c(%rbp)
0x0040079f:  64 48 8b 04 25 28 00 00  movq     %fs:0x28, %rax
0x004007a7:  00
0x004007a8:  48 89 45 e8              movq     %rax, -0x18(%rbp)
0x004007ac:  31 c0                    xorl     %eax, %eax
0x004007ae:  c7 85 c0 fe ff ff ff ff  movl     $0xffffffff, -0x140(%rbp)
0x004007b6:  ff ff
0x004007b8:  83 85 c0 fe ff ff 01     addl     $1, -0x140(%rbp)
0x004007bf:  8b 85 c0 fe ff ff        movl     -0x140(%rbp), %eax
0x004007c5:  48 98                    cltq     
0x004007c7:  c7 84 85 e0 fe ff ff 00  movl     $0, -0x120(%rbp, %rax, 4)
0x004007cf:  00 00 00
0x004007d2:  8b 85 b4 fe ff ff        movl     -0x14c(%rbp), %eax
0x004007d8:  8d 50 ff                 leal     -1(%rax), %edx
0x004007db:  8b 85 c0 fe ff ff        movl     -0x140(%rbp), %eax
0x004007e1:  48 98                    cltq     
0x004007e3:  89 94 85 60 ff ff ff     movl     %edx, -0xa0(%rbp, %rax, 4)
0x004007ea:  e9 fc 02 00 00           jmp      0x400aeb

----------------
IN: quicksort
0x00400aeb:  83 bd c0 fe ff ff 00     cmpl     $0, -0x140(%rbp)
0x00400af2:  0f 89 f7 fc ff ff        jns      0x4007ef

----------------
IN: quicksort
0x004007ef:  8b 85 c0 fe ff ff        movl     -0x140(%rbp), %eax
0x004007f5:  48 98                    cltq     
0x004007f7:  8b 84 85 e0 fe ff ff     movl     -0x120(%rbp, %rax, 4), %eax
0x004007fe:  89 85 cc fe ff ff        movl     %eax, -0x134(%rbp)
0x00400804:  8b 85 c0 fe ff ff        movl     -0x140(%rbp), %eax
0x0040080a:  48 98                    cltq     
0x0040080c:  8b 84 85 60 ff ff ff     movl     -0xa0(%rbp, %rax, 4), %eax
0x00400813:  89 85 d0 fe ff ff        movl     %eax, -0x130(%rbp)
0x00400819:  83 ad c0 fe ff ff 01     subl     $1, -0x140(%rbp)
0x00400820:  8b 85 cc fe ff ff        movl     -0x134(%rbp), %eax
0x00400826:  3b 85 d0 fe ff ff        cmpl     -0x130(%rbp), %eax
0x0040082c:  0f 8d b9 02 00 00        jge      0x400aeb

----------------
IN: quicksort
0x00400832:  8b 85 cc fe ff ff        movl     -0x134(%rbp), %eax
0x00400838:  48 98                    cltq     
0x0040083a:  48 8d 14 85 00 00 00 00  leaq     (, %rax, 4), %rdx
0x00400842:  48 8b 85 b8 fe ff ff     movq     -0x148(%rbp), %rax
0x00400849:  48 01 d0                 addq     %rdx, %rax
0x0040084c:  8b 00                    movl     (%rax), %eax
0x0040084e:  89 85 d4 fe ff ff        movl     %eax, -0x12c(%rbp)
0x00400854:  8b 85 cc fe ff ff        movl     -0x134(%rbp), %eax
0x0040085a:  48 98                    cltq     
0x0040085c:  48 8d 14 85 00 00 00 00  leaq     (, %rax, 4), %rdx
0x00400864:  48 8b 85 b8 fe ff ff     movq     -0x148(%rbp), %rax
0x0040086b:  48 8d 1c 02              leaq     (%rdx, %rax), %rbx
0x0040086f:  e8 fc fd ff ff           callq    0x400670

----------------
IN: quicksort
0x00400874:  89 c2                    movl     %eax, %edx
0x00400876:  8b 85 d0 fe ff ff        movl     -0x130(%rbp), %eax
0x0040087c:  2b 85 cc fe ff ff        subl     -0x134(%rbp), %eax
0x00400882:  8d 48 01                 leal     1(%rax), %ecx
0x00400885:  89 d0                    movl     %edx, %eax
0x00400887:  99                       cltd     
0x00400888:  f7 f9                    idivl    %ecx
0x0040088a:  8b 85 cc fe ff ff        movl     -0x134(%rbp), %eax
0x00400890:  01 d0                    addl     %edx, %eax
0x00400892:  48 98                    cltq     
0x00400894:  48 8d 14 85 00 00 00 00  leaq     (, %rax, 4), %rdx
0x0040089c:  48 8b 85 b8 fe ff ff     movq     -0x148(%rbp), %rax
0x004008a3:  48 01 d0                 addq     %rdx, %rax
0x004008a6:  8b 00                    movl     (%rax), %eax
0x004008a8:  89 03                    movl     %eax, (%rbx)
0x004008aa:  e8 c1 fd ff ff           callq    0x400670

----------------
IN: quicksort
0x004008af:  89 c2                    movl     %eax, %edx
0x004008b1:  8b 85 d0 fe ff ff        movl     -0x130(%rbp), %eax
0x004008b7:  2b 85 cc fe ff ff        subl     -0x134(%rbp), %eax
0x004008bd:  8d 48 01                 leal     1(%rax), %ecx
0x004008c0:  89 d0                    movl     %edx, %eax
0x004008c2:  99                       cltd     
0x004008c3:  f7 f9                    idivl    %ecx
0x004008c5:  8b 85 cc fe ff ff        movl     -0x134(%rbp), %eax
0x004008cb:  01 d0                    addl     %edx, %eax
0x004008cd:  48 98                    cltq     
0x004008cf:  48 8d 14 85 00 00 00 00  leaq     (, %rax, 4), %rdx
0x004008d7:  48 8b 85 b8 fe ff ff     movq     -0x148(%rbp), %rax
0x004008de:  48 01 c2                 addq     %rax, %rdx
0x004008e1:  8b 85 d4 fe ff ff        movl     -0x12c(%rbp), %eax
0x004008e7:  89 02                    movl     %eax, (%rdx)
0x004008e9:  8b 85 cc fe ff ff        movl     -0x134(%rbp), %eax
0x004008ef:  89 85 c8 fe ff ff        movl     %eax, -0x138(%rbp)
0x004008f5:  8b 85 cc fe ff ff        movl     -0x134(%rbp), %eax
0x004008fb:  83 c0 01                 addl     $1, %eax
0x004008fe:  89 85 c4 fe ff ff        movl     %eax, -0x13c(%rbp)
0x00400904:  e9 ca 00 00 00           jmp      0x4009d3

----------------
IN: quicksort
0x004009d3:  8b 85 c4 fe ff ff        movl     -0x13c(%rbp), %eax
0x004009d9:  3b 85 d0 fe ff ff        cmpl     -0x130(%rbp), %eax
0x004009df:  0f 8e 24 ff ff ff        jle      0x400909

----------------
IN: quicksort
0x00400909:  8b 85 c4 fe ff ff        movl     -0x13c(%rbp), %eax
0x0040090f:  48 98                    cltq     
0x00400911:  48 8d 14 85 00 00 00 00  leaq     (, %rax, 4), %rdx
0x00400919:  48 8b 85 b8 fe ff ff     movq     -0x148(%rbp), %rax
0x00400920:  48 01 d0                 addq     %rdx, %rax
0x00400923:  8b 10                    movl     (%rax), %edx
0x00400925:  8b 85 cc fe ff ff        movl     -0x134(%rbp), %eax
0x0040092b:  48 98                    cltq     
0x0040092d:  48 8d 0c 85 00 00 00 00  leaq     (, %rax, 4), %rcx
0x00400935:  48 8b 85 b8 fe ff ff     movq     -0x148(%rbp), %rax
0x0040093c:  48 01 c8                 addq     %rcx, %rax
0x0040093f:  8b 00                    movl     (%rax), %eax
0x00400941:  39 c2                    cmpl     %eax, %edx
0x00400943:  0f 8d 83 00 00 00        jge      0x4009cc

----------------
IN: quicksort
0x00400949:  83 85 c8 fe ff ff 01     addl     $1, -0x138(%rbp)
0x00400950:  8b 85 c8 fe ff ff        movl     -0x138(%rbp), %eax
0x00400956:  48 98                    cltq     
0x00400958:  48 8d 14 85 00 00 00 00  leaq     (, %rax, 4), %rdx
0x00400960:  48 8b 85 b8 fe ff ff     movq     -0x148(%rbp), %rax
0x00400967:  48 01 d0                 addq     %rdx, %rax
0x0040096a:  8b 00                    movl     (%rax), %eax
0x0040096c:  89 85 d8 fe ff ff        movl     %eax, -0x128(%rbp)
0x00400972:  8b 85 c8 fe ff ff        movl     -0x138(%rbp), %eax
0x00400978:  48 98                    cltq     
0x0040097a:  48 8d 14 85 00 00 00 00  leaq     (, %rax, 4), %rdx
0x00400982:  48 8b 85 b8 fe ff ff     movq     -0x148(%rbp), %rax
0x00400989:  48 01 c2                 addq     %rax, %rdx
0x0040098c:  8b 85 c4 fe ff ff        movl     -0x13c(%rbp), %eax
0x00400992:  48 98                    cltq     
0x00400994:  48 8d 0c 85 00 00 00 00  leaq     (, %rax, 4), %rcx
0x0040099c:  48 8b 85 b8 fe ff ff     movq     -0x148(%rbp), %rax
0x004009a3:  48 01 c8                 addq     %rcx, %rax
0x004009a6:  8b 00                    movl     (%rax), %eax
0x004009a8:  89 02                    movl     %eax, (%rdx)
0x004009aa:  8b 85 c4 fe ff ff        movl     -0x13c(%rbp), %eax
0x004009b0:  48 98                    cltq     
0x004009b2:  48 8d 14 85 00 00 00 00  leaq     (, %rax, 4), %rdx
0x004009ba:  48 8b 85 b8 fe ff ff     movq     -0x148(%rbp), %rax
0x004009c1:  48 01 c2                 addq     %rax, %rdx
0x004009c4:  8b 85 d8 fe ff ff        movl     -0x128(%rbp), %eax
0x004009ca:  89 02                    movl     %eax, (%rdx)
0x004009cc:  83 85 c4 fe ff ff 01     addl     $1, -0x13c(%rbp)
0x004009d3:  8b 85 c4 fe ff ff        movl     -0x13c(%rbp), %eax
0x004009d9:  3b 85 d0 fe ff ff        cmpl     -0x130(%rbp), %eax
0x004009df:  0f 8e 24 ff ff ff        jle      0x400909

----------------
IN: quicksort
0x004009cc:  83 85 c4 fe ff ff 01     addl     $1, -0x13c(%rbp)
0x004009d3:  8b 85 c4 fe ff ff        movl     -0x13c(%rbp), %eax
0x004009d9:  3b 85 d0 fe ff ff        cmpl     -0x130(%rbp), %eax
0x004009df:  0f 8e 24 ff ff ff        jle      0x400909

----------------
IN: quicksort
0x004009e5:  8b 85 c8 fe ff ff        movl     -0x138(%rbp), %eax
0x004009eb:  48 98                    cltq     
0x004009ed:  48 8d 14 85 00 00 00 00  leaq     (, %rax, 4), %rdx
0x004009f5:  48 8b 85 b8 fe ff ff     movq     -0x148(%rbp), %rax
0x004009fc:  48 01 d0                 addq     %rdx, %rax
0x004009ff:  8b 00                    movl     (%rax), %eax
0x00400a01:  89 85 dc fe ff ff        movl     %eax, -0x124(%rbp)
0x00400a07:  8b 85 c8 fe ff ff        movl     -0x138(%rbp), %eax
0x00400a0d:  48 98                    cltq     
0x00400a0f:  48 8d 14 85 00 00 00 00  leaq     (, %rax, 4), %rdx
0x00400a17:  48 8b 85 b8 fe ff ff     movq     -0x148(%rbp), %rax
0x00400a1e:  48 01 c2                 addq     %rax, %rdx
0x00400a21:  8b 85 cc fe ff ff        movl     -0x134(%rbp), %eax
0x00400a27:  48 98                    cltq     
0x00400a29:  48 8d 0c 85 00 00 00 00  leaq     (, %rax, 4), %rcx
0x00400a31:  48 8b 85 b8 fe ff ff     movq     -0x148(%rbp), %rax
0x00400a38:  48 01 c8                 addq     %rcx, %rax
0x00400a3b:  8b 00                    movl     (%rax), %eax
0x00400a3d:  89 02                    movl     %eax, (%rdx)
0x00400a3f:  8b 85 cc fe ff ff        movl     -0x134(%rbp), %eax
0x00400a45:  48 98                    cltq     
0x00400a47:  48 8d 14 85 00 00 00 00  leaq     (, %rax, 4), %rdx
0x00400a4f:  48 8b 85 b8 fe ff ff     movq     -0x148(%rbp), %rax
0x00400a56:  48 01 c2                 addq     %rax, %rdx
0x00400a59:  8b 85 dc fe ff ff        movl     -0x124(%rbp), %eax
0x00400a5f:  89 02                    movl     %eax, (%rdx)
0x00400a61:  8b 85 c8 fe ff ff        movl     -0x138(%rbp), %eax
0x00400a67:  83 e8 01                 subl     $1, %eax
0x00400a6a:  3b 85 cc fe ff ff        cmpl     -0x134(%rbp), %eax
0x00400a70:  7e 34                    jle      0x400aa6

----------------
IN: quicksort
0x00400a72:  83 85 c0 fe ff ff 01     addl     $1, -0x140(%rbp)
0x00400a79:  8b 85 c0 fe ff ff        movl     -0x140(%rbp), %eax
0x00400a7f:  48 98                    cltq     
0x00400a81:  8b 95 cc fe ff ff        movl     -0x134(%rbp), %edx
0x00400a87:  89 94 85 e0 fe ff ff     movl     %edx, -0x120(%rbp, %rax, 4)
0x00400a8e:  8b 85 c8 fe ff ff        movl     -0x138(%rbp), %eax
0x00400a94:  8d 50 ff                 leal     -1(%rax), %edx
0x00400a97:  8b 85 c0 fe ff ff        movl     -0x140(%rbp), %eax
0x00400a9d:  48 98                    cltq     
0x00400a9f:  89 94 85 60 ff ff ff     movl     %edx, -0xa0(%rbp, %rax, 4)
0x00400aa6:  8b 85 c8 fe ff ff        movl     -0x138(%rbp), %eax
0x00400aac:  83 c0 01                 addl     $1, %eax
0x00400aaf:  3b 85 d0 fe ff ff        cmpl     -0x130(%rbp), %eax
0x00400ab5:  7d 34                    jge      0x400aeb

----------------
IN: quicksort
0x00400ab7:  83 85 c0 fe ff ff 01     addl     $1, -0x140(%rbp)
0x00400abe:  8b 85 c8 fe ff ff        movl     -0x138(%rbp), %eax
0x00400ac4:  8d 50 01                 leal     1(%rax), %edx
0x00400ac7:  8b 85 c0 fe ff ff        movl     -0x140(%rbp), %eax
0x00400acd:  48 98                    cltq     
0x00400acf:  89 94 85 e0 fe ff ff     movl     %edx, -0x120(%rbp, %rax, 4)
0x00400ad6:  8b 85 c0 fe ff ff        movl     -0x140(%rbp), %eax
0x00400adc:  48 98                    cltq     
0x00400ade:  8b 95 d0 fe ff ff        movl     -0x130(%rbp), %edx
0x00400ae4:  89 94 85 60 ff ff ff     movl     %edx, -0xa0(%rbp, %rax, 4)
0x00400aeb:  83 bd c0 fe ff ff 00     cmpl     $0, -0x140(%rbp)
0x00400af2:  0f 89 f7 fc ff ff        jns      0x4007ef

----------------
IN: quicksort
0x00400aa6:  8b 85 c8 fe ff ff        movl     -0x138(%rbp), %eax
0x00400aac:  83 c0 01                 addl     $1, %eax
0x00400aaf:  3b 85 d0 fe ff ff        cmpl     -0x130(%rbp), %eax
0x00400ab5:  7d 34                    jge      0x400aeb

----------------
IN: quicksort
0x00400af8:  90                       nop      
0x00400af9:  48 8b 45 e8              movq     -0x18(%rbp), %rax
0x00400afd:  64 48 33 04 25 28 00 00  xorq     %fs:0x28, %rax
0x00400b05:  00
0x00400b06:  74 05                    je       0x400b0d

----------------
IN: quicksort
0x00400b0d:  48 81 c4 48 01 00 00     addq     $0x148, %rsp
0x00400b14:  5b                       popq     %rbx
0x00400b15:  5d                       popq     %rbp
0x00400b16:  c3                       retq     

----------------
IN: main
0x00400c58:  48 8d 45 e0              leaq     -0x20(%rbp), %rax
0x00400c5c:  be 00 00 00 00           movl     $0, %esi
0x00400c61:  48 89 c7                 movq     %rax, %rdi
0x00400c64:  b8 00 00 00 00           movl     $0, %eax
0x00400c69:  e8 b2 f9 ff ff           callq    0x400620

----------------
IN: main
0x00400c6e:  48 8b 55 e0              movq     -0x20(%rbp), %rdx
0x00400c72:  48 8b 45 d0              movq     -0x30(%rbp), %rax
0x00400c76:  48 29 c2                 subq     %rax, %rdx
0x00400c79:  48 89 d0                 movq     %rdx, %rax
0x00400c7c:  48 69 d0 40 42 0f 00     imulq    $0xf4240, %rax, %rdx
0x00400c83:  48 8b 45 e8              movq     -0x18(%rbp), %rax
0x00400c87:  48 01 c2                 addq     %rax, %rdx
0x00400c8a:  48 8b 45 d8              movq     -0x28(%rbp), %rax
0x00400c8e:  48 29 c2                 subq     %rax, %rdx
0x00400c91:  48 89 d0                 movq     %rdx, %rax
0x00400c94:  48 89 45 c8              movq     %rax, -0x38(%rbp)
0x00400c98:  48 8b 45 c0              movq     -0x40(%rbp), %rax
0x00400c9c:  48 89 c7                 movq     %rax, %rdi
0x00400c9f:  e8 2e ff ff ff           callq    0x400bd2

----------------
IN: free_array
0x00400bd2:  55                       pushq    %rbp
0x00400bd3:  48 89 e5                 movq     %rsp, %rbp
0x00400bd6:  48 83 ec 10              subq     $0x10, %rsp
0x00400bda:  48 89 7d f8              movq     %rdi, -8(%rbp)
0x00400bde:  48 8b 45 f8              movq     -8(%rbp), %rax
0x00400be2:  48 89 c7                 movq     %rax, %rdi
0x00400be5:  e8 f6 f9 ff ff           callq    0x4005e0

----------------
IN: 
0x004005e0:  ff 25 32 1a 20 00        jmpq     *0x201a32(%rip)

----------------
IN: 
0x004005e6:  68 00 00 00 00           pushq    $0
0x004005eb:  e9 e0 ff ff ff           jmp      0x4005d0

----------------
IN: 
0x4000ad74f0:  41 55                    pushq    %r13
0x4000ad74f2:  41 54                    pushq    %r12
0x4000ad74f4:  55                       pushq    %rbp
0x4000ad74f5:  53                       pushq    %rbx
0x4000ad74f6:  48 83 ec 28              subq     $0x28, %rsp
0x4000ad74fa:  48 8b 05 f7 f9 33 00     movq     0x33f9f7(%rip), %rax
0x4000ad7501:  48 8b 00                 movq     (%rax), %rax
0x4000ad7504:  48 85 c0                 testq    %rax, %rax
0x4000ad7507:  0f 85 d3 00 00 00        jne      0x4000ad75e0

----------------
IN: 
0x4000ad750d:  48 85 ff                 testq    %rdi, %rdi
0x4000ad7510:  74 2a                    je       0x4000ad753c

----------------
IN: 
0x4000ad7512:  48 8b 47 f8              movq     -8(%rdi), %rax
0x4000ad7516:  48 8d 77 f0              leaq     -0x10(%rdi), %rsi
0x4000ad751a:  a8 02                    testb    $2, %al
0x4000ad751c:  75 32                    jne      0x4000ad7550

----------------
IN: 
0x4000ad751e:  a8 04                    testb    $4, %al
0x4000ad7520:  48 8d 3d f9 05 34 00     leaq     0x3405f9(%rip), %rdi
0x4000ad7527:  74 0c                    je       0x4000ad7535

----------------
IN: 
0x4000ad7535:  31 d2                    xorl     %edx, %edx
0x4000ad7537:  e8 14 b8 ff ff           callq    0x4000ad2d50

----------------
IN: 
0x4000ad2d50:  41 57                    pushq    %r15
0x4000ad2d52:  41 56                    pushq    %r14
0x4000ad2d54:  41 55                    pushq    %r13
0x4000ad2d56:  41 54                    pushq    %r12
0x4000ad2d58:  55                       pushq    %rbp
0x4000ad2d59:  53                       pushq    %rbx
0x4000ad2d5a:  48 89 fd                 movq     %rdi, %rbp
0x4000ad2d5d:  48 89 f3                 movq     %rsi, %rbx
0x4000ad2d60:  48 83 ec 68              subq     $0x68, %rsp
0x4000ad2d64:  48 8b 46 08              movq     8(%rsi), %rax
0x4000ad2d68:  89 54 24 04              movl     %edx, 4(%rsp)
0x4000ad2d6c:  49 89 c4                 movq     %rax, %r12
0x4000ad2d6f:  49 83 e4 f8              andq     $0xfffffff8, %r12
0x4000ad2d73:  4c 89 e2                 movq     %r12, %rdx
0x4000ad2d76:  48 f7 da                 negq     %rdx
0x4000ad2d79:  48 39 d6                 cmpq     %rdx, %rsi
0x4000ad2d7c:  0f 87 6e 05 00 00        ja       0x4000ad32f0

----------------
IN: 
0x4000ad2d82:  40 f6 c6 0f              testb    $0xf, %sil
0x4000ad2d86:  0f 85 64 05 00 00        jne      0x4000ad32f0

----------------
IN: 
0x4000ad2d8c:  49 83 fc 1f              cmpq     $0x1f, %r12
0x4000ad2d90:  0f 86 fa 05 00 00        jbe      0x4000ad3390

----------------
IN: 
0x4000ad2d96:  a8 08                    testb    $8, %al
0x4000ad2d98:  0f 85 f2 05 00 00        jne      0x4000ad3390

----------------
IN: 
0x4000ad2d9e:  4c 3b 25 53 6a 34 00     cmpq     0x346a53(%rip), %r12
0x4000ad2da5:  0f 87 0d 01 00 00        ja       0x4000ad2eb8

----------------
IN: 
0x4000ad2eb8:  a8 02                    testb    $2, %al
0x4000ad2eba:  0f 85 00 06 00 00        jne      0x4000ad34c0

----------------
IN: 
0x4000ad2ec0:  8b 44 24 04              movl     4(%rsp), %eax
0x4000ad2ec4:  85 c0                    testl    %eax, %eax
0x4000ad2ec6:  0f 84 c4 03 00 00        je       0x4000ad3290

----------------
IN: 
0x4000ad3290:  be 01 00 00 00           movl     $1, %esi
0x4000ad3295:  83 3d a4 94 34 00 00     cmpl     $0, 0x3494a4(%rip)
0x4000ad329c:  74 09                    je       0x4000ad32a7

----------------
IN: 
0x4000ad32a7:  0f b1 75 00              cmpxchgl %esi, (%rbp)
0x4000ad32ab:  74 17                    je       0x4000ad32c4

----------------
IN: 
0x4000ad32c4:  48 8b 45 58              movq     0x58(%rbp), %rax
0x4000ad32c8:  4e 8d 2c 23              leaq     (%rbx, %r12), %r13
0x4000ad32cc:  48 39 c3                 cmpq     %rax, %rbx
0x4000ad32cf:  0f 84 e3 05 00 00        je       0x4000ad38b8

----------------
IN: 
0x4000ad32d5:  41 b9 01 00 00 00        movl     $1, %r9d
0x4000ad32db:  c7 44 24 38 01 00 00 00  movl     $1, 0x38(%rsp)
0x4000ad32e3:  e9 00 fc ff ff           jmp      0x4000ad2ee8

----------------
IN: 
0x4000ad2ee8:  f6 45 04 02              testb    $2, 4(%rbp)
0x4000ad2eec:  0f 84 ee 09 00 00        je       0x4000ad38e0

----------------
IN: 
0x4000ad38e0:  48 8b 50 08              movq     8(%rax), %rdx
0x4000ad38e4:  48 83 e2 f8              andq     $0xfffffff8, %rdx
0x4000ad38e8:  48 01 d0                 addq     %rdx, %rax
0x4000ad38eb:  49 39 c5                 cmpq     %rax, %r13
0x4000ad38ee:  0f 82 fe f5 ff ff        jb       0x4000ad2ef2

----------------
IN: 
0x4000ad2ef2:  49 8b 45 08              movq     8(%r13), %rax
0x4000ad2ef6:  a8 01                    testb    $1, %al
0x4000ad2ef8:  0f 84 02 0a 00 00        je       0x4000ad3900

----------------
IN: 
0x4000ad2efe:  49 89 c7                 movq     %rax, %r15
0x4000ad2f01:  49 83 e7 f8              andq     $0xfffffff8, %r15
0x4000ad2f05:  48 83 f8 10              cmpq     $0x10, %rax
0x4000ad2f09:  0f 86 51 08 00 00        jbe      0x4000ad3760

----------------
IN: 
0x4000ad2f0f:  4c 3b bd 80 08 00 00     cmpq     0x880(%rbp), %r15
0x4000ad2f16:  0f 83 44 08 00 00        jae      0x4000ad3760

----------------
IN: 
0x4000ad2f1c:  8b 35 d2 68 34 00        movl     0x3468d2(%rip), %esi
0x4000ad2f22:  85 f6                    testl    %esi, %esi
0x4000ad2f24:  0f 85 e2 09 00 00        jne      0x4000ad390c

----------------
IN: 
0x4000ad2f2a:  f6 43 08 01              testb    $1, 8(%rbx)
0x4000ad2f2e:  0f 85 8c 00 00 00        jne      0x4000ad2fc0

----------------
IN: 
0x4000ad2fc0:  4c 39 6d 58              cmpq     %r13, 0x58(%rbp)
0x4000ad2fc4:  0f 84 fe 08 00 00        je       0x4000ad38c8

----------------
IN: 
0x4000ad38c8:  4d 01 fc                 addq     %r15, %r12
0x4000ad38cb:  4c 89 e0                 movq     %r12, %rax
0x4000ad38ce:  48 83 c8 01              orq      $1, %rax
0x4000ad38d2:  48 89 43 08              movq     %rax, 8(%rbx)
0x4000ad38d6:  48 89 5d 58              movq     %rbx, 0x58(%rbp)
0x4000ad38da:  e9 8c f7 ff ff           jmp      0x4000ad306b

----------------
IN: 
0x4000ad306b:  49 81 fc ff ff 00 00     cmpq     $0xffff, %r12
0x4000ad3072:  0f 86 b8 03 00 00        jbe      0x4000ad3430

----------------
IN: 
0x4000ad3078:  f6 45 04 01              testb    $1, 4(%rbp)
0x4000ad307c:  0f 84 ee 05 00 00        je       0x4000ad3670

----------------
IN: 
0x4000ad3082:  48 8d 05 97 4a 34 00     leaq     0x344a97(%rip), %rax
0x4000ad3089:  48 39 c5                 cmpq     %rax, %rbp
0x4000ad308c:  0f 84 f7 08 00 00        je       0x4000ad3989

----------------
IN: 
0x4000ad3989:  48 8b 45 58              movq     0x58(%rbp), %rax
0x4000ad398d:  48 8b 40 08              movq     8(%rax), %rax
0x4000ad3991:  48 83 e0 f8              andq     $0xfffffff8, %rax
0x4000ad3995:  48 3b 05 c4 37 34 00     cmpq     0x3437c4(%rip), %rax
0x4000ad399c:  0f 82 8e fa ff ff        jb       0x4000ad3430

----------------
IN: 
0x4000ad39a2:  48 8b 3d bf 37 34 00     movq     0x3437bf(%rip), %rdi
0x4000ad39a9:  48 8d 15 f0 49 34 00     leaq     0x3449f0(%rip), %rdx
0x4000ad39b0:  48 8d 35 c1 41 34 00     leaq     0x3441c1(%rip), %rsi
0x4000ad39b7:  e8 94 ce ff ff           callq    0x4000ad0850

----------------
IN: 
0x4000ad0850:  41 57                    pushq    %r15
0x4000ad0852:  41 56                    pushq    %r14
0x4000ad0854:  41 55                    pushq    %r13
0x4000ad0856:  41 54                    pushq    %r12
0x4000ad0858:  55                       pushq    %rbp
0x4000ad0859:  53                       pushq    %rbx
0x4000ad085a:  48 83 ec 08              subq     $8, %rsp
0x4000ad085e:  48 8b 06                 movq     (%rsi), %rax
0x4000ad0861:  48 8b 68 08              movq     8(%rax), %rbp
0x4000ad0865:  48 83 e5 f8              andq     $0xfffffff8, %rbp
0x4000ad0869:  48 8d 45 df              leaq     -0x21(%rbp), %rax
0x4000ad086d:  48 39 f8                 cmpq     %rdi, %rax
0x4000ad0870:  76 16                    jbe      0x4000ad0888

----------------
IN: 
0x4000ad0872:  48 8b 0d f7 65 34 00     movq     0x3465f7(%rip), %rcx
0x4000ad0879:  48 29 f8                 subq     %rdi, %rax
0x4000ad087c:  48 8b 59 18              movq     0x18(%rcx), %rbx
0x4000ad0880:  48 f7 db                 negq     %rbx
0x4000ad0883:  48 21 c3                 andq     %rax, %rbx
0x4000ad0886:  75 18                    jne      0x4000ad08a0

----------------
IN: 
0x4000ad08a0:  4c 8b 3d 29 65 34 00     movq     0x346529(%rip), %r15
0x4000ad08a7:  49 89 f4                 movq     %rsi, %r12
0x4000ad08aa:  31 ff                    xorl     %edi, %edi
0x4000ad08ac:  49 89 d5                 movq     %rdx, %r13
0x4000ad08af:  41 ff 17                 callq    *(%r15)

----------------
IN: 
0x4000ad08b2:  49 89 c6                 movq     %rax, %r14
0x4000ad08b5:  48 89 e8                 movq     %rbp, %rax
0x4000ad08b8:  49 03 04 24              addq     (%r12), %rax
0x4000ad08bc:  49 39 c6                 cmpq     %rax, %r14
0x4000ad08bf:  75 c7                    jne      0x4000ad0888

----------------
IN: 
0x4000ad08c1:  48 89 df                 movq     %rbx, %rdi
0x4000ad08c4:  48 f7 df                 negq     %rdi
0x4000ad08c7:  41 ff 17                 callq    *(%r15)

----------------
IN: 
0x4000b4ff08:  48 89 e8                 movq     %rbp, %rax
0x4000b4ff0b:  48 f7 d8                 negq     %rax
0x4000b4ff0e:  48 39 c3                 cmpq     %rax, %rbx
0x4000b4ff11:  0f 92 c0                 setb     %al
0x4000b4ff14:  eb 9c                    jmp      0x4000b4feb2

----------------
IN: 
0x4000b4feb2:  84 c0                    testb    %al, %al
0x4000b4feb4:  74 3a                    je       0x4000b4fef0

----------------
IN: 
0x4000ad08ca:  48 8b 05 df 65 34 00     movq     0x3465df(%rip), %rax
0x4000ad08d1:  48 8b 00                 movq     (%rax), %rax
0x4000ad08d4:  48 85 c0                 testq    %rax, %rax
0x4000ad08d7:  75 2a                    jne      0x4000ad0903

----------------
IN: 
0x4000ad08d9:  31 ff                    xorl     %edi, %edi
0x4000ad08db:  41 ff 17                 callq    *(%r15)

----------------
IN: 
0x4000ad08de:  90                       nop      
0x4000ad08df:  48 85 c0                 testq    %rax, %rax
0x4000ad08e2:  74 a4                    je       0x4000ad0888

----------------
IN: 
0x4000ad08e4:  49 29 c6                 subq     %rax, %r14
0x4000ad08e7:  74 9f                    je       0x4000ad0888

----------------
IN: 
0x4000ad08e9:  49 8b 04 24              movq     (%r12), %rax
0x4000ad08ed:  4c 29 f5                 subq     %r14, %rbp
0x4000ad08f0:  4d 29 75 00              subq     %r14, (%r13)
0x4000ad08f4:  48 83 cd 01              orq      $1, %rbp
0x4000ad08f8:  48 89 68 08              movq     %rbp, 8(%rax)
0x4000ad08fc:  b8 01 00 00 00           movl     $1, %eax
0x4000ad0901:  eb 87                    jmp      0x4000ad088a

----------------
IN: 
0x4000ad088a:  48 83 c4 08              addq     $8, %rsp
0x4000ad088e:  5b                       popq     %rbx
0x4000ad088f:  5d                       popq     %rbp
0x4000ad0890:  41 5c                    popq     %r12
0x4000ad0892:  41 5d                    popq     %r13
0x4000ad0894:  41 5e                    popq     %r14
0x4000ad0896:  41 5f                    popq     %r15
0x4000ad0898:  c3                       retq     

----------------
IN: 
0x4000ad39bc:  e9 6f fa ff ff           jmp      0x4000ad3430

----------------
IN: 
0x4000ad3430:  8b 54 24 04              movl     4(%rsp), %edx
0x4000ad3434:  85 d2                    testl    %edx, %edx
0x4000ad3436:  0f 85 67 fa ff ff        jne      0x4000ad2ea3

----------------
IN: 
0x4000ad343c:  8b 44 24 38              movl     0x38(%rsp), %eax
0x4000ad3440:  85 c0                    testl    %eax, %eax
0x4000ad3442:  0f 84 83 0d 00 00        je       0x4000ad41cb

----------------
IN: 
0x4000ad3448:  83 3d f1 92 34 00 00     cmpl     $0, 0x3492f1(%rip)
0x4000ad344f:  74 08                    je       0x4000ad3459

----------------
IN: 
0x4000ad3459:  ff 4d 00                 decl     (%rbp)
0x4000ad345c:  74 17                    je       0x4000ad3475

----------------
IN: 
0x4000ad3475:  e9 29 fa ff ff           jmp      0x4000ad2ea3

----------------
IN: 
0x4000ad2ea3:  48 83 c4 68              addq     $0x68, %rsp
0x4000ad2ea7:  5b                       popq     %rbx
0x4000ad2ea8:  5d                       popq     %rbp
0x4000ad2ea9:  41 5c                    popq     %r12
0x4000ad2eab:  41 5d                    popq     %r13
0x4000ad2ead:  41 5e                    popq     %r14
0x4000ad2eaf:  41 5f                    popq     %r15
0x4000ad2eb1:  c3                       retq     

----------------
IN: 
0x4000ad753c:  48 83 c4 28              addq     $0x28, %rsp
0x4000ad7540:  5b                       popq     %rbx
0x4000ad7541:  5d                       popq     %rbp
0x4000ad7542:  41 5c                    popq     %r12
0x4000ad7544:  41 5d                    popq     %r13
0x4000ad7546:  c3                       retq     

----------------
IN: free_array
0x00400bea:  90                       nop      
0x00400beb:  c9                       leave    
0x00400bec:  c3                       retq     

----------------
IN: main
0x00400ca4:  48 8b 45 c8              movq     -0x38(%rbp), %rax
0x00400ca8:  48 89 c6                 movq     %rax, %rsi
0x00400cab:  bf 68 0d 40 00           movl     $0x400d68, %edi
0x00400cb0:  b8 00 00 00 00           movl     $0, %eax
0x00400cb5:  e8 56 f9 ff ff           callq    0x400610

----------------
IN: 
0x00400610:  ff 25 1a 1a 20 00        jmpq     *0x201a1a(%rip)

----------------
IN: 
0x00400616:  68 03 00 00 00           pushq    $3
0x0040061b:  e9 b0 ff ff ff           jmp      0x4005d0

----------------
IN: 
0x4000aa8800:  48 81 ec d8 00 00 00     subq     $0xd8, %rsp
0x4000aa8807:  84 c0                    testb    %al, %al
0x4000aa8809:  48 89 74 24 28           movq     %rsi, 0x28(%rsp)
0x4000aa880e:  48 89 54 24 30           movq     %rdx, 0x30(%rsp)
0x4000aa8813:  48 89 4c 24 38           movq     %rcx, 0x38(%rsp)
0x4000aa8818:  4c 89 44 24 40           movq     %r8, 0x40(%rsp)
0x4000aa881d:  4c 89 4c 24 48           movq     %r9, 0x48(%rsp)
0x4000aa8822:  74 37                    je       0x4000aa885b

----------------
IN: 
0x4000aa885b:  48 8d 84 24 e0 00 00 00  leaq     0xe0(%rsp), %rax
0x4000aa8863:  48 89 fe                 movq     %rdi, %rsi
0x4000aa8866:  48 8d 54 24 08           leaq     8(%rsp), %rdx
0x4000aa886b:  48 89 44 24 10           movq     %rax, 0x10(%rsp)
0x4000aa8870:  48 8d 44 24 20           leaq     0x20(%rsp), %rax
0x4000aa8875:  c7 44 24 08 08 00 00 00  movl     $8, 8(%rsp)
0x4000aa887d:  c7 44 24 0c 30 00 00 00  movl     $0x30, 0xc(%rsp)
0x4000aa8885:  48 89 44 24 18           movq     %rax, 0x18(%rsp)
0x4000aa888a:  48 8b 05 bf e6 36 00     movq     0x36e6bf(%rip), %rax
0x4000aa8891:  48 8b 38                 movq     (%rax), %rdi
0x4000aa8894:  e8 d7 78 ff ff           callq    0x4000aa0170

----------------
IN: 
0x4000aa0170:  55                       pushq    %rbp
0x4000aa0171:  48 89 e5                 movq     %rsp, %rbp
0x4000aa0174:  41 57                    pushq    %r15
0x4000aa0176:  41 56                    pushq    %r14
0x4000aa0178:  41 55                    pushq    %r13
0x4000aa017a:  41 54                    pushq    %r12
0x4000aa017c:  53                       pushq    %rbx
0x4000aa017d:  48 81 ec 48 05 00 00     subq     $0x548, %rsp
0x4000aa0184:  48 8b 05 ed 6c 37 00     movq     0x376ced(%rip), %rax
0x4000aa018b:  64 8b 00                 movl     %fs:(%rax), %eax
0x4000aa018e:  89 85 5c fb ff ff        movl     %eax, -0x4a4(%rbp)
0x4000aa0194:  8b 87 c0 00 00 00        movl     0xc0(%rdi), %eax
0x4000aa019a:  85 c0                    testl    %eax, %eax
0x4000aa019c:  0f 85 ee 00 00 00        jne      0x4000aa0290

----------------
IN: 
0x4000aa01a2:  c7 87 c0 00 00 00 ff ff  movl     $0xffffffff, 0xc0(%rdi)
0x4000aa01aa:  ff ff
0x4000aa01ac:  8b 0f                    movl     (%rdi), %ecx
0x4000aa01ae:  f6 c1 08                 testb    $8, %cl
0x4000aa01b1:  0f 85 01 03 00 00        jne      0x4000aa04b8

----------------
IN: 
0x4000aa01b7:  48 85 f6                 testq    %rsi, %rsi
0x4000aa01ba:  0f 84 15 03 00 00        je       0x4000aa04d5

----------------
IN: 
0x4000aa01c0:  f6 c1 02                 testb    $2, %cl
0x4000aa01c3:  49 89 d5                 movq     %rdx, %r13
0x4000aa01c6:  49 89 f4                 movq     %rsi, %r12
0x4000aa01c9:  48 89 fb                 movq     %rdi, %rbx
0x4000aa01cc:  0f 85 56 01 00 00        jne      0x4000aa0328

----------------
IN: 
0x4000aa01d2:  48 8b 02                 movq     (%rdx), %rax
0x4000aa01d5:  be 25 00 00 00           movl     $0x25, %esi
0x4000aa01da:  4c 89 e7                 movq     %r12, %rdi
0x4000aa01dd:  89 8d 50 fb ff ff        movl     %ecx, -0x4b0(%rbp)
0x4000aa01e3:  45 31 f6                 xorl     %r14d, %r14d
0x4000aa01e6:  48 89 85 a8 fb ff ff     movq     %rax, -0x458(%rbp)
0x4000aa01ed:  48 8b 42 08              movq     8(%rdx), %rax
0x4000aa01f1:  48 89 85 b0 fb ff ff     movq     %rax, -0x450(%rbp)
0x4000aa01f8:  48 8b 42 10              movq     0x10(%rdx), %rax
0x4000aa01fc:  48 89 85 b8 fb ff ff     movq     %rax, -0x448(%rbp)
0x4000aa0203:  e8 58 95 04 00           callq    0x4000ae9760

----------------
IN: 
0x4000ae9760:  66 0f 6e ce              movd     %esi, %xmm1
0x4000ae9764:  89 f8                    movl     %edi, %eax
0x4000ae9766:  25 ff 0f 00 00           andl     $0xfff, %eax
0x4000ae976b:  66 0f 60 c9              punpcklbw %xmm1, %xmm1
0x4000ae976f:  3d c0 0f 00 00           cmpl     $0xfc0, %eax
0x4000ae9774:  66 0f 61 c9              punpcklwd %xmm1, %xmm1
0x4000ae9778:  66 0f 70 c9 00           pshufd   $0, %xmm1, %xmm1
0x4000ae977d:  0f 8f 4d 01 00 00        jg       0x4000ae98d0

----------------
IN: 
0x4000ae9783:  f3 0f 6f 07              movdqu   (%rdi), %xmm0
0x4000ae9787:  66 0f ef db              pxor     %xmm3, %xmm3
0x4000ae978b:  66 0f 6f e0              movdqa   %xmm0, %xmm4
0x4000ae978f:  66 0f 74 c1              pcmpeqb  %xmm1, %xmm0
0x4000ae9793:  66 0f 74 e3              pcmpeqb  %xmm3, %xmm4
0x4000ae9797:  66 0f eb c4              por      %xmm4, %xmm0
0x4000ae979b:  66 0f d7 c0              pmovmskb %xmm0, %eax
0x4000ae979f:  85 c0                    testl    %eax, %eax
0x4000ae97a1:  74 0d                    je       0x4000ae97b0

----------------
IN: 
0x4000ae97a3:  0f bc c0                 bsfl     %eax, %eax
0x4000ae97a6:  48 8d 04 07              leaq     (%rdi, %rax), %rax
0x4000ae97aa:  c3                       retq     

----------------
IN: 
0x4000aa0208:  8b 8d 50 fb ff ff        movl     -0x4b0(%rbp), %ecx
0x4000aa020e:  49 89 c7                 movq     %rax, %r15
0x4000aa0211:  48 89 85 68 fb ff ff     movq     %rax, -0x498(%rbp)
0x4000aa0218:  80 e5 80                 andb     $0x80, %ch
0x4000aa021b:  0f 84 7f 00 00 00        je       0x4000aa02a0

----------------
IN: 
0x4000aa02a0:  44 8b 35 89 c4 37 00     movl     0x37c489(%rip), %r14d
0x4000aa02a7:  45 85 f6                 testl    %r14d, %r14d
0x4000aa02aa:  0f 85 00 01 00 00        jne      0x4000aa03b0

----------------
IN: 
0x4000aa02b0:  48 8b 05 b9 6c 37 00     movq     0x376cb9(%rip), %rax
0x4000aa02b7:  48 89 9d c8 fb ff ff     movq     %rbx, -0x438(%rbp)
0x4000aa02be:  48 89 85 c0 fb ff ff     movq     %rax, -0x440(%rbp)
0x4000aa02c5:  48 8b 93 88 00 00 00     movq     0x88(%rbx), %rdx
0x4000aa02cc:  64 4c 8b 04 25 10 00 00  movq     %fs:0x10, %r8
0x4000aa02d4:  00
0x4000aa02d5:  4c 3b 42 08              cmpq     8(%rdx), %r8
0x4000aa02d9:  74 3e                    je       0x4000aa0319

----------------
IN: 
0x4000aa02db:  be 01 00 00 00           movl     $1, %esi
0x4000aa02e0:  31 c0                    xorl     %eax, %eax
0x4000aa02e2:  83 3d 57 c4 37 00 00     cmpl     $0, 0x37c457(%rip)
0x4000aa02e9:  74 08                    je       0x4000aa02f3

----------------
IN: 
0x4000aa02f3:  0f b1 32                 cmpxchgl %esi, (%rdx)
0x4000aa02f6:  74 16                    je       0x4000aa030e

----------------
IN: 
0x4000aa030e:  48 8b 93 88 00 00 00     movq     0x88(%rbx), %rdx
0x4000aa0315:  4c 89 42 08              movq     %r8, 8(%rdx)
0x4000aa0319:  83 42 04 01              addl     $1, 4(%rdx)
0x4000aa031d:  e9 ff fe ff ff           jmp      0x4000aa0221

----------------
IN: 
0x4000aa0221:  48 8b 83 d8 00 00 00     movq     0xd8(%rbx), %rax
0x4000aa0228:  4c 89 f9                 movq     %r15, %rcx
0x4000aa022b:  4c 89 e6                 movq     %r12, %rsi
0x4000aa022e:  4c 29 e1                 subq     %r12, %rcx
0x4000aa0231:  48 89 df                 movq     %rbx, %rdi
0x4000aa0234:  48 89 ca                 movq     %rcx, %rdx
0x4000aa0237:  48 89 8d 50 fb ff ff     movq     %rcx, -0x4b0(%rbp)
0x4000aa023e:  ff 50 38                 callq    *0x38(%rax)

----------------
IN: 
0x4000acc1e0:  31 c0                    xorl     %eax, %eax
0x4000acc1e2:  48 85 d2                 testq    %rdx, %rdx
0x4000acc1e5:  0f 84 84 00 00 00        je       0x4000acc26f

----------------
IN: 
0x4000acc1eb:  41 57                    pushq    %r15
0x4000acc1ed:  41 56                    pushq    %r14
0x4000acc1ef:  41 55                    pushq    %r13
0x4000acc1f1:  41 54                    pushq    %r12
0x4000acc1f3:  49 89 f5                 movq     %rsi, %r13
0x4000acc1f6:  55                       pushq    %rbp
0x4000acc1f7:  53                       pushq    %rbx
0x4000acc1f8:  49 89 d4                 movq     %rdx, %r12
0x4000acc1fb:  48 89 fb                 movq     %rdi, %rbx
0x4000acc1fe:  48 83 ec 08              subq     $8, %rsp
0x4000acc202:  8b 07                    movl     (%rdi), %eax
0x4000acc204:  25 00 0a 00 00           andl     $0xa00, %eax
0x4000acc209:  3d 00 0a 00 00           cmpl     $0xa00, %eax
0x4000acc20e:  0f 84 bc 00 00 00        je       0x4000acc2d0

----------------
IN: 
0x4000acc214:  48 8b 57 30              movq     0x30(%rdi), %rdx
0x4000acc218:  48 8b 7f 28              movq     0x28(%rdi), %rdi
0x4000acc21c:  48 39 fa                 cmpq     %rdi, %rdx
0x4000acc21f:  76 57                    jbe      0x4000acc278

----------------
IN: 
0x4000acc278:  48 8b 83 d8 00 00 00     movq     0xd8(%rbx), %rax
0x4000acc27f:  be ff ff ff ff           movl     $0xffffffff, %esi
0x4000acc284:  48 89 df                 movq     %rbx, %rdi
0x4000acc287:  4c 89 e5                 movq     %r12, %rbp
0x4000acc28a:  ff 50 18                 callq    *0x18(%rax)

----------------
IN: 
0x4000acd730:  8b 0f                    movl     (%rdi), %ecx
0x4000acd732:  f6 c1 08                 testb    $8, %cl
0x4000acd735:  0f 85 95 01 00 00        jne      0x4000acd8d0

----------------
IN: 
0x4000acd73b:  f6 c5 08                 testb    $8, %ch
0x4000acd73e:  41 54                    pushq    %r12
0x4000acd740:  55                       pushq    %rbp
0x4000acd741:  89 f5                    movl     %esi, %ebp
0x4000acd743:  53                       pushq    %rbx
0x4000acd744:  48 89 fb                 movq     %rdi, %rbx
0x4000acd747:  74 4f                    je       0x4000acd798

----------------
IN: 
0x4000acd798:  48 83 7f 20 00           cmpq     $0, 0x20(%rdi)
0x4000acd79d:  0f 84 4d 01 00 00        je       0x4000acd8f0

----------------
IN: 
0x4000acd8f0:  48 89 df                 movq     %rbx, %rdi
0x4000acd8f3:  e8 68 0c 00 00           callq    0x4000ace560

----------------
IN: 
0x4000ace560:  48 83 7f 38 00           cmpq     $0, 0x38(%rdi)
0x4000ace565:  74 09                    je       0x4000ace570

----------------
IN: 
0x4000ace570:  41 54                    pushq    %r12
0x4000ace572:  55                       pushq    %rbp
0x4000ace573:  53                       pushq    %rbx
0x4000ace574:  8b 07                    movl     (%rdi), %eax
0x4000ace576:  48 89 fb                 movq     %rdi, %rbx
0x4000ace579:  a8 02                    testb    $2, %al
0x4000ace57b:  74 0a                    je       0x4000ace587

----------------
IN: 
0x4000ace587:  48 8b 83 d8 00 00 00     movq     0xd8(%rbx), %rax
0x4000ace58e:  48 89 df                 movq     %rbx, %rdi
0x4000ace591:  ff 50 68                 callq    *0x68(%rax)

----------------
IN: 
0x4000ac0180:  41 54                    pushq    %r12
0x4000ac0182:  55                       pushq    %rbp
0x4000ac0183:  48 89 fd                 movq     %rdi, %rbp
0x4000ac0186:  53                       pushq    %rbx
0x4000ac0187:  48 81 ec 90 00 00 00     subq     $0x90, %rsp
0x4000ac018e:  8b 47 70                 movl     0x70(%rdi), %eax
0x4000ac0191:  85 c0                    testl    %eax, %eax
0x4000ac0193:  78 33                    js       0x4000ac01c8

----------------
IN: 
0x4000ac0195:  48 8b 87 d8 00 00 00     movq     0xd8(%rdi), %rax
0x4000ac019c:  48 89 e6                 movq     %rsp, %rsi
0x4000ac019f:  ff 90 90 00 00 00        callq    *0x90(%rax)

----------------
IN: 
0x4000acbb60:  48 89 f2                 movq     %rsi, %rdx
0x4000acbb63:  8b 77 70                 movl     0x70(%rdi), %esi
0x4000acbb66:  bf 01 00 00 00           movl     $1, %edi
0x4000acbb6b:  e9 b0 e0 07 00           jmp      0x4000b49c20

----------------
IN: 
0x4000b49c20:  83 ff 01                 cmpl     $1, %edi
0x4000b49c23:  89 f0                    movl     %esi, %eax
0x4000b49c25:  77 31                    ja       0x4000b49c58

----------------
IN: 
0x4000b49c27:  48 63 f8                 movslq   %eax, %rdi
0x4000b49c2a:  48 89 d6                 movq     %rdx, %rsi
0x4000b49c2d:  b8 05 00 00 00           movl     $5, %eax
0x4000b49c32:  0f 05                    syscall  

----------------
IN: 
0x4000b49c34:  48 3d 00 f0 ff ff        cmpq     $-0x1000, %rax
0x4000b49c3a:  77 04                    ja       0x4000b49c40

----------------
IN: 
0x4000b49c3c:  f3 c3                    retq     

----------------
IN: 
0x4000ac01a5:  85 c0                    testl    %eax, %eax
0x4000ac01a7:  78 1f                    js       0x4000ac01c8

----------------
IN: 
0x4000ac01a9:  8b 44 24 18              movl     0x18(%rsp), %eax
0x4000ac01ad:  25 00 f0 00 00           andl     $0xf000, %eax
0x4000ac01b2:  3d 00 20 00 00           cmpl     $0x2000, %eax
0x4000ac01b7:  74 4f                    je       0x4000ac0208

----------------
IN: 
0x4000ac0208:  48 8b 44 24 28           movq     0x28(%rsp), %rax
0x4000ac020d:  48 89 c2                 movq     %rax, %rdx
0x4000ac0210:  48 c1 e8 20              shrq     $0x20, %rax
0x4000ac0214:  48 c1 ea 08              shrq     $8, %rdx
0x4000ac0218:  25 00 f0 ff ff           andl     $0xfffff000, %eax
0x4000ac021d:  81 e2 ff 0f 00 00        andl     $0xfff, %edx
0x4000ac0223:  09 d0                    orl      %edx, %eax
0x4000ac0225:  2d 88 00 00 00           subl     $0x88, %eax
0x4000ac022a:  83 f8 07                 cmpl     $7, %eax
0x4000ac022d:  77 11                    ja       0x4000ac0240

----------------
IN: 
0x4000ac022f:  81 4d 00 00 02 00 00     orl      $0x200, (%rbp)
0x4000ac0236:  eb 81                    jmp      0x4000ac01b9

----------------
IN: 
0x4000ac01b9:  48 8b 5c 24 38           movq     0x38(%rsp), %rbx
0x4000ac01be:  48 85 db                 testq    %rbx, %rbx
0x4000ac01c1:  7f 0a                    jg       0x4000ac01cd

----------------
IN: 
0x4000ac01cd:  48 89 df                 movq     %rbx, %rdi
0x4000ac01d0:  e8 cb 26 fb ff           callq    0x4000a728a0

----------------
IN: 
0x4000a728a0:  ff 25 a2 45 3a 00        jmpq     *0x3a45a2(%rip)

----------------
IN: 
0x4000ad7149:  48 8b 05 40 fc 33 00     movq     0x33fc40(%rip), %rax
0x4000ad7150:  48 89 fd                 movq     %rdi, %rbp
0x4000ad7153:  64 48 8b 18              movq     %fs:(%rax), %rbx
0x4000ad7157:  48 85 db                 testq    %rbx, %rbx
0x4000ad715a:  74 0c                    je       0x4000ad7168

----------------
IN: 
0x4000ad715c:  8b 43 04                 movl     4(%rbx), %eax
0x4000ad715f:  83 e0 04                 andl     $4, %eax
0x4000ad7162:  0f 84 98 00 00 00        je       0x4000ad7200

----------------
IN: 
0x4000ad7200:  be 01 00 00 00           movl     $1, %esi
0x4000ad7205:  83 3d 34 55 34 00 00     cmpl     $0, 0x345534(%rip)
0x4000ad720c:  74 08                    je       0x4000ad7216

----------------
IN: 
0x4000ad7216:  0f b1 33                 cmpxchgl %esi, (%rbx)
0x4000ad7219:  74 16                    je       0x4000ad7231

----------------
IN: 
0x4000ad7231:  e9 43 ff ff ff           jmp      0x4000ad7179

----------------
IN: 
0x4000ad7179:  48 89 ee                 movq     %rbp, %rsi
0x4000ad717c:  48 89 df                 movq     %rbx, %rdi
0x4000ad717f:  e8 fc d9 ff ff           callq    0x4000ad4b80

----------------
IN: 
0x4000ad53e0:  41 8d 44 24 30           leal     0x30(%r12), %eax
0x4000ad53e5:  89 04 24                 movl     %eax, (%rsp)
0x4000ad53e8:  e9 e3 f8 ff ff           jmp      0x4000ad4cd0

----------------
IN: 
0x4000ad51de:  89 c2                    movl     %eax, %edx
0x4000ad51e0:  8b b4 93 58 08 00 00     movl     0x858(%rbx, %rdx, 4), %esi
0x4000ad51e7:  85 f6                    testl    %esi, %esi
0x4000ad51e9:  0f 85 a0 02 00 00        jne      0x4000ad548f

----------------
IN: 
0x4000ad51ef:  8d 47 02                 leal     2(%rdi), %eax
0x4000ad51f2:  83 f8 04                 cmpl     $4, %eax
0x4000ad51f5:  74 24                    je       0x4000ad521b

----------------
IN: 
0x4000ad5758:  48 8d 0d c1 23 34 00     leaq     0x3423c1(%rip), %rcx
0x4000ad575f:  48 29 e8                 subq     %rbp, %rax
0x4000ad5762:  48 8d 34 2a              leaq     (%rdx, %rbp), %rsi
0x4000ad5766:  48 39 cb                 cmpq     %rcx, %rbx
0x4000ad5769:  48 89 73 58              movq     %rsi, 0x58(%rbx)
0x4000ad576d:  0f 95 c1                 setne    %cl
0x4000ad5770:  48 83 cd 01              orq      $1, %rbp
0x4000ad5774:  48 83 c8 01              orq      $1, %rax
0x4000ad5778:  0f b6 c9                 movzbl   %cl, %ecx
0x4000ad577b:  48 c1 e1 02              shlq     $2, %rcx
0x4000ad577f:  48 09 e9                 orq      %rbp, %rcx
0x4000ad5782:  48 89 4a 08              movq     %rcx, 8(%rdx)
0x4000ad5786:  48 89 46 08              movq     %rax, 8(%rsi)
0x4000ad578a:  48 8d 4a 10              leaq     0x10(%rdx), %rcx
0x4000ad578e:  8b 05 60 40 34 00        movl     0x344060(%rip), %eax
0x4000ad5794:  85 c0                    testl    %eax, %eax
0x4000ad5796:  0f 84 16 f7 ff ff        je       0x4000ad4eb2

----------------
IN: 
0x4000ad7184:  48 85 c0                 testq    %rax, %rax
0x4000ad7187:  48 89 c2                 movq     %rax, %rdx
0x4000ad718a:  0f 84 d8 00 00 00        je       0x4000ad7268

----------------
IN: 
0x4000ad7190:  83 3d a9 55 34 00 00     cmpl     $0, 0x3455a9(%rip)
0x4000ad7197:  74 07                    je       0x4000ad71a0

----------------
IN: 
0x4000ad71a0:  ff 0b                    decl     (%rbx)
0x4000ad71a2:  74 16                    je       0x4000ad71ba

----------------
IN: 
0x4000ad71ba:  48 85 d2                 testq    %rdx, %rdx
0x4000ad71bd:  0f 84 e5 00 00 00        je       0x4000ad72a8

----------------
IN: 
0x4000ad71c3:  48 8b 42 f8              movq     -8(%rdx), %rax
0x4000ad71c7:  a8 02                    testb    $2, %al
0x4000ad71c9:  75 21                    jne      0x4000ad71ec

----------------
IN: 
0x4000ad71cb:  a8 04                    testb    $4, %al
0x4000ad71cd:  48 8d 0d 4c 09 34 00     leaq     0x34094c(%rip), %rcx
0x4000ad71d4:  74 0d                    je       0x4000ad71e3

----------------
IN: 
0x4000ad71e3:  48 39 d9                 cmpq     %rbx, %rcx
0x4000ad71e6:  0f 85 c3 00 00 00        jne      0x4000ad72af

----------------
IN: 
0x4000ad71ec:  48 89 d0                 movq     %rdx, %rax
0x4000ad71ef:  48 83 c4 08              addq     $8, %rsp
0x4000ad71f3:  5b                       popq     %rbx
0x4000ad71f4:  5d                       popq     %rbp
0x4000ad71f5:  c3                       retq     

----------------
IN: 
0x4000ac01d5:  48 89 c6                 movq     %rax, %rsi
0x4000ac01d8:  b8 ff ff ff ff           movl     $0xffffffff, %eax
0x4000ac01dd:  48 85 f6                 testq    %rsi, %rsi
0x4000ac01e0:  74 16                    je       0x4000ac01f8

----------------
IN: 
0x4000ac01e2:  48 8d 14 1e              leaq     (%rsi, %rbx), %rdx
0x4000ac01e6:  b9 01 00 00 00           movl     $1, %ecx
0x4000ac01eb:  48 89 ef                 movq     %rbp, %rdi
0x4000ac01ee:  e8 0d e3 00 00           callq    0x4000ace500

----------------
IN: 
0x4000ace500:  53                       pushq    %rbx
0x4000ace501:  48 89 fb                 movq     %rdi, %rbx
0x4000ace504:  48 83 ec 20              subq     $0x20, %rsp
0x4000ace508:  48 8b 7f 38              movq     0x38(%rdi), %rdi
0x4000ace50c:  8b 03                    movl     (%rbx), %eax
0x4000ace50e:  48 85 ff                 testq    %rdi, %rdi
0x4000ace511:  74 04                    je       0x4000ace517

----------------
IN: 
0x4000ace517:  48 89 53 40              movq     %rdx, 0x40(%rbx)
0x4000ace51b:  89 c2                    movl     %eax, %edx
0x4000ace51d:  83 c8 01                 orl      $1, %eax
0x4000ace520:  83 e2 fe                 andl     $0xfffffffffffffffe, %edx
0x4000ace523:  85 c9                    testl    %ecx, %ecx
0x4000ace525:  48 89 73 38              movq     %rsi, 0x38(%rbx)
0x4000ace529:  0f 45 c2                 cmovnel  %edx, %eax
0x4000ace52c:  89 03                    movl     %eax, (%rbx)
0x4000ace52e:  48 83 c4 20              addq     $0x20, %rsp
0x4000ace532:  5b                       popq     %rbx
0x4000ace533:  c3                       retq     

----------------
IN: 
0x4000ac01f3:  b8 01 00 00 00           movl     $1, %eax
0x4000ac01f8:  48 81 c4 90 00 00 00     addq     $0x90, %rsp
0x4000ac01ff:  5b                       popq     %rbx
0x4000ac0200:  5d                       popq     %rbp
0x4000ac0201:  41 5c                    popq     %r12
0x4000ac0203:  c3                       retq     

----------------
IN: 
0x4000ace594:  83 f8 ff                 cmpl     $0xff, %eax
0x4000ace597:  74 07                    je       0x4000ace5a0

----------------
IN: 
0x4000ace599:  5b                       popq     %rbx
0x4000ace59a:  5d                       popq     %rbp
0x4000ace59b:  41 5c                    popq     %r12
0x4000ace59d:  c3                       retq     

----------------
IN: 
0x4000acd8f8:  48 8b 53 38              movq     0x38(%rbx), %rdx
0x4000acd8fc:  8b 0b                    movl     (%rbx), %ecx
0x4000acd8fe:  48 89 53 18              movq     %rdx, 0x18(%rbx)
0x4000acd902:  48 89 53 08              movq     %rdx, 8(%rbx)
0x4000acd906:  48 89 53 10              movq     %rdx, 0x10(%rbx)
0x4000acd90a:  e9 98 fe ff ff           jmp      0x4000acd7a7

----------------
IN: 
0x4000acd7a7:  f6 c5 01                 testb    $1, %ch
0x4000acd7aa:  0f 85 80 00 00 00        jne      0x4000acd830

----------------
IN: 
0x4000acd7b0:  48 8b 43 40              movq     0x40(%rbx), %rax
0x4000acd7b4:  48 39 d0                 cmpq     %rdx, %rax
0x4000acd7b7:  0f 84 03 01 00 00        je       0x4000acd8c0

----------------
IN: 
0x4000acd7bd:  48 8b 73 10              movq     0x10(%rbx), %rsi
0x4000acd7c1:  8b bb c0 00 00 00        movl     0xc0(%rbx), %edi
0x4000acd7c7:  48 89 43 30              movq     %rax, 0x30(%rbx)
0x4000acd7cb:  89 c8                    movl     %ecx, %eax
0x4000acd7cd:  80 cc 08                 orb      $8, %ah
0x4000acd7d0:  48 89 73 08              movq     %rsi, 8(%rbx)
0x4000acd7d4:  48 89 73 18              movq     %rsi, 0x18(%rbx)
0x4000acd7d8:  48 89 53 28              movq     %rdx, 0x28(%rbx)
0x4000acd7dc:  48 89 53 20              movq     %rdx, 0x20(%rbx)
0x4000acd7e0:  48 89 d6                 movq     %rdx, %rsi
0x4000acd7e3:  85 ff                    testl    %edi, %edi
0x4000acd7e5:  89 03                    movl     %eax, (%rbx)
0x4000acd7e7:  0f 8f 6d ff ff ff        jg       0x4000acd75a

----------------
IN: 
0x4000acd7ed:  81 e1 02 02 00 00        andl     $0x202, %ecx
0x4000acd7f3:  0f 84 61 ff ff ff        je       0x4000acd75a

----------------
IN: 
0x4000acd7f9:  48 89 53 30              movq     %rdx, 0x30(%rbx)
0x4000acd7fd:  e9 58 ff ff ff           jmp      0x4000acd75a

----------------
IN: 
0x4000acd75a:  83 fd ff                 cmpl     $0xff, %ebp
0x4000acd75d:  0f 84 4d 01 00 00        je       0x4000acd8b0

----------------
IN: 
0x4000acd8b0:  48 89 df                 movq     %rbx, %rdi
0x4000acd8b3:  48 29 f2                 subq     %rsi, %rdx
0x4000acd8b6:  5b                       popq     %rbx
0x4000acd8b7:  5d                       popq     %rbp
0x4000acd8b8:  41 5c                    popq     %r12
0x4000acd8ba:  e9 d1 fa ff ff           jmp      0x4000acd390

----------------
IN: 
0x4000acd390:  31 c0                    xorl     %eax, %eax
0x4000acd392:  48 85 d2                 testq    %rdx, %rdx
0x4000acd395:  75 09                    jne      0x4000acd3a0

----------------
IN: 
0x4000acd397:  c3                       retq     

----------------
IN: 
0x4000acc28d:  83 f8 ff                 cmpl     $0xff, %eax
0x4000acc290:  74 c9                    je       0x4000acc25b

----------------
IN: 
0x4000acc292:  48 8b 4b 40              movq     0x40(%rbx), %rcx
0x4000acc296:  48 2b 4b 38              subq     0x38(%rbx), %rcx
0x4000acc29a:  31 d2                    xorl     %edx, %edx
0x4000acc29c:  48 83 f9 7f              cmpq     $0x7f, %rcx
0x4000acc2a0:  0f 87 ad 00 00 00        ja       0x4000acc353

----------------
IN: 
0x4000acc353:  48 89 e8                 movq     %rbp, %rax
0x4000acc356:  31 d2                    xorl     %edx, %edx
0x4000acc358:  48 f7 f1                 divq     %rcx
0x4000acc35b:  e9 46 ff ff ff           jmp      0x4000acc2a6

----------------
IN: 
0x4000acc2a6:  49 89 ee                 movq     %rbp, %r14
0x4000acc2a9:  49 29 d6                 subq     %rdx, %r14
0x4000acc2ac:  0f 85 ae 00 00 00        jne      0x4000acc360

----------------
IN: 
0x4000acc2b2:  48 85 ed                 testq    %rbp, %rbp
0x4000acc2b5:  74 a4                    je       0x4000acc25b

----------------
IN: 
0x4000acc2b7:  4b 8d 74 35 00           leaq     (%r13, %r14), %rsi
0x4000acc2bc:  48 89 ea                 movq     %rbp, %rdx
0x4000acc2bf:  48 89 df                 movq     %rbx, %rdi
0x4000acc2c2:  e8 69 23 00 00           callq    0x4000ace630

----------------
IN: 
0x4000ace630:  48 85 d2                 testq    %rdx, %rdx
0x4000ace633:  0f 84 b7 00 00 00        je       0x4000ace6f0

----------------
IN: 
0x4000ace639:  41 56                    pushq    %r14
0x4000ace63b:  41 55                    pushq    %r13
0x4000ace63d:  49 89 f6                 movq     %rsi, %r14
0x4000ace640:  41 54                    pushq    %r12
0x4000ace642:  55                       pushq    %rbp
0x4000ace643:  49 89 fc                 movq     %rdi, %r12
0x4000ace646:  53                       pushq    %rbx
0x4000ace647:  49 89 d5                 movq     %rdx, %r13
0x4000ace64a:  48 89 d5                 movq     %rdx, %rbp
0x4000ace64d:  0f 1f 00                 nopl     (%rax)
0x4000ace650:  49 8b 7c 24 28           movq     0x28(%r12), %rdi
0x4000ace655:  49 8b 5c 24 30           movq     0x30(%r12), %rbx
0x4000ace65a:  48 39 df                 cmpq     %rbx, %rdi
0x4000ace65d:  73 36                    jae      0x4000ace695

----------------
IN: 
0x4000ace695:  48 85 ed                 testq    %rbp, %rbp
0x4000ace698:  74 3e                    je       0x4000ace6d8

----------------
IN: 
0x4000ace69a:  49 8b 84 24 d8 00 00 00  movq     0xd8(%r12), %rax
0x4000ace6a2:  41 0f b6 36              movzbl   (%r14), %esi
0x4000ace6a6:  4c 89 e7                 movq     %r12, %rdi
0x4000ace6a9:  49 8d 5e 01              leaq     1(%r14), %rbx
0x4000ace6ad:  ff 50 18                 callq    *0x18(%rax)

----------------
IN: 
0x4000acd749:  48 8b 77 20              movq     0x20(%rdi), %rsi
0x4000acd74d:  48 85 f6                 testq    %rsi, %rsi
0x4000acd750:  0f 84 9a 01 00 00        je       0x4000acd8f0

----------------
IN: 
0x4000acd756:  48 8b 57 28              movq     0x28(%rdi), %rdx
0x4000acd75a:  83 fd ff                 cmpl     $0xff, %ebp
0x4000acd75d:  0f 84 4d 01 00 00        je       0x4000acd8b0

----------------
IN: 
0x4000acd763:  48 39 53 40              cmpq     %rdx, 0x40(%rbx)
0x4000acd767:  0f 84 fb 00 00 00        je       0x4000acd868

----------------
IN: 
0x4000acd76d:  48 8d 42 01              leaq     1(%rdx), %rax
0x4000acd771:  48 89 43 28              movq     %rax, 0x28(%rbx)
0x4000acd775:  40 88 2a                 movb     %bpl, (%rdx)
0x4000acd778:  8b 03                    movl     (%rbx), %eax
0x4000acd77a:  a8 02                    testb    $2, %al
0x4000acd77c:  0f 85 86 00 00 00        jne      0x4000acd808

----------------
IN: 
0x4000acd782:  f6 c4 02                 testb    $2, %ah
0x4000acd785:  74 05                    je       0x4000acd78c

----------------
IN: 
0x4000acd787:  83 fd 0a                 cmpl     $0xa, %ebp
0x4000acd78a:  74 7c                    je       0x4000acd808

----------------
IN: 
0x4000acd78c:  40 0f b6 c5              movzbl   %bpl, %eax
0x4000acd790:  5b                       popq     %rbx
0x4000acd791:  5d                       popq     %rbp
0x4000acd792:  41 5c                    popq     %r12
0x4000acd794:  c3                       retq     

----------------
IN: 
0x4000ace6b0:  83 f8 ff                 cmpl     $0xff, %eax
0x4000ace6b3:  74 23                    je       0x4000ace6d8

----------------
IN: 
0x4000ace6b5:  48 83 ed 01              subq     $1, %rbp
0x4000ace6b9:  49 89 de                 movq     %rbx, %r14
0x4000ace6bc:  eb 92                    jmp      0x4000ace650

----------------
IN: 
0x4000ace650:  49 8b 7c 24 28           movq     0x28(%r12), %rdi
0x4000ace655:  49 8b 5c 24 30           movq     0x30(%r12), %rbx
0x4000ace65a:  48 39 df                 cmpq     %rbx, %rdi
0x4000ace65d:  73 36                    jae      0x4000ace695

----------------
IN: 
0x4000ace6d8:  4c 89 e8                 movq     %r13, %rax
0x4000ace6db:  5b                       popq     %rbx
0x4000ace6dc:  48 29 e8                 subq     %rbp, %rax
0x4000ace6df:  5d                       popq     %rbp
0x4000ace6e0:  41 5c                    popq     %r12
0x4000ace6e2:  41 5d                    popq     %r13
0x4000ace6e4:  41 5e                    popq     %r14
0x4000ace6e6:  c3                       retq     

----------------
IN: 
0x4000acc2c7:  48 29 c5                 subq     %rax, %rbp
0x4000acc2ca:  eb 8f                    jmp      0x4000acc25b

----------------
IN: 
0x4000acc25b:  4c 89 e0                 movq     %r12, %rax
0x4000acc25e:  48 29 e8                 subq     %rbp, %rax
0x4000acc261:  48 83 c4 08              addq     $8, %rsp
0x4000acc265:  5b                       popq     %rbx
0x4000acc266:  5d                       popq     %rbp
0x4000acc267:  41 5c                    popq     %r12
0x4000acc269:  41 5d                    popq     %r13
0x4000acc26b:  41 5e                    popq     %r14
0x4000acc26d:  41 5f                    popq     %r15
0x4000acc26f:  f3 c3                    retq     

----------------
IN: 
0x4000aa0241:  48 8b 8d 50 fb ff ff     movq     -0x4b0(%rbp), %rcx
0x4000aa0248:  41 b9 ff ff ff ff        movl     $0xffffffff, %r9d
0x4000aa024e:  48 39 c1                 cmpq     %rax, %rcx
0x4000aa0251:  0f 84 99 01 00 00        je       0x4000aa03f0

----------------
IN: 
0x4000aa03f0:  48 81 f9 ff ff ff 7f     cmpq     $0x7fffffff, %rcx
0x4000aa03f7:  7e 17                    jle      0x4000aa0410

----------------
IN: 
0x4000aa0410:  48 8b 95 68 fb ff ff     movq     -0x498(%rbp), %rdx
0x4000aa0417:  41 89 c9                 movl     %ecx, %r9d
0x4000aa041a:  80 3a 00                 cmpb     $0, (%rdx)
0x4000aa041d:  0f 84 34 fe ff ff        je       0x4000aa0257

----------------
IN: 
0x4000aa0423:  48 83 3d 3d c0 37 00 00  cmpq     $0, 0x37c03d(%rip)
0x4000aa042b:  0f 84 bc 00 00 00        je       0x4000aa04ed

----------------
IN: 
0x4000aa04ed:  48 83 3d 7b bf 37 00 00  cmpq     $0, 0x37bf7b(%rip)
0x4000aa04f5:  0f 85 36 ff ff ff        jne      0x4000aa0431

----------------
IN: 
0x4000aa04fb:  48 83 3d 35 82 37 00 00  cmpq     $0, 0x378235(%rip)
0x4000aa0503:  48 8d 85 e0 fb ff ff     leaq     -0x420(%rbp), %rax
0x4000aa050a:  c7 85 58 fb ff ff 00 00  movl     $0, -0x4a8(%rbp)
0x4000aa0512:  00 00
0x4000aa0514:  c7 85 3c fb ff ff 00 00  movl     $0, -0x4c4(%rbp)
0x4000aa051c:  00 00
0x4000aa051e:  48 c7 85 50 fb ff ff ff  movq     $-1, -0x4b0(%rbp)
0x4000aa0526:  ff ff ff
0x4000aa0529:  48 c7 85 48 fb ff ff 00  movq     $0, -0x4b8(%rbp)
0x4000aa0531:  00 00 00
0x4000aa0534:  48 89 85 40 fb ff ff     movq     %rax, -0x4c0(%rbp)
0x4000aa053b:  0f 85 28 ff ff ff        jne      0x4000aa0469

----------------
IN: 
0x4000aa0541:  48 8d 85 68 fb ff ff     leaq     -0x498(%rbp), %rax
0x4000aa0548:  48 89 85 b0 fa ff ff     movq     %rax, -0x550(%rbp)
0x4000aa054f:  48 8d 85 90 fb ff ff     leaq     -0x470(%rbp), %rax
0x4000aa0556:  48 89 85 00 fb ff ff     movq     %rax, -0x500(%rbp)
0x4000aa055d:  48 8d 85 80 fb ff ff     leaq     -0x480(%rbp), %rax
0x4000aa0564:  48 89 85 c8 fa ff ff     movq     %rax, -0x538(%rbp)
0x4000aa056b:  48 8d 85 78 fb ff ff     leaq     -0x488(%rbp), %rax
0x4000aa0572:  48 89 85 a8 fa ff ff     movq     %rax, -0x558(%rbp)
0x4000aa0579:  48 8d 42 01              leaq     1(%rdx), %rax
0x4000aa057d:  48 89 85 68 fb ff ff     movq     %rax, -0x498(%rbp)
0x4000aa0584:  44 0f be 52 01           movsbl   1(%rdx), %r10d
0x4000aa0589:  31 c0                    xorl     %eax, %eax
0x4000aa058b:  41 8d 52 e0              leal     -0x20(%r10), %edx
0x4000aa058f:  80 fa 5a                 cmpb     $0x5a, %dl
0x4000aa0592:  77 1f                    ja       0x4000aa05b3

----------------
IN: 
0x4000aa0594:  41 0f be c2              movsbl   %r10b, %eax
0x4000aa0598:  48 8d 15 21 8e 13 00     leaq     0x138e21(%rip), %rdx
0x4000aa059f:  83 e8 20                 subl     $0x20, %eax
0x4000aa05a2:  48 98                    cltq     
0x4000aa05a4:  0f b6 14 02              movzbl   (%rdx, %rax), %edx
0x4000aa05a8:  48 8d 05 91 8d 13 00     leaq     0x138d91(%rip), %rax
0x4000aa05af:  48 63 04 90              movslq   (%rax, %rdx, 4), %rax
0x4000aa05b3:  48 8d 35 67 23 00 00     leaq     0x2367(%rip), %rsi
0x4000aa05ba:  c6 85 e8 fa ff ff 20     movb     $0x20, -0x518(%rbp)
0x4000aa05c1:  c7 85 b8 fa ff ff 00 00  movl     $0, -0x548(%rbp)
0x4000aa05c9:  00 00
0x4000aa05cb:  c7 85 28 fb ff ff ff ff  movl     $0xffffffff, -0x4d8(%rbp)
0x4000aa05d3:  ff ff
0x4000aa05d5:  c7 85 30 fb ff ff 00 00  movl     $0, -0x4d0(%rbp)
0x4000aa05dd:  00 00
0x4000aa05df:  45 31 c0                 xorl     %r8d, %r8d
0x4000aa05e2:  48 01 f0                 addq     %rsi, %rax
0x4000aa05e5:  48 8b b5 40 fb ff ff     movq     -0x4c0(%rbp), %rsi
0x4000aa05ec:  c7 85 d0 fa ff ff 00 00  movl     $0, -0x530(%rbp)
0x4000aa05f4:  00 00
0x4000aa05f6:  c7 85 20 fb ff ff 00 00  movl     $0, -0x4e0(%rbp)
0x4000aa05fe:  00 00
0x4000aa0600:  c7 85 e0 fa ff ff 00 00  movl     $0, -0x520(%rbp)
0x4000aa0608:  00 00
0x4000aa060a:  c7 85 10 fb ff ff 00 00  movl     $0, -0x4f0(%rbp)
0x4000aa0612:  00 00
0x4000aa0614:  c7 85 c0 fa ff ff 00 00  movl     $0, -0x540(%rbp)
0x4000aa061c:  00 00
0x4000aa061e:  48 81 c6 e8 03 00 00     addq     $0x3e8, %rsi
0x4000aa0625:  c7 85 f0 fa ff ff 00 00  movl     $0, -0x510(%rbp)
0x4000aa062d:  00 00
0x4000aa062f:  c7 85 08 fb ff ff 00 00  movl     $0, -0x4f8(%rbp)
0x4000aa0637:  00 00
0x4000aa0639:  c7 85 f8 fa ff ff 00 00  movl     $0, -0x508(%rbp)
0x4000aa0641:  00 00
0x4000aa0643:  c7 85 38 fb ff ff 00 00  movl     $0, -0x4c8(%rbp)
0x4000aa064b:  00 00
0x4000aa064d:  48 89 b5 18 fb ff ff     movq     %rsi, -0x4e8(%rbp)
0x4000aa0654:  ff e0                    jmpq     *%rax

----------------
IN: 
0x4000aa09fe:  48 8b 85 68 fb ff ff     movq     -0x498(%rbp), %rax
0x4000aa0a05:  48 8d 50 01              leaq     1(%rax), %rdx
0x4000aa0a09:  48 89 95 68 fb ff ff     movq     %rdx, -0x498(%rbp)
0x4000aa0a10:  44 0f be 50 01           movsbl   1(%rax), %r10d
0x4000aa0a15:  31 c0                    xorl     %eax, %eax
0x4000aa0a17:  41 8d 52 e0              leal     -0x20(%r10), %edx
0x4000aa0a1b:  80 fa 5a                 cmpb     $0x5a, %dl
0x4000aa0a1e:  77 1f                    ja       0x4000aa0a3f

----------------
IN: 
0x4000aa0a20:  41 0f be c2              movsbl   %r10b, %eax
0x4000aa0a24:  48 8d 15 95 89 13 00     leaq     0x138995(%rip), %rdx
0x4000aa0a2b:  83 e8 20                 subl     $0x20, %eax
0x4000aa0a2e:  48 98                    cltq     
0x4000aa0a30:  0f b6 14 02              movzbl   (%rdx, %rax), %edx
0x4000aa0a34:  48 8d 05 85 86 13 00     leaq     0x138685(%rip), %rax
0x4000aa0a3b:  48 63 04 90              movslq   (%rax, %rdx, 4), %rax
0x4000aa0a3f:  48 8d 35 db 1e 00 00     leaq     0x1edb(%rip), %rsi
0x4000aa0a46:  c7 85 20 fb ff ff 01 00  movl     $1, -0x4e0(%rbp)
0x4000aa0a4e:  00 00
0x4000aa0a50:  48 01 f0                 addq     %rsi, %rax
0x4000aa0a53:  ff e0                    jmpq     *%rax

----------------
IN: 
0x4000aa0b48:  83 bd 20 fb ff ff 00     cmpl     $0, -0x4e0(%rbp)
0x4000aa0b4f:  41 8b 55 00              movl     (%r13), %edx
0x4000aa0b53:  0f 84 36 0c 00 00        je       0x4000aa178f

----------------
IN: 
0x4000aa0b59:  83 fa 2f                 cmpl     $0x2f, %edx
0x4000aa0b5c:  0f 87 1c 0c 00 00        ja       0x4000aa177e

----------------
IN: 
0x4000aa0b62:  89 d0                    movl     %edx, %eax
0x4000aa0b64:  49 03 45 10              addq     0x10(%r13), %rax
0x4000aa0b68:  83 c2 08                 addl     $8, %edx
0x4000aa0b6b:  41 89 55 00              movl     %edx, (%r13)
0x4000aa0b6f:  48 8b 00                 movq     (%rax), %rax
0x4000aa0b72:  48 89 c6                 movq     %rax, %rsi
0x4000aa0b75:  48 c1 ee 3f              shrq     $0x3f, %rsi
0x4000aa0b79:  48 85 c0                 testq    %rax, %rax
0x4000aa0b7c:  48 89 b5 d0 fa ff ff     movq     %rsi, -0x530(%rbp)
0x4000aa0b83:  0f 88 eb 0c 00 00        js       0x4000aa1874

----------------
IN: 
0x4000aa0b89:  48 89 85 e0 fa ff ff     movq     %rax, -0x520(%rbp)
0x4000aa0b90:  c7 85 10 fb ff ff 0a 00  movl     $0xa, -0x4f0(%rbp)
0x4000aa0b98:  00 00
0x4000aa0b9a:  8b 85 28 fb ff ff        movl     -0x4d8(%rbp), %eax
0x4000aa0ba0:  85 c0                    testl    %eax, %eax
0x4000aa0ba2:  0f 88 3d 06 00 00        js       0x4000aa11e5

----------------
IN: 
0x4000aa11e5:  c7 85 28 fb ff ff 01 00  movl     $1, -0x4d8(%rbp)
0x4000aa11ed:  00 00
0x4000aa11ef:  e9 01 ff ff ff           jmp      0x4000aa10f5

----------------
IN: 
0x4000aa10f5:  41 80 fa 58              cmpb     $0x58, %r10b
0x4000aa10f9:  8b 95 10 fb ff ff        movl     -0x4f0(%rbp), %edx
0x4000aa10ff:  48 8b b5 18 fb ff ff     movq     -0x4e8(%rbp), %rsi
0x4000aa1106:  48 8b bd e0 fa ff ff     movq     -0x520(%rbp), %rdi
0x4000aa110d:  0f 94 c1                 sete     %cl
0x4000aa1110:  4c 89 85 90 fa ff ff     movq     %r8, -0x570(%rbp)
0x4000aa1117:  0f b6 c9                 movzbl   %cl, %ecx
0x4000aa111a:  44 89 8d 98 fa ff ff     movl     %r9d, -0x568(%rbp)
0x4000aa1121:  44 88 95 a0 fa ff ff     movb     %r10b, -0x560(%rbp)
0x4000aa1128:  e8 83 c5 ff ff           callq    0x4000a9d6b0

----------------
IN: 
0x4000a9d6b0:  48 8d 05 09 b8 13 00     leaq     0x13b809(%rip), %rax
0x4000a9d6b7:  4c 8d 05 c2 b7 13 00     leaq     0x13b7c2(%rip), %r8
0x4000a9d6be:  85 c9                    testl    %ecx, %ecx
0x4000a9d6c0:  4c 0f 45 c0              cmovneq  %rax, %r8
0x4000a9d6c4:  83 fa 0a                 cmpl     $0xa, %edx
0x4000a9d6c7:  74 77                    je       0x4000a9d740

----------------
IN: 
0x4000a9d740:  48 b9 cd cc cc cc cc cc  movabsq  $-0x3333333333333333, %rcx
0x4000a9d748:  cc cc
0x4000a9d74a:  66 0f 1f 44 00 00        nopw     (%rax, %rax)
0x4000a9d750:  48 89 f8                 movq     %rdi, %rax
0x4000a9d753:  48 83 ee 01              subq     $1, %rsi
0x4000a9d757:  48 f7 e1                 mulq     %rcx
0x4000a9d75a:  48 c1 ea 03              shrq     $3, %rdx
0x4000a9d75e:  48 8d 04 92              leaq     (%rdx, %rdx, 4), %rax
0x4000a9d762:  48 01 c0                 addq     %rax, %rax
0x4000a9d765:  48 29 c7                 subq     %rax, %rdi
0x4000a9d768:  48 85 d2                 testq    %rdx, %rdx
0x4000a9d76b:  41 0f b6 04 38           movzbl   (%r8, %rdi), %eax
0x4000a9d770:  48 89 d7                 movq     %rdx, %rdi
0x4000a9d773:  88 06                    movb     %al, (%rsi)
0x4000a9d775:  75 d9                    jne      0x4000a9d750

----------------
IN: 
0x4000a9d750:  48 89 f8                 movq     %rdi, %rax
0x4000a9d753:  48 83 ee 01              subq     $1, %rsi
0x4000a9d757:  48 f7 e1                 mulq     %rcx
0x4000a9d75a:  48 c1 ea 03              shrq     $3, %rdx
0x4000a9d75e:  48 8d 04 92              leaq     (%rdx, %rdx, 4), %rax
0x4000a9d762:  48 01 c0                 addq     %rax, %rax
0x4000a9d765:  48 29 c7                 subq     %rax, %rdi
0x4000a9d768:  48 85 d2                 testq    %rdx, %rdx
0x4000a9d76b:  41 0f b6 04 38           movzbl   (%r8, %rdi), %eax
0x4000a9d770:  48 89 d7                 movq     %rdx, %rdi
0x4000a9d773:  88 06                    movb     %al, (%rsi)
0x4000a9d775:  75 d9                    jne      0x4000a9d750

----------------
IN: 
0x4000a9d777:  48 89 f0                 movq     %rsi, %rax
0x4000a9d77a:  c3                       retq     

----------------
IN: 
0x4000aa112d:  83 bd c0 fa ff ff 00     cmpl     $0, -0x540(%rbp)
0x4000aa1134:  48 89 85 20 fb ff ff     movq     %rax, -0x4e0(%rbp)
0x4000aa113b:  44 0f b6 95 a0 fa ff ff  movzbl   -0x560(%rbp), %r10d
0x4000aa1143:  44 8b 8d 98 fa ff ff     movl     -0x568(%rbp), %r9d
0x4000aa114a:  4c 8b 85 90 fa ff ff     movq     -0x570(%rbp), %r8
0x4000aa1151:  74 10                    je       0x4000aa1163

----------------
IN: 
0x4000aa1163:  83 bd 10 fb ff ff 0a     cmpl     $0xa, -0x4f0(%rbp)
0x4000aa116a:  75 0d                    jne      0x4000aa1179

----------------
IN: 
0x4000aa116c:  83 bd b8 fa ff ff 00     cmpl     $0, -0x548(%rbp)
0x4000aa1173:  0f 85 c8 00 00 00        jne      0x4000aa1241

----------------
IN: 
0x4000aa1179:  48 83 bd e0 fa ff ff 00  cmpq     $0, -0x520(%rbp)
0x4000aa1181:  4c 63 9d 28 fb ff ff     movslq   -0x4d8(%rbp), %r11
0x4000aa1188:  48 8b 85 18 fb ff ff     movq     -0x4e8(%rbp), %rax
0x4000aa118f:  48 8b b5 20 fb ff ff     movq     -0x4e0(%rbp), %rsi
0x4000aa1196:  0f 95 85 28 fb ff ff     setne    -0x4d8(%rbp)
0x4000aa119d:  0f b6 95 28 fb ff ff     movzbl   -0x4d8(%rbp), %edx
0x4000aa11a4:  48 29 f0                 subq     %rsi, %rax
0x4000aa11a7:  49 39 c3                 cmpq     %rax, %r11
0x4000aa11aa:  0f 9e c0                 setle    %al
0x4000aa11ad:  20 d0                    andb     %dl, %al
0x4000aa11af:  0f 84 4c fa ff ff        je       0x4000aa0c01

----------------
IN: 
0x4000aa11b5:  83 bd 10 fb ff ff 08     cmpl     $8, -0x4f0(%rbp)
0x4000aa11bc:  0f 94 c2                 sete     %dl
0x4000aa11bf:  22 95 38 fb ff ff        andb     -0x4c8(%rbp), %dl
0x4000aa11c5:  88 95 28 fb ff ff        movb     %dl, -0x4d8(%rbp)
0x4000aa11cb:  0f 84 e5 06 00 00        je       0x4000aa18b6

----------------
IN: 
0x4000aa18b6:  88 85 28 fb ff ff        movb     %al, -0x4d8(%rbp)
0x4000aa18bc:  e9 40 f3 ff ff           jmp      0x4000aa0c01

----------------
IN: 
0x4000aa0c01:  48 8b 85 18 fb ff ff     movq     -0x4e8(%rbp), %rax
0x4000aa0c08:  48 2b 85 20 fb ff ff     subq     -0x4e0(%rbp), %rax
0x4000aa0c0f:  49 29 c3                 subq     %rax, %r11
0x4000aa0c12:  48 89 c6                 movq     %rax, %rsi
0x4000aa0c15:  48 89 85 18 fb ff ff     movq     %rax, -0x4e8(%rbp)
0x4000aa0c1c:  b8 00 00 00 00           movl     $0, %eax
0x4000aa0c21:  49 0f 49 c3              cmovnsq  %r11, %rax
0x4000aa0c25:  83 bd 08 fb ff ff 00     cmpl     $0, -0x4f8(%rbp)
0x4000aa0c2c:  48 89 c2                 movq     %rax, %rdx
0x4000aa0c2f:  48 89 85 c0 fa ff ff     movq     %rax, -0x540(%rbp)
0x4000aa0c36:  89 85 e0 fa ff ff        movl     %eax, -0x520(%rbp)
0x4000aa0c3c:  0f 85 fb 01 00 00        jne      0x4000aa0e3d

----------------
IN: 
0x4000aa0c42:  8b 85 30 fb ff ff        movl     -0x4d0(%rbp), %eax
0x4000aa0c48:  29 f0                    subl     %esi, %eax
0x4000aa0c4a:  29 d0                    subl     %edx, %eax
0x4000aa0c4c:  80 bd 28 fb ff ff 00     cmpb     $0, -0x4d8(%rbp)
0x4000aa0c53:  89 85 30 fb ff ff        movl     %eax, -0x4d0(%rbp)
0x4000aa0c59:  74 20                    je       0x4000aa0c7b

----------------
IN: 
0x4000aa0c5b:  83 bd 10 fb ff ff 10     cmpl     $0x10, -0x4f0(%rbp)
0x4000aa0c62:  75 17                    jne      0x4000aa0c7b

----------------
IN: 
0x4000aa0c7b:  8b 85 d0 fa ff ff        movl     -0x530(%rbp), %eax
0x4000aa0c81:  0b 85 f8 fa ff ff        orl      -0x508(%rbp), %eax
0x4000aa0c87:  0b 85 f0 fa ff ff        orl      -0x510(%rbp), %eax
0x4000aa0c8d:  83 f8 01                 cmpl     $1, %eax
0x4000aa0c90:  83 95 30 fb ff ff ff     adcl     $-1, -0x4d0(%rbp)
0x4000aa0c97:  80 bd e8 fa ff ff 20     cmpb     $0x20, -0x518(%rbp)
0x4000aa0c9e:  0f 84 6e 07 00 00        je       0x4000aa1412

----------------
IN: 
0x4000aa1412:  8b 85 30 fb ff ff        movl     -0x4d0(%rbp), %eax
0x4000aa1418:  85 c0                    testl    %eax, %eax
0x4000aa141a:  0f 8e ab 00 00 00        jle      0x4000aa14cb

----------------
IN: 
0x4000aa14cb:  c7 85 30 fb ff ff 00 00  movl     $0, -0x4d0(%rbp)
0x4000aa14d3:  00 00
0x4000aa14d5:  e9 ca f7 ff ff           jmp      0x4000aa0ca4

----------------
IN: 
0x4000aa0ca4:  83 bd d0 fa ff ff 00     cmpl     $0, -0x530(%rbp)
0x4000aa0cab:  0f 84 fc 03 00 00        je       0x4000aa10ad

----------------
IN: 
0x4000aa10ad:  83 bd f0 fa ff ff 00     cmpl     $0, -0x510(%rbp)
0x4000aa10b4:  0f 84 93 07 00 00        je       0x4000aa184d

----------------
IN: 
0x4000aa184d:  83 bd f8 fa ff ff 00     cmpl     $0, -0x508(%rbp)
0x4000aa1854:  0f 84 81 f4 ff ff        je       0x4000aa0cdb

----------------
IN: 
0x4000aa0cdb:  80 bd 28 fb ff ff 00     cmpb     $0, -0x4d8(%rbp)
0x4000aa0ce2:  74 62                    je       0x4000aa0d46

----------------
IN: 
0x4000aa0ce4:  83 bd 10 fb ff ff 10     cmpl     $0x10, -0x4f0(%rbp)
0x4000aa0ceb:  75 59                    jne      0x4000aa0d46

----------------
IN: 
0x4000aa0d46:  44 8b 95 30 fb ff ff     movl     -0x4d0(%rbp), %r10d
0x4000aa0d4d:  44 03 95 e0 fa ff ff     addl     -0x520(%rbp), %r10d
0x4000aa0d54:  45 85 d2                 testl    %r10d, %r10d
0x4000aa0d57:  7e 75                    jle      0x4000aa0dce

----------------
IN: 
0x4000aa0dce:  45 85 c9                 testl    %r9d, %r9d
0x4000aa0dd1:  0f 88 d5 06 00 00        js       0x4000aa14ac

----------------
IN: 
0x4000aa0dd7:  48 8b 83 d8 00 00 00     movq     0xd8(%rbx), %rax
0x4000aa0dde:  4c 89 85 28 fb ff ff     movq     %r8, -0x4d8(%rbp)
0x4000aa0de5:  48 89 df                 movq     %rbx, %rdi
0x4000aa0de8:  48 8b b5 20 fb ff ff     movq     -0x4e0(%rbp), %rsi
0x4000aa0def:  44 89 8d 30 fb ff ff     movl     %r9d, -0x4d0(%rbp)
0x4000aa0df6:  48 8b 95 18 fb ff ff     movq     -0x4e8(%rbp), %rdx
0x4000aa0dfd:  ff 50 38                 callq    *0x38(%rax)

----------------
IN: 
0x4000acc2d0:  48 8b 7f 28              movq     0x28(%rdi), %rdi
0x4000acc2d4:  48 8b 53 40              movq     0x40(%rbx), %rdx
0x4000acc2d8:  48 29 fa                 subq     %rdi, %rdx
0x4000acc2db:  49 39 d4                 cmpq     %rdx, %r12
0x4000acc2de:  0f 87 40 ff ff ff        ja       0x4000acc224

----------------
IN: 
0x4000acc2e4:  4a 8d 0c 26              leaq     (%rsi, %r12), %rcx
0x4000acc2e8:  48 39 ce                 cmpq     %rcx, %rsi
0x4000acc2eb:  73 25                    jae      0x4000acc312

----------------
IN: 
0x4000acc2ed:  80 79 ff 0a              cmpb     $0xa, -1(%rcx)
0x4000acc2f1:  48 8d 41 ff              leaq     -1(%rcx), %rax
0x4000acc2f5:  75 16                    jne      0x4000acc30d

----------------
IN: 
0x4000acc30d:  49 39 c5                 cmpq     %rax, %r13
0x4000acc310:  75 ee                    jne      0x4000acc300

----------------
IN: 
0x4000acc300:  48 83 e8 01              subq     $1, %rax
0x4000acc304:  80 38 0a                 cmpb     $0xa, (%rax)
0x4000acc307:  0f 84 d3 00 00 00        je       0x4000acc3e0

----------------
IN: 
0x4000acc312:  45 31 f6                 xorl     %r14d, %r14d
0x4000acc315:  e9 16 ff ff ff           jmp      0x4000acc230

----------------
IN: 
0x4000acc230:  49 39 d4                 cmpq     %rdx, %r12
0x4000acc233:  4c 89 ee                 movq     %r13, %rsi
0x4000acc236:  49 0f 46 d4              cmovbeq  %r12, %rdx
0x4000acc23a:  48 89 d5                 movq     %rdx, %rbp
0x4000acc23d:  e8 6e 61 01 00           callq    0x4000ae23b0

----------------
IN: 
0x4000ae23b0:  48 83 fa 20              cmpq     $0x20, %rdx
0x4000ae23b4:  73 7a                    jae      0x4000ae2430

----------------
IN: 
0x4000ae23b6:  f6 c2 01                 testb    $1, %dl
0x4000ae23b9:  74 0b                    je       0x4000ae23c6

----------------
IN: 
0x4000ae23c6:  f6 c2 02                 testb    $2, %dl
0x4000ae23c9:  74 0e                    je       0x4000ae23d9

----------------
IN: 
0x4000ae23d9:  f6 c2 04                 testb    $4, %dl
0x4000ae23dc:  74 0c                    je       0x4000ae23ea

----------------
IN: 
0x4000ae23de:  8b 0e                    movl     (%rsi), %ecx
0x4000ae23e0:  89 0f                    movl     %ecx, (%rdi)
0x4000ae23e2:  48 83 c6 04              addq     $4, %rsi
0x4000ae23e6:  48 83 c7 04              addq     $4, %rdi
0x4000ae23ea:  f6 c2 08                 testb    $8, %dl
0x4000ae23ed:  74 11                    je       0x4000ae2400

----------------
IN: 
0x4000ae2400:  81 e2 f0 00 00 00        andl     $0xf0, %edx
0x4000ae2406:  74 23                    je       0x4000ae242b

----------------
IN: 
0x4000ae242b:  48 89 f8                 movq     %rdi, %rax
0x4000ae242e:  c3                       retq     

----------------
IN: 
0x4000acc242:  48 89 43 28              movq     %rax, 0x28(%rbx)
0x4000acc246:  4c 89 e0                 movq     %r12, %rax
0x4000acc249:  49 01 ed                 addq     %rbp, %r13
0x4000acc24c:  48 29 e8                 subq     %rbp, %rax
0x4000acc24f:  48 89 c5                 movq     %rax, %rbp
0x4000acc252:  49 01 ee                 addq     %rbp, %r14
0x4000acc255:  0f 85 12 02 00 00        jne      0x4000acc46d

----------------
IN: 
0x4000aa0e00:  48 8b b5 18 fb ff ff     movq     -0x4e8(%rbp), %rsi
0x4000aa0e07:  4c 8b 85 28 fb ff ff     movq     -0x4d8(%rbp), %r8
0x4000aa0e0e:  48 39 c6                 cmpq     %rax, %rsi
0x4000aa0e11:  0f 85 70 fb ff ff        jne      0x4000aa0987

----------------
IN: 
0x4000aa0e17:  44 8b 8d 30 fb ff ff     movl     -0x4d0(%rbp), %r9d
0x4000aa0e1e:  b8 ff ff ff 7f           movl     $0x7fffffff, %eax
0x4000aa0e23:  44 29 c8                 subl     %r9d, %eax
0x4000aa0e26:  48 98                    cltq     
0x4000aa0e28:  48 39 c6                 cmpq     %rax, %rsi
0x4000aa0e2b:  0f 8f 0b 07 00 00        jg       0x4000aa153c

----------------
IN: 
0x4000aa0e31:  44 03 8d 18 fb ff ff     addl     -0x4e8(%rbp), %r9d
0x4000aa0e38:  e9 5f fa ff ff           jmp      0x4000aa089c

----------------
IN: 
0x4000aa089c:  83 85 3c fb ff ff 01     addl     $1, -0x4c4(%rbp)
0x4000aa08a3:  4d 85 c0                 testq    %r8, %r8
0x4000aa08a6:  74 16                    je       0x4000aa08be

----------------
IN: 
0x4000aa08be:  48 8b 85 68 fb ff ff     movq     -0x498(%rbp), %rax
0x4000aa08c5:  be 25 00 00 00           movl     $0x25, %esi
0x4000aa08ca:  44 89 8d 28 fb ff ff     movl     %r9d, -0x4d8(%rbp)
0x4000aa08d1:  48 8d 48 01              leaq     1(%rax), %rcx
0x4000aa08d5:  48 89 cf                 movq     %rcx, %rdi
0x4000aa08d8:  48 89 8d 68 fb ff ff     movq     %rcx, -0x498(%rbp)
0x4000aa08df:  48 89 8d 30 fb ff ff     movq     %rcx, -0x4d0(%rbp)
0x4000aa08e6:  e8 75 8e 04 00           callq    0x4000ae9760

----------------
IN: 
0x4000aa08eb:  44 8b 8d 28 fb ff ff     movl     -0x4d8(%rbp), %r9d
0x4000aa08f2:  48 89 85 68 fb ff ff     movq     %rax, -0x498(%rbp)
0x4000aa08f9:  48 8b 8d 30 fb ff ff     movq     -0x4d0(%rbp), %rcx
0x4000aa0900:  45 85 c9                 testl    %r9d, %r9d
0x4000aa0903:  0f 88 96 00 00 00        js       0x4000aa099f

----------------
IN: 
0x4000aa0909:  48 29 c8                 subq     %rcx, %rax
0x4000aa090c:  48 89 ce                 movq     %rcx, %rsi
0x4000aa090f:  48 89 8d 30 fb ff ff     movq     %rcx, -0x4d0(%rbp)
0x4000aa0916:  48 89 c2                 movq     %rax, %rdx
0x4000aa0919:  48 8b 83 d8 00 00 00     movq     0xd8(%rbx), %rax
0x4000aa0920:  44 89 8d 28 fb ff ff     movl     %r9d, -0x4d8(%rbp)
0x4000aa0927:  48 89 df                 movq     %rbx, %rdi
0x4000aa092a:  ff 50 38                 callq    *0x38(%rax)

----------------
IN: 
0x4000acc2f7:  e9 e4 00 00 00           jmp      0x4000acc3e0

----------------
IN: 
0x4000acc3e0:  4c 29 e8                 subq     %r13, %rax
0x4000acc3e3:  41 be 01 00 00 00        movl     $1, %r14d
0x4000acc3e9:  4c 89 e5                 movq     %r12, %rbp
0x4000acc3ec:  48 83 c0 01              addq     $1, %rax
0x4000acc3f0:  48 89 c2                 movq     %rax, %rdx
0x4000acc3f3:  0f 85 37 fe ff ff        jne      0x4000acc230

----------------
IN: 
0x4000acc46d:  48 8b 83 d8 00 00 00     movq     0xd8(%rbx), %rax
0x4000acc474:  83 ce ff                 orl      $0xffffffffffffffff, %esi
0x4000acc477:  48 89 df                 movq     %rbx, %rdi
0x4000acc47a:  ff 50 18                 callq    *0x18(%rax)

----------------
IN: 
0x4000acd3a0:  41 55                    pushq    %r13
0x4000acd3a2:  41 54                    pushq    %r12
0x4000acd3a4:  49 89 f4                 movq     %rsi, %r12
0x4000acd3a7:  55                       pushq    %rbp
0x4000acd3a8:  53                       pushq    %rbx
0x4000acd3a9:  48 89 d5                 movq     %rdx, %rbp
0x4000acd3ac:  48 89 fb                 movq     %rdi, %rbx
0x4000acd3af:  48 83 ec 08              subq     $8, %rsp
0x4000acd3b3:  f7 07 00 10 00 00        testl    $0x1000, (%rdi)
0x4000acd3b9:  0f 85 a1 00 00 00        jne      0x4000acd460

----------------
IN: 
0x4000acd3bf:  48 8b 47 10              movq     0x10(%rdi), %rax
0x4000acd3c3:  48 8b 77 20              movq     0x20(%rdi), %rsi
0x4000acd3c7:  48 39 f0                 cmpq     %rsi, %rax
0x4000acd3ca:  74 2a                    je       0x4000acd3f6

----------------
IN: 
0x4000acd3f6:  48 8b 83 d8 00 00 00     movq     0xd8(%rbx), %rax
0x4000acd3fd:  48 89 ea                 movq     %rbp, %rdx
0x4000acd400:  4c 89 e6                 movq     %r12, %rsi
0x4000acd403:  48 89 df                 movq     %rbx, %rdi
0x4000acd406:  ff 50 78                 callq    *0x78(%rax)

----------------
IN: 
0x4000acbb70:  48 85 d2                 testq    %rdx, %rdx
0x4000acbb73:  41 56                    pushq    %r14
0x4000acbb75:  49 89 fe                 movq     %rdi, %r14
0x4000acbb78:  41 55                    pushq    %r13
0x4000acbb7a:  41 54                    pushq    %r12
0x4000acbb7c:  55                       pushq    %rbp
0x4000acbb7d:  53                       pushq    %rbx
0x4000acbb7e:  0f 8e 93 00 00 00        jle      0x4000acbc17

----------------
IN: 
0x4000acbb84:  48 89 f5                 movq     %rsi, %rbp
0x4000acbb87:  49 89 d4                 movq     %rdx, %r12
0x4000acbb8a:  48 89 d3                 movq     %rdx, %rbx
0x4000acbb8d:  41 bd 01 00 00 00        movl     $1, %r13d
0x4000acbb93:  0f 1f 44 00 00           nopl     (%rax, %rax)
0x4000acbb98:  41 f6 46 74 02           testb    $2, 0x74(%r14)
0x4000acbb9d:  74 51                    je       0x4000acbbf0

----------------
IN: 
0x4000acbbf0:  41 8b 7e 70              movl     0x70(%r14), %edi
0x4000acbbf4:  48 89 da                 movq     %rbx, %rdx
0x4000acbbf7:  48 89 ee                 movq     %rbp, %rsi
0x4000acbbfa:  e8 b1 e6 07 00           callq    0x4000b4a2b0

----------------
IN: 
0x4000b4a2b0:  83 3d 89 24 2d 00 00     cmpl     $0, 0x2d2489(%rip)
0x4000b4a2b7:  75 10                    jne      0x4000b4a2c9

----------------
IN: 
0x4000b4a2b9:  b8 01 00 00 00           movl     $1, %eax
0x4000b4a2be:  0f 05                    syscall  

----------------
IN: 
0x4000b4a2c0:  48 3d 01 f0 ff ff        cmpq     $-0xfff, %rax
0x4000b4a2c6:  73 31                    jae      0x4000b4a2f9

----------------
IN: 
0x4000b4a2c8:  c3                       retq     

----------------
IN: 
0x4000acbbff:  48 85 c0                 testq    %rax, %rax
0x4000acbc02:  78 be                    js       0x4000acbbc2

----------------
IN: 
0x4000acbc04:  48 29 c3                 subq     %rax, %rbx
0x4000acbc07:  48 01 c5                 addq     %rax, %rbp
0x4000acbc0a:  48 85 db                 testq    %rbx, %rbx
0x4000acbc0d:  7f 89                    jg       0x4000acbb98

----------------
IN: 
0x4000acbc0f:  4c 89 e0                 movq     %r12, %rax
0x4000acbc12:  48 29 d8                 subq     %rbx, %rax
0x4000acbc15:  eb b5                    jmp      0x4000acbbcc

----------------
IN: 
0x4000acbbcc:  49 8b 96 90 00 00 00     movq     0x90(%r14), %rdx
0x4000acbbd3:  48 85 d2                 testq    %rdx, %rdx
0x4000acbbd6:  78 0a                    js       0x4000acbbe2

----------------
IN: 
0x4000acbbe2:  5b                       popq     %rbx
0x4000acbbe3:  5d                       popq     %rbp
0x4000acbbe4:  41 5c                    popq     %r12
0x4000acbbe6:  41 5d                    popq     %r13
0x4000acbbe8:  41 5e                    popq     %r14
0x4000acbbea:  c3                       retq     

----------------
IN: 
0x4000acd409:  49 89 c5                 movq     %rax, %r13
0x4000acd40c:  0f b7 83 80 00 00 00     movzwl   0x80(%rbx), %eax
0x4000acd413:  4d 85 ed                 testq    %r13, %r13
0x4000acd416:  74 05                    je       0x4000acd41d

----------------
IN: 
0x4000acd418:  66 85 c0                 testw    %ax, %ax
0x4000acd41b:  75 63                    jne      0x4000acd480

----------------
IN: 
0x4000acd41d:  8b 93 c0 00 00 00        movl     0xc0(%rbx), %edx
0x4000acd423:  48 8b 43 38              movq     0x38(%rbx), %rax
0x4000acd427:  85 d2                    testl    %edx, %edx
0x4000acd429:  48 89 43 18              movq     %rax, 0x18(%rbx)
0x4000acd42d:  48 89 43 08              movq     %rax, 8(%rbx)
0x4000acd431:  48 89 43 10              movq     %rax, 0x10(%rbx)
0x4000acd435:  48 89 43 28              movq     %rax, 0x28(%rbx)
0x4000acd439:  48 89 43 20              movq     %rax, 0x20(%rbx)
0x4000acd43d:  7e 31                    jle      0x4000acd470

----------------
IN: 
0x4000acd470:  f7 03 02 02 00 00        testl    $0x202, (%rbx)
0x4000acd476:  75 cb                    jne      0x4000acd443

----------------
IN: 
0x4000acd443:  48 89 43 30              movq     %rax, 0x30(%rbx)
0x4000acd447:  31 c0                    xorl     %eax, %eax
0x4000acd449:  4c 39 ed                 cmpq     %r13, %rbp
0x4000acd44c:  0f 95 c0                 setne    %al
0x4000acd44f:  f7 d8                    negl     %eax
0x4000acd451:  48 83 c4 08              addq     $8, %rsp
0x4000acd455:  5b                       popq     %rbx
0x4000acd456:  5d                       popq     %rbp
0x4000acd457:  41 5c                    popq     %r12
0x4000acd459:  41 5d                    popq     %r13
0x4000acd45b:  c3                       retq     

----------------
IN: 
0x4000acc47d:  83 c0 01                 addl     $1, %eax
0x4000acc480:  0f 85 0c fe ff ff        jne      0x4000acc292

----------------
IN: 
0x4000aa092d:  48 8b 95 68 fb ff ff     movq     -0x498(%rbp), %rdx
0x4000aa0934:  48 8b 8d 30 fb ff ff     movq     -0x4d0(%rbp), %rcx
0x4000aa093b:  48 89 d6                 movq     %rdx, %rsi
0x4000aa093e:  48 29 ce                 subq     %rcx, %rsi
0x4000aa0941:  48 39 f0                 cmpq     %rsi, %rax
0x4000aa0944:  75 4e                    jne      0x4000aa0994

----------------
IN: 
0x4000aa0946:  44 8b 8d 28 fb ff ff     movl     -0x4d8(%rbp), %r9d
0x4000aa094d:  b9 ff ff ff 7f           movl     $0x7fffffff, %ecx
0x4000aa0952:  44 29 c9                 subl     %r9d, %ecx
0x4000aa0955:  48 63 c9                 movslq   %ecx, %rcx
0x4000aa0958:  48 39 c8                 cmpq     %rcx, %rax
0x4000aa095b:  0f 8f 8d 00 00 00        jg       0x4000aa09ee

----------------
IN: 
0x4000aa0961:  41 01 c1                 addl     %eax, %r9d
0x4000aa0964:  80 3a 00                 cmpb     $0, (%rdx)
0x4000aa0967:  0f 85 0c fc ff ff        jne      0x4000aa0579

----------------
IN: 
0x4000aa096d:  e9 e5 f8 ff ff           jmp      0x4000aa0257

----------------
IN: 
0x4000aa0257:  f7 03 00 80 00 00        testl    $0x8000, (%rbx)
0x4000aa025d:  75 11                    jne      0x4000aa0270

----------------
IN: 
0x4000aa025f:  48 8b 93 88 00 00 00     movq     0x88(%rbx), %rdx
0x4000aa0266:  83 6a 04 01              subl     $1, 4(%rdx)
0x4000aa026a:  0f 84 d0 00 00 00        je       0x4000aa0340

----------------
IN: 
0x4000aa0340:  48 c7 42 08 00 00 00 00  movq     $0, 8(%rdx)
0x4000aa0348:  83 3d f1 c3 37 00 00     cmpl     $0, 0x37c3f1(%rip)
0x4000aa034f:  74 07                    je       0x4000aa0358

----------------
IN: 
0x4000aa0358:  ff 0a                    decl     (%rdx)
0x4000aa035a:  74 16                    je       0x4000aa0372

----------------
IN: 
0x4000aa0372:  45 85 f6                 testl    %r14d, %r14d
0x4000aa0375:  0f 84 fe fe ff ff        je       0x4000aa0279

----------------
IN: 
0x4000aa0279:  44 89 c8                 movl     %r9d, %eax
0x4000aa027c:  48 8d 65 d8              leaq     -0x28(%rbp), %rsp
0x4000aa0280:  5b                       popq     %rbx
0x4000aa0281:  41 5c                    popq     %r12
0x4000aa0283:  41 5d                    popq     %r13
0x4000aa0285:  41 5e                    popq     %r14
0x4000aa0287:  41 5f                    popq     %r15
0x4000aa0289:  5d                       popq     %rbp
0x4000aa028a:  c3                       retq     

----------------
IN: 
0x4000aa8899:  48 81 c4 d8 00 00 00     addq     $0xd8, %rsp
0x4000aa88a0:  c3                       retq     

----------------
IN: main
0x00400cba:  b8 00 00 00 00           movl     $0, %eax
0x00400cbf:  48 8b 4d f8              movq     -8(%rbp), %rcx
0x00400cc3:  64 48 33 0c 25 28 00 00  xorq     %fs:0x28, %rcx
0x00400ccb:  00
0x00400ccc:  74 05                    je       0x400cd3

----------------
IN: main
0x00400cd3:  c9                       leave    
0x00400cd4:  c3                       retq     

----------------
IN: 
0x4000a73830:  89 c7                    movl     %eax, %edi
0x4000a73832:  e8 f9 97 01 00           callq    0x4000a8d030

----------------
IN: 
0x4000a8d030:  48 8d 35 c1 a5 38 00     leaq     0x38a5c1(%rip), %rsi
0x4000a8d037:  48 83 ec 08              subq     $8, %rsp
0x4000a8d03b:  ba 01 00 00 00           movl     $1, %edx
0x4000a8d040:  e8 cb fe ff ff           callq    0x4000a8cf10

----------------
IN: 
0x4000a8cf10:  41 55                    pushq    %r13
0x4000a8cf12:  41 54                    pushq    %r12
0x4000a8cf14:  41 89 d4                 movl     %edx, %r12d
0x4000a8cf17:  55                       pushq    %rbp
0x4000a8cf18:  53                       pushq    %rbx
0x4000a8cf19:  48 89 f5                 movq     %rsi, %rbp
0x4000a8cf1c:  89 fb                    movl     %edi, %ebx
0x4000a8cf1e:  48 83 ec 08              subq     $8, %rsp
0x4000a8cf22:  e8 99 06 00 00           callq    0x4000a8d5c0

----------------
IN: 
0x4000a8d5c0:  55                       pushq    %rbp
0x4000a8d5c1:  53                       pushq    %rbx
0x4000a8d5c2:  48 83 ec 08              subq     $8, %rsp
0x4000a8d5c6:  48 8b 2d b3 97 38 00     movq     0x3897b3(%rip), %rbp
0x4000a8d5cd:  64 48 8b 5d 00           movq     %fs:(%rbp), %rbx
0x4000a8d5d2:  48 85 db                 testq    %rbx, %rbx
0x4000a8d5d5:  74 47                    je       0x4000a8d61e

----------------
IN: 
0x4000a8d61e:  48 83 c4 08              addq     $8, %rsp
0x4000a8d622:  5b                       popq     %rbx
0x4000a8d623:  5d                       popq     %rbp
0x4000a8d624:  c3                       retq     

----------------
IN: 
0x4000a8cf27:  4c 8b 6d 00              movq     (%rbp), %r13
0x4000a8cf2b:  4d 85 ed                 testq    %r13, %r13
0x4000a8cf2e:  74 50                    je       0x4000a8cf80

----------------
IN: 
0x4000a8cf30:  49 8b 45 08              movq     8(%r13), %rax
0x4000a8cf34:  48 89 c2                 movq     %rax, %rdx
0x4000a8cf37:  48 c1 e2 05              shlq     $5, %rdx
0x4000a8cf3b:  48 85 c0                 testq    %rax, %rax
0x4000a8cf3e:  49 8d 4c 15 f0           leaq     -0x10(%r13, %rdx), %rcx
0x4000a8cf43:  74 2a                    je       0x4000a8cf6f

----------------
IN: 
0x4000a8cf45:  48 83 e8 01              subq     $1, %rax
0x4000a8cf49:  49 89 45 08              movq     %rax, 8(%r13)
0x4000a8cf4d:  48 8b 11                 movq     (%rcx), %rdx
0x4000a8cf50:  48 83 fa 03              cmpq     $3, %rdx
0x4000a8cf54:  0f 84 a6 00 00 00        je       0x4000a8d000

----------------
IN: 
0x4000a8cf5a:  48 83 fa 04              cmpq     $4, %rdx
0x4000a8cf5e:  74 78                    je       0x4000a8cfd8

----------------
IN: 
0x4000a8cfd8:  48 c1 e0 05              shlq     $5, %rax
0x4000a8cfdc:  89 de                    movl     %ebx, %esi
0x4000a8cfde:  4c 01 e8                 addq     %r13, %rax
0x4000a8cfe1:  48 8b 50 18              movq     0x18(%rax), %rdx
0x4000a8cfe5:  48 8b 78 20              movq     0x20(%rax), %rdi
0x4000a8cfe9:  48 c1 ca 11              rorq     $0x11, %rdx
0x4000a8cfed:  64 48 33 14 25 30 00 00  xorq     %fs:0x30, %rdx
0x4000a8cff5:  00
0x4000a8cff6:  ff d2                    callq    *%rdx

----------------
IN: 
0x4000811ac0:  55                       pushq    %rbp
0x4000811ac1:  48 89 e5                 movq     %rsp, %rbp
0x4000811ac4:  41 57                    pushq    %r15
0x4000811ac6:  41 56                    pushq    %r14
0x4000811ac8:  41 55                    pushq    %r13
0x4000811aca:  41 54                    pushq    %r12
0x4000811acc:  53                       pushq    %rbx
0x4000811acd:  48 83 ec 68              subq     $0x68, %rsp
0x4000811ad1:  c7 45 b0 00 00 00 00     movl     $0, -0x50(%rbp)
0x4000811ad8:  48 8b 05 61 5e 21 00     movq     0x215e61(%rip), %rax
0x4000811adf:  48 89 c1                 movq     %rax, %rcx
0x4000811ae2:  48 83 e9 01              subq     $1, %rcx
0x4000811ae6:  48 89 4d c8              movq     %rcx, -0x38(%rbp)
0x4000811aea:  0f 88 69 04 00 00        js       0x4000811f59

----------------
IN: 
0x4000811af0:  48 8d 04 c0              leaq     (%rax, %rax, 8), %rax
0x4000811af4:  48 8d 0d 45 55 21 00     leaq     0x215545(%rip), %rcx
0x4000811afb:  48 c1 e0 04              shlq     $4, %rax
0x4000811aff:  4c 8d a4 01 78 ff ff ff  leaq     -0x88(%rcx, %rax), %r12
0x4000811b07:  eb 2e                    jmp      0x4000811b37

----------------
IN: 
0x4000811b37:  48 8d 3d 0a 5e 21 00     leaq     0x215e0a(%rip), %rdi
0x4000811b3e:  ff 15 04 64 21 00        callq    *0x216404(%rip)

----------------
IN: 
0x4000811b44:  41 8b 0c 24              movl     (%r12), %ecx
0x4000811b48:  85 c9                    testl    %ecx, %ecx
0x4000811b4a:  74 c4                    je       0x4000811b10

----------------
IN: 
0x4000811b4c:  49 8b 44 24 f8           movq     -8(%r12), %rax
0x4000811b51:  0f b6 90 15 03 00 00     movzbl   0x315(%rax), %edx
0x4000811b58:  c0 ea 03                 shrb     $3, %dl
0x4000811b5b:  83 e2 01                 andl     $1, %edx
0x4000811b5e:  39 55 b0                 cmpl     %edx, -0x50(%rbp)
0x4000811b61:  75 ad                    jne      0x4000811b10

----------------
IN: 
0x4000811b63:  89 ca                    movl     %ecx, %edx
0x4000811b65:  48 89 65 98              movq     %rsp, -0x68(%rbp)
0x4000811b69:  48 8d 14 d5 16 00 00 00  leaq     0x16(, %rdx, 8), %rdx
0x4000811b71:  48 c1 ea 04              shrq     $4, %rdx
0x4000811b75:  48 c1 e2 04              shlq     $4, %rdx
0x4000811b79:  48 29 d4                 subq     %rdx, %rsp
0x4000811b7c:  31 d2                    xorl     %edx, %edx
0x4000811b7e:  48 89 e7                 movq     %rsp, %rdi
0x4000811b81:  48 89 65 a8              movq     %rsp, -0x58(%rbp)
0x4000811b85:  eb 12                    jmp      0x4000811b99

----------------
IN: 
0x4000811b99:  48 39 40 28              cmpq     %rax, 0x28(%rax)
0x4000811b9d:  75 f1                    jne      0x4000811b90

----------------
IN: 
0x4000811b9f:  39 d1                    cmpl     %edx, %ecx
0x4000811ba1:  0f 86 85 04 00 00        jbe      0x400081202c

----------------
IN: 
0x4000811ba7:  89 d6                    movl     %edx, %esi
0x4000811ba9:  89 90 dc 03 00 00        movl     %edx, 0x3dc(%rax)
0x4000811baf:  83 80 10 03 00 00 01     addl     $1, 0x310(%rax)
0x4000811bb6:  48 89 04 f7              movq     %rax, (%rdi, %rsi, 8)
0x4000811bba:  48 8b 40 18              movq     0x18(%rax), %rax
0x4000811bbe:  83 c2 01                 addl     $1, %edx
0x4000811bc1:  48 85 c0                 testq    %rax, %rax
0x4000811bc4:  75 d3                    jne      0x4000811b99

----------------
IN: 
0x4000811bc6:  66 2e 0f 1f 84 00 00 00  nopw     %cs:(%rax, %rax)
0x4000811bce:  00 00
0x4000811bd0:  48 83 7d c8 00           cmpq     $0, -0x38(%rbp)
0x4000811bd5:  89 55 b4                 movl     %edx, -0x4c(%rbp)
0x4000811bd8:  0f 94 c0                 sete     %al
0x4000811bdb:  39 ca                    cmpl     %ecx, %edx
0x4000811bdd:  0f 95 c2                 setne    %dl
0x4000811be0:  84 c0                    testb    %al, %al
0x4000811be2:  74 08                    je       0x4000811bec

----------------
IN: 
0x4000811be4:  84 d2                    testb    %dl, %dl
0x4000811be6:  0f 85 5f 04 00 00        jne      0x400081204b

----------------
IN: 
0x4000811bec:  48 83 7d c8 00           cmpq     $0, -0x38(%rbp)
0x4000811bf1:  74 10                    je       0x4000811c03

----------------
IN: 
0x4000811c03:  8b 4d b4                 movl     -0x4c(%rbp), %ecx
0x4000811c06:  48 89 a5 70 ff ff ff     movq     %rsp, -0x90(%rbp)
0x4000811c0d:  48 83 f9 01              cmpq     $1, %rcx
0x4000811c11:  48 89 4d b8              movq     %rcx, -0x48(%rbp)
0x4000811c15:  0f 84 bd 02 00 00        je       0x4000811ed8

----------------
IN: 
0x4000811c1b:  48 8d 14 09              leaq     (%rcx, %rcx), %rdx
0x4000811c1f:  0f b6 c0                 movzbl   %al, %eax
0x4000811c22:  31 f6                    xorl     %esi, %esi
0x4000811c24:  89 c3                    movl     %eax, %ebx
0x4000811c26:  89 45 a4                 movl     %eax, -0x5c(%rbp)
0x4000811c29:  48 8d 42 10              leaq     0x10(%rdx), %rax
0x4000811c2d:  89 db                    movl     %ebx, %ebx
0x4000811c2f:  44 8d 7b 01              leal     1(%rbx), %r15d
0x4000811c33:  48 c1 e8 04              shrq     $4, %rax
0x4000811c37:  48 c1 e0 04              shlq     $4, %rax
0x4000811c3b:  48 29 c4                 subq     %rax, %rsp
0x4000811c3e:  48 89 e7                 movq     %rsp, %rdi
0x4000811c41:  48 89 65 c0              movq     %rsp, -0x40(%rbp)
0x4000811c45:  e8 36 cf 00 00           callq    0x400081eb80

----------------
IN: 
0x4000811c4a:  eb 35                    jmp      0x4000811c81

----------------
IN: 
0x4000811c81:  48 8b 45 c0              movq     -0x40(%rbp), %rax
0x4000811c85:  48 8d 04 58              leaq     (%rax, %rbx, 2), %rax
0x4000811c89:  0f b7 30                 movzwl   (%rax), %esi
0x4000811c8c:  44 8d 76 01              leal     1(%rsi), %r14d
0x4000811c90:  66 44 89 30              movw     %r14w, (%rax)
0x4000811c94:  48 8b 45 a8              movq     -0x58(%rbp), %rax
0x4000811c98:  48 8d 3c d8              leaq     (%rax, %rbx, 8), %rdi
0x4000811c9c:  4c 8b 2f                 movq     (%rdi), %r13
0x4000811c9f:  4d 3b 6d 28              cmpq     0x28(%r13), %r13
0x4000811ca3:  75 ab                    jne      0x4000811c50

----------------
IN: 
0x4000811ca5:  41 83 bd dc 03 00 00 ff  cmpl     $-1, 0x3dc(%r13)
0x4000811cad:  74 a1                    je       0x4000811c50

----------------
IN: 
0x4000811caf:  8b 45 b4                 movl     -0x4c(%rbp), %eax
0x4000811cb2:  44 8d 48 ff              leal     -1(%rax), %r9d
0x4000811cb6:  44 39 4d a4              cmpl     %r9d, -0x5c(%rbp)
0x4000811cba:  73 94                    jae      0x4000811c50

----------------
IN: 
0x4000811cbc:  48 8b 45 a8              movq     -0x58(%rbp), %rax
0x4000811cc0:  45 89 cb                 movl     %r9d, %r11d
0x4000811cc3:  4e 8d 14 d8              leaq     (%rax, %r11, 8), %r10
0x4000811cc7:  49 8b 0a                 movq     (%r10), %rcx
0x4000811cca:  48 8b 81 b8 03 00 00     movq     0x3b8(%rcx), %rax
0x4000811cd1:  48 85 c0                 testq    %rax, %rax
0x4000811cd4:  0f 84 d6 01 00 00        je       0x4000811eb0

----------------
IN: 
0x4000811eb0:  48 8b 81 c0 03 00 00     movq     0x3c0(%rcx), %rax
0x4000811eb7:  48 85 c0                 testq    %rax, %rax
0x4000811eba:  0f 85 cd 00 00 00        jne      0x4000811f8d

----------------
IN: 
0x4000811ec0:  41 83 e9 01              subl     $1, %r9d
0x4000811ec4:  44 39 4d a4              cmpl     %r9d, -0x5c(%rbp)
0x4000811ec8:  0f 82 ee fd ff ff        jb       0x4000811cbc

----------------
IN: 
0x4000811ece:  e9 7d fd ff ff           jmp      0x4000811c50

----------------
IN: 
0x4000811c50:  44 89 fb                 movl     %r15d, %ebx
0x4000811c53:  48 39 5d b8              cmpq     %rbx, -0x48(%rbp)
0x4000811c57:  44 89 7d a4              movl     %r15d, -0x5c(%rbp)
0x4000811c5b:  49 89 d8                 movq     %rbx, %r8
0x4000811c5e:  0f 84 fc 00 00 00        je       0x4000811d60

----------------
IN: 
0x4000811c64:  48 8b 55 b8              movq     -0x48(%rbp), %rdx
0x4000811c68:  48 8b 45 c0              movq     -0x40(%rbp), %rax
0x4000811c6c:  31 f6                    xorl     %esi, %esi
0x4000811c6e:  41 83 c7 01              addl     $1, %r15d
0x4000811c72:  4c 29 c2                 subq     %r8, %rdx
0x4000811c75:  48 8d 3c 58              leaq     (%rax, %rbx, 2), %rdi
0x4000811c79:  48 01 d2                 addq     %rdx, %rdx
0x4000811c7c:  e8 ff ce 00 00           callq    0x400081eb80

----------------
IN: 
0x4000811d60:  48 8d 3d e1 5b 21 00     leaq     0x215be1(%rip), %rdi
0x4000811d67:  48 8b a5 70 ff ff ff     movq     -0x90(%rbp), %rsp
0x4000811d6e:  ff 15 dc 61 21 00        callq    *0x2161dc(%rip)

----------------
IN: 
0x4000811d74:  8b 4d b4                 movl     -0x4c(%rbp), %ecx
0x4000811d77:  85 c9                    testl    %ecx, %ecx
0x4000811d79:  0f 84 c4 00 00 00        je       0x4000811e43

----------------
IN: 
0x4000811d7f:  4c 8b 75 a8              movq     -0x58(%rbp), %r14
0x4000811d83:  45 31 ff                 xorl     %r15d, %r15d
0x4000811d86:  4c 89 65 b8              movq     %r12, -0x48(%rbp)
0x4000811d8a:  66 0f 1f 44 00 00        nopw     (%rax, %rax)
0x4000811d90:  4b 8b 1c fe              movq     (%r14, %r15, 8), %rbx
0x4000811d94:  0f b6 83 14 03 00 00     movzbl   0x314(%rbx), %eax
0x4000811d9b:  a8 08                    testb    $8, %al
0x4000811d9d:  0f 84 87 00 00 00        je       0x4000811e2a

----------------
IN: 
0x4000811da3:  83 e0 f7                 andl     $0xfffffffffffffff7, %eax
0x4000811da6:  88 83 14 03 00 00        movb     %al, 0x314(%rbx)
0x4000811dac:  48 8b 83 10 01 00 00     movq     0x110(%rbx), %rax
0x4000811db3:  48 85 c0                 testq    %rax, %rax
0x4000811db6:  0f 84 94 00 00 00        je       0x4000811e50

----------------
IN: 
0x4000811dbc:  f6 05 dd 4e 21 00 02     testb    $2, 0x214edd(%rip)
0x4000811dc3:  0f 85 9f 00 00 00        jne      0x4000811e68

----------------
IN: 
0x4000811dc9:  4c 8b 60 08              movq     8(%rax), %r12
0x4000811dcd:  48 8b 83 20 01 00 00     movq     0x120(%rbx), %rax
0x4000811dd4:  4c 03 23                 addq     (%rbx), %r12
0x4000811dd7:  48 8b 50 08              movq     8(%rax), %rdx
0x4000811ddb:  48 c1 ea 03              shrq     $3, %rdx
0x4000811ddf:  85 d2                    testl    %edx, %edx
0x4000811de1:  44 8d 6a ff              leal     -1(%rdx), %r13d
0x4000811de5:  74 19                    je       0x4000811e00

----------------
IN: 
0x4000811de7:  66 0f 1f 84 00 00 00 00  nopw     (%rax, %rax)
0x4000811def:  00
0x4000811df0:  44 89 ea                 movl     %r13d, %edx
0x4000811df3:  41 ff 14 d4              callq    *(%r12, %rdx, 8)

----------------
IN: 
0x00400740:  80 3d 31 19 20 00 00     cmpb     $0, 0x201931(%rip)
0x00400747:  75 11                    jne      0x40075a

----------------
IN: 
0x00400749:  55                       pushq    %rbp
0x0040074a:  48 89 e5                 movq     %rsp, %rbp
0x0040074d:  e8 6e ff ff ff           callq    0x4006c0

----------------
IN: 
0x004006c0:  b8 7f 20 60 00           movl     $0x60207f, %eax
0x004006c5:  55                       pushq    %rbp
0x004006c6:  48 2d 78 20 60 00        subq     $0x602078, %rax
0x004006cc:  48 83 f8 0e              cmpq     $0xe, %rax
0x004006d0:  48 89 e5                 movq     %rsp, %rbp
0x004006d3:  76 1b                    jbe      0x4006f0

----------------
IN: 
0x004006f0:  5d                       popq     %rbp
0x004006f1:  c3                       retq     

----------------
IN: 
0x00400752:  5d                       popq     %rbp
0x00400753:  c6 05 1e 19 20 00 01     movb     $1, 0x20191e(%rip)
0x0040075a:  f3 c3                    retq     

----------------
IN: 
0x4000811df7:  45 85 ed                 testl    %r13d, %r13d
0x4000811dfa:  45 8d 6d ff              leal     -1(%r13), %r13d
0x4000811dfe:  75 f0                    jne      0x4000811df0

----------------
IN: 
0x4000811e00:  48 8b 83 a8 00 00 00     movq     0xa8(%rbx), %rax
0x4000811e07:  48 85 c0                 testq    %rax, %rax
0x4000811e0a:  74 09                    je       0x4000811e15

----------------
IN: 
0x4000811e0c:  48 8b 40 08              movq     8(%rax), %rax
0x4000811e10:  48 03 03                 addq     (%rbx), %rax
0x4000811e13:  ff d0                    callq    *%rax

----------------
IN: 
0x00400d54:  48 83 ec 08              subq     $8, %rsp
0x00400d58:  48 83 c4 08              addq     $8, %rsp
0x00400d5c:  c3                       retq     

----------------
IN: 
0x4000811e15:  8b 55 b0                 movl     -0x50(%rbp), %edx
0x4000811e18:  85 d2                    testl    %edx, %edx
0x4000811e1a:  75 0e                    jne      0x4000811e2a

----------------
IN: 
0x4000811e1c:  8b 05 ee 4f 21 00        movl     0x214fee(%rip), %eax
0x4000811e22:  85 c0                    testl    %eax, %eax
0x4000811e24:  0f 85 ea 00 00 00        jne      0x4000811f14

----------------
IN: 
0x4000811e2a:  83 ab 10 03 00 00 01     subl     $1, 0x310(%rbx)
0x4000811e31:  49 83 c7 01              addq     $1, %r15
0x4000811e35:  44 39 7d b4              cmpl     %r15d, -0x4c(%rbp)
0x4000811e39:  0f 87 51 ff ff ff        ja       0x4000811d90

----------------
IN: 
0x4000811d90:  4b 8b 1c fe              movq     (%r14, %r15, 8), %rbx
0x4000811d94:  0f b6 83 14 03 00 00     movzbl   0x314(%rbx), %eax
0x4000811d9b:  a8 08                    testb    $8, %al
0x4000811d9d:  0f 84 87 00 00 00        je       0x4000811e2a

----------------
IN: 
0x4000811e50:  48 8b 83 a8 00 00 00     movq     0xa8(%rbx), %rax
0x4000811e57:  48 85 c0                 testq    %rax, %rax
0x4000811e5a:  74 b9                    je       0x4000811e15

----------------
IN: 
0x4000811e3f:  4c 8b 65 b8              movq     -0x48(%rbp), %r12
0x4000811e43:  48 8b 65 98              movq     -0x68(%rbp), %rsp
0x4000811e47:  e9 d1 fc ff ff           jmp      0x4000811b1d

----------------
IN: 
0x4000811b1d:  48 83 6d c8 01           subq     $1, -0x38(%rbp)
0x4000811b22:  49 81 ec 90 00 00 00     subq     $0x90, %r12
0x4000811b29:  48 8b 45 c8              movq     -0x38(%rbp), %rax
0x4000811b2d:  48 83 f8 ff              cmpq     $0xff, %rax
0x4000811b31:  0f 84 22 04 00 00        je       0x4000811f59

----------------
IN: 
0x4000811f59:  8b 75 b0                 movl     -0x50(%rbp), %esi
0x4000811f5c:  85 f6                    testl    %esi, %esi
0x4000811f5e:  75 15                    jne      0x4000811f75

----------------
IN: 
0x4000811f60:  8b 05 aa 4e 21 00        movl     0x214eaa(%rip), %eax
0x4000811f66:  c7 45 b0 01 00 00 00     movl     $1, -0x50(%rbp)
0x4000811f6d:  85 c0                    testl    %eax, %eax
0x4000811f6f:  0f 85 63 fb ff ff        jne      0x4000811ad8

----------------
IN: 
0x4000811f75:  f6 05 24 4d 21 00 80     testb    $0x80, 0x214d24(%rip)
0x4000811f7c:  75 64                    jne      0x4000811fe2

----------------
IN: 
0x4000811f7e:  48 8d 65 d8              leaq     -0x28(%rbp), %rsp
0x4000811f82:  5b                       popq     %rbx
0x4000811f83:  41 5c                    popq     %r12
0x4000811f85:  41 5d                    popq     %r13
0x4000811f87:  41 5e                    popq     %r14
0x4000811f89:  41 5f                    popq     %r15
0x4000811f8b:  5d                       popq     %rbp
0x4000811f8c:  c3                       retq     

----------------
IN: 
0x4000a8cff8:  e9 33 ff ff ff           jmp      0x4000a8cf30

----------------
IN: 
0x4000a8cf6f:  49 8b 45 00              movq     (%r13), %rax
0x4000a8cf73:  48 85 c0                 testq    %rax, %rax
0x4000a8cf76:  48 89 45 00              movq     %rax, (%rbp)
0x4000a8cf7a:  0f 85 9d 00 00 00        jne      0x4000a8d01d

----------------
IN: 
0x4000a8cf80:  45 84 e4                 testb    %r12b, %r12b
0x4000a8cf83:  74 1f                    je       0x4000a8cfa4

----------------
IN: 
0x4000a8cf85:  48 8d 2d 4c 69 38 00     leaq     0x38694c(%rip), %rbp
0x4000a8cf8c:  4c 8d 25 4d 69 38 00     leaq     0x38694d(%rip), %r12
0x4000a8cf93:  4c 39 e5                 cmpq     %r12, %rbp
0x4000a8cf96:  73 0c                    jae      0x4000a8cfa4

----------------
IN: 
0x4000a8cf98:  ff 55 00                 callq    *(%rbp)

----------------
IN: 
0x4000acf310:  41 55                    pushq    %r13
0x4000acf312:  41 54                    pushq    %r12
0x4000acf314:  31 ff                    xorl     %edi, %edi
0x4000acf316:  55                       pushq    %rbp
0x4000acf317:  53                       pushq    %rbx
0x4000acf318:  64 4c 8b 24 25 10 00 00  movq     %fs:0x10, %r12
0x4000acf320:  00
0x4000acf321:  48 83 ec 08              subq     $8, %rsp
0x4000acf325:  e8 f6 fc ff ff           callq    0x4000acf020

----------------
IN: 
0x4000acf020:  41 57                    pushq    %r15
0x4000acf022:  41 56                    pushq    %r14
0x4000acf024:  41 89 fe                 movl     %edi, %r14d
0x4000acf027:  41 55                    pushq    %r13
0x4000acf029:  41 54                    pushq    %r12
0x4000acf02b:  55                       pushq    %rbp
0x4000acf02c:  53                       pushq    %rbx
0x4000acf02d:  48 83 ec 28              subq     $0x28, %rsp
0x4000acf031:  85 ff                    testl    %edi, %edi
0x4000acf033:  0f 84 27 02 00 00        je       0x4000acf260

----------------
IN: 
0x4000acf260:  48 8b 1d b9 92 34 00     movq     0x3492b9(%rip), %rbx
0x4000acf267:  45 31 ed                 xorl     %r13d, %r13d
0x4000acf26a:  44 8b 3d e7 a4 34 00     movl     0x34a4e7(%rip), %r15d
0x4000acf271:  48 85 db                 testq    %rbx, %rbx
0x4000acf274:  0f 85 61 fe ff ff        jne      0x4000acf0db

----------------
IN: 
0x4000acf0db:  31 ed                    xorl     %ebp, %ebp
0x4000acf0dd:  64 4c 8b 24 25 10 00 00  movq     %fs:0x10, %r12
0x4000acf0e5:  00
0x4000acf0e6:  eb 1b                    jmp      0x4000acf103

----------------
IN: 
0x4000acf103:  45 85 f6                 testl    %r14d, %r14d
0x4000acf106:  48 89 1d 43 a6 34 00     movq     %rbx, 0x34a643(%rip)
0x4000acf10d:  74 56                    je       0x4000acf165

----------------
IN: 
0x4000acf165:  8b 83 c0 00 00 00        movl     0xc0(%rbx), %eax
0x4000acf16b:  85 c0                    testl    %eax, %eax
0x4000acf16d:  0f 8e 0d 01 00 00        jle      0x4000acf280

----------------
IN: 
0x4000acf280:  48 8b 43 20              movq     0x20(%rbx), %rax
0x4000acf284:  48 39 43 28              cmpq     %rax, 0x28(%rbx)
0x4000acf288:  0f 87 f6 fe ff ff        ja       0x4000acf184

----------------
IN: 
0x4000acf28e:  e9 0e ff ff ff           jmp      0x4000acf1a1

----------------
IN: 
0x4000acf1a1:  45 85 f6                 testl    %r14d, %r14d
0x4000acf1a4:  74 4a                    je       0x4000acf1f0

----------------
IN: 
0x4000acf1f0:  8b 05 62 a5 34 00        movl     0x34a562(%rip), %eax
0x4000acf1f6:  48 c7 05 4f a5 34 00 00  movq     $0, 0x34a54f(%rip)
0x4000acf1fe:  00 00 00
0x4000acf201:  44 39 f8                 cmpl     %r15d, %eax
0x4000acf204:  0f 85 e6 fe ff ff        jne      0x4000acf0f0

----------------
IN: 
0x4000acf20a:  48 8b 5b 68              movq     0x68(%rbx), %rbx
0x4000acf20e:  48 85 db                 testq    %rbx, %rbx
0x4000acf211:  0f 85 e9 fe ff ff        jne      0x4000acf100

----------------
IN: 
0x4000acf100:  41 89 c7                 movl     %eax, %r15d
0x4000acf103:  45 85 f6                 testl    %r14d, %r14d
0x4000acf106:  48 89 1d 43 a6 34 00     movq     %rbx, 0x34a643(%rip)
0x4000acf10d:  74 56                    je       0x4000acf165

----------------
IN: 
0x4000acf217:  45 85 f6                 testl    %r14d, %r14d
0x4000acf21a:  74 13                    je       0x4000acf22f

----------------
IN: 
0x4000acf22f:  45 85 ed                 testl    %r13d, %r13d
0x4000acf232:  74 1b                    je       0x4000acf24f

----------------
IN: 
0x4000acf24f:  48 83 c4 28              addq     $0x28, %rsp
0x4000acf253:  89 e8                    movl     %ebp, %eax
0x4000acf255:  5b                       popq     %rbx
0x4000acf256:  5d                       popq     %rbp
0x4000acf257:  41 5c                    popq     %r12
0x4000acf259:  41 5d                    popq     %r13
0x4000acf25b:  41 5e                    popq     %r14
0x4000acf25d:  41 5f                    popq     %r15
0x4000acf25f:  c3                       retq     

----------------
IN: 
0x4000acf32a:  48 8b 1d ef 91 34 00     movq     0x3491ef(%rip), %rbx
0x4000acf331:  41 89 c5                 movl     %eax, %r13d
0x4000acf334:  48 85 db                 testq    %rbx, %rbx
0x4000acf337:  0f 85 96 00 00 00        jne      0x4000acf3d3

----------------
IN: 
0x4000acf3d3:  f6 03 02                 testb    $2, (%rbx)
0x4000acf3d6:  75 e8                    jne      0x4000acf3c0

----------------
IN: 
0x4000acf3c0:  c7 83 c0 00 00 00 ff ff  movl     $0xffffffff, 0xc0(%rbx)
0x4000acf3c8:  ff ff
0x4000acf3ca:  48 8b 5b 68              movq     0x68(%rbx), %rbx
0x4000acf3ce:  48 85 db                 testq    %rbx, %rbx
0x4000acf3d1:  74 65                    je       0x4000acf438

----------------
IN: 
0x4000acf3d8:  8b 93 c0 00 00 00        movl     0xc0(%rbx), %edx
0x4000acf3de:  85 d2                    testl    %edx, %edx
0x4000acf3e0:  74 de                    je       0x4000acf3c0

----------------
IN: 
0x4000acf3e2:  31 ed                    xorl     %ebp, %ebp
0x4000acf3e4:  48 8b 93 88 00 00 00     movq     0x88(%rbx), %rdx
0x4000acf3eb:  48 85 d2                 testq    %rdx, %rdx
0x4000acf3ee:  0f 84 66 ff ff ff        je       0x4000acf35a

----------------
IN: 
0x4000acf3f4:  4c 3b 62 08              cmpq     8(%rdx), %r12
0x4000acf3f8:  0f 84 aa 00 00 00        je       0x4000acf4a8

----------------
IN: 
0x4000acf3fe:  31 c0                    xorl     %eax, %eax
0x4000acf400:  b9 01 00 00 00           movl     $1, %ecx
0x4000acf405:  83 3d 34 d3 34 00 00     cmpl     $0, 0x34d334(%rip)
0x4000acf40c:  74 06                    je       0x4000acf414

----------------
IN: 
0x4000acf414:  0f b1 0a                 cmpxchgl %ecx, (%rdx)
0x4000acf417:  85 c0                    testl    %eax, %eax
0x4000acf419:  0f 84 29 ff ff ff        je       0x4000acf348

----------------
IN: 
0x4000acf348:  48 8b 83 88 00 00 00     movq     0x88(%rbx), %rax
0x4000acf34f:  4c 89 60 08              movq     %r12, 8(%rax)
0x4000acf353:  c7 40 04 01 00 00 00     movl     $1, 4(%rax)
0x4000acf35a:  80 3d e7 a3 34 00 00     cmpb     $0, 0x34a3e7(%rip)
0x4000acf361:  75 2b                    jne      0x4000acf38e

----------------
IN: 
0x4000acf363:  8b 03                    movl     (%rbx), %eax
0x4000acf365:  a8 01                    testb    $1, %al
0x4000acf367:  75 25                    jne      0x4000acf38e

----------------
IN: 
0x4000acf369:  83 c8 01                 orl      $1, %eax
0x4000acf36c:  89 03                    movl     %eax, (%rbx)
0x4000acf36e:  48 8b 05 cb a3 34 00     movq     0x34a3cb(%rip), %rax
0x4000acf375:  48 89 1d c4 a3 34 00     movq     %rbx, 0x34a3c4(%rip)
0x4000acf37c:  48 89 83 a8 00 00 00     movq     %rax, 0xa8(%rbx)
0x4000acf383:  48 8b 43 38              movq     0x38(%rbx), %rax
0x4000acf387:  48 89 83 b0 00 00 00     movq     %rax, 0xb0(%rbx)
0x4000acf38e:  48 8b 83 d8 00 00 00     movq     0xd8(%rbx), %rax
0x4000acf395:  31 d2                    xorl     %edx, %edx
0x4000acf397:  31 f6                    xorl     %esi, %esi
0x4000acf399:  48 89 df                 movq     %rbx, %rdi
0x4000acf39c:  ff 50 58                 callq    *0x58(%rax)

----------------
IN: 
0x4000acb430:  53                       pushq    %rbx
0x4000acb431:  48 89 fb                 movq     %rdi, %rbx
0x4000acb434:  e8 f7 34 00 00           callq    0x4000ace930

----------------
IN: 
0x4000ace930:  41 54                    pushq    %r12
0x4000ace932:  55                       pushq    %rbp
0x4000ace933:  49 89 f4                 movq     %rsi, %r12
0x4000ace936:  53                       pushq    %rbx
0x4000ace937:  48 8b 87 d8 00 00 00     movq     0xd8(%rdi), %rax
0x4000ace93e:  48 89 fb                 movq     %rdi, %rbx
0x4000ace941:  48 89 d5                 movq     %rdx, %rbp
0x4000ace944:  ff 50 60                 callq    *0x60(%rax)

----------------
IN: 
0x4000acb370:  53                       pushq    %rbx
0x4000acb371:  48 8b 57 28              movq     0x28(%rdi), %rdx
0x4000acb375:  48 89 fb                 movq     %rdi, %rbx
0x4000acb378:  48 8b 77 20              movq     0x20(%rdi), %rsi
0x4000acb37c:  48 39 f2                 cmpq     %rsi, %rdx
0x4000acb37f:  76 2e                    jbe      0x4000acb3af

----------------
IN: 
0x4000acb3af:  48 8b 73 08              movq     8(%rbx), %rsi
0x4000acb3b3:  48 2b 73 10              subq     0x10(%rbx), %rsi
0x4000acb3b7:  75 17                    jne      0x4000acb3d0

----------------
IN: 
0x4000acb3b9:  48 c7 83 90 00 00 00 ff  movq     $-1, 0x90(%rbx)
0x4000acb3c1:  ff ff ff
0x4000acb3c4:  31 c0                    xorl     %eax, %eax
0x4000acb3c6:  5b                       popq     %rbx
0x4000acb3c7:  c3                       retq     

----------------
IN: 
0x4000ace947:  83 f8 ff                 cmpl     $0xff, %eax
0x4000ace94a:  0f 84 a0 00 00 00        je       0x4000ace9f0

----------------
IN: 
0x4000ace950:  8b 13                    movl     (%rbx), %edx
0x4000ace952:  4d 85 e4                 testq    %r12, %r12
0x4000ace955:  89 d0                    movl     %edx, %eax
0x4000ace957:  74 67                    je       0x4000ace9c0

----------------
IN: 
0x4000ace9c0:  48 8b 7b 38              movq     0x38(%rbx), %rdi
0x4000ace9c4:  83 c8 02                 orl      $2, %eax
0x4000ace9c7:  48 8d ab 84 00 00 00     leaq     0x84(%rbx), %rbp
0x4000ace9ce:  89 03                    movl     %eax, (%rbx)
0x4000ace9d0:  4c 8d a3 83 00 00 00     leaq     0x83(%rbx), %r12
0x4000ace9d7:  48 85 ff                 testq    %rdi, %rdi
0x4000ace9da:  74 98                    je       0x4000ace974

----------------
IN: 
0x4000ace9dc:  83 e2 01                 andl     $1, %edx
0x4000ace9df:  75 93                    jne      0x4000ace974

----------------
IN: 
0x4000ace974:  83 c8 01                 orl      $1, %eax
0x4000ace977:  4c 89 63 38              movq     %r12, 0x38(%rbx)
0x4000ace97b:  48 89 6b 40              movq     %rbp, 0x40(%rbx)
0x4000ace97f:  89 03                    movl     %eax, (%rbx)
0x4000ace981:  48 c7 43 30 00 00 00 00  movq     $0, 0x30(%rbx)
0x4000ace989:  48 89 d8                 movq     %rbx, %rax
0x4000ace98c:  48 c7 43 28 00 00 00 00  movq     $0, 0x28(%rbx)
0x4000ace994:  48 c7 43 20 00 00 00 00  movq     $0, 0x20(%rbx)
0x4000ace99c:  48 c7 43 10 00 00 00 00  movq     $0, 0x10(%rbx)
0x4000ace9a4:  48 c7 43 08 00 00 00 00  movq     $0, 8(%rbx)
0x4000ace9ac:  48 c7 43 18 00 00 00 00  movq     $0, 0x18(%rbx)
0x4000ace9b4:  5b                       popq     %rbx
0x4000ace9b5:  5d                       popq     %rbp
0x4000ace9b6:  41 5c                    popq     %r12
0x4000ace9b8:  c3                       retq     

----------------
IN: 
0x4000acb439:  48 85 c0                 testq    %rax, %rax
0x4000acb43c:  74 1f                    je       0x4000acb45d

----------------
IN: 
0x4000acb43e:  48 8b 43 38              movq     0x38(%rbx), %rax
0x4000acb442:  48 89 43 30              movq     %rax, 0x30(%rbx)
0x4000acb446:  48 89 43 28              movq     %rax, 0x28(%rbx)
0x4000acb44a:  48 89 43 20              movq     %rax, 0x20(%rbx)
0x4000acb44e:  48 89 43 18              movq     %rax, 0x18(%rbx)
0x4000acb452:  48 89 43 08              movq     %rax, 8(%rbx)
0x4000acb456:  48 89 43 10              movq     %rax, 0x10(%rbx)
0x4000acb45a:  48 89 d8                 movq     %rbx, %rax
0x4000acb45d:  5b                       popq     %rbx
0x4000acb45e:  c3                       retq     

----------------
IN: 
0x4000acf39f:  8b 83 c0 00 00 00        movl     0xc0(%rbx), %eax
0x4000acf3a5:  85 c0                    testl    %eax, %eax
0x4000acf3a7:  7e 0e                    jle      0x4000acf3b7

----------------
IN: 
0x4000acf3b7:  83 fd 02                 cmpl     $2, %ebp
0x4000acf3ba:  0f 85 90 00 00 00        jne      0x4000acf450

----------------
IN: 
0x4000acf450:  48 8b 93 88 00 00 00     movq     0x88(%rbx), %rdx
0x4000acf457:  48 85 d2                 testq    %rdx, %rdx
0x4000acf45a:  0f 84 60 ff ff ff        je       0x4000acf3c0

----------------
IN: 
0x4000acf460:  83 6a 04 01              subl     $1, 4(%rdx)
0x4000acf464:  0f 85 56 ff ff ff        jne      0x4000acf3c0

----------------
IN: 
0x4000acf46a:  48 c7 42 08 00 00 00 00  movq     $0, 8(%rdx)
0x4000acf472:  83 3d c7 d2 34 00 00     cmpl     $0, 0x34d2c7(%rip)
0x4000acf479:  74 07                    je       0x4000acf482

----------------
IN: 
0x4000acf482:  ff 0a                    decl     (%rdx)
0x4000acf484:  74 16                    je       0x4000acf49c

----------------
IN: 
0x4000acf49c:  e9 1f ff ff ff           jmp      0x4000acf3c0

----------------
IN: 
0x4000acf438:  48 83 c4 08              addq     $8, %rsp
0x4000acf43c:  44 89 e8                 movl     %r13d, %eax
0x4000acf43f:  5b                       popq     %rbx
0x4000acf440:  5d                       popq     %rbp
0x4000acf441:  41 5c                    popq     %r12
0x4000acf443:  41 5d                    popq     %r13
0x4000acf445:  c3                       retq     

----------------
IN: 
0x4000a8cf9b:  48 83 c5 08              addq     $8, %rbp
0x4000a8cf9f:  4c 39 e5                 cmpq     %r12, %rbp
0x4000a8cfa2:  72 f4                    jb       0x4000a8cf98

----------------
IN: 
0x4000a8cfa4:  89 df                    movl     %ebx, %edi
0x4000a8cfa6:  e8 65 27 09 00           callq    0x4000b1f710

----------------
IN: 
0x4000b1f710:  48 63 d7                 movslq   %edi, %rdx
0x4000b1f713:  4c 8b 0d 5e 77 2f 00     movq     0x2f775e(%rip), %r9
0x4000b1f71a:  41 b8 e7 00 00 00        movl     $0xe7, %r8d
0x4000b1f720:  be 3c 00 00 00           movl     $0x3c, %esi
0x4000b1f725:  eb 19                    jmp      0x4000b1f740

----------------
IN: 
0x4000b1f740:  48 89 d7                 movq     %rdx, %rdi
0x4000b1f743:  44 89 c0                 movl     %r8d, %eax
0x4000b1f746:  0f 05                    syscall  

